ccollections
Counter
p1
((dp2
S'fawn'
p3
I1
sS'pardon'
p4
I1
sS'yellow'
p5
I2
sS'four'
p6
I1
sS'hath'
p7
I43
sS'sleep'
p8
I4
sS"friend's"
p9
I2
sS'hanging'
p10
I1
sS'mansion'
p11
I2
sS'appetite'
p12
I4
sS'evermore'
p13
I3
sS'hate'
p14
I13
sS'poorly'
p15
I1
sS'whose'
p16
I19
sS'feeding'
p17
I3
sS'effectually'
p18
I1
sS'granting'
p19
I1
sS'sweetest'
p20
I5
sS'presents'
p21
I1
sS'whatsoever'
p22
I1
sS'under'
p23
I6
sS'lord'
p24
I1
sS'sorry'
p25
I1
sS'pride'
p26
I9
sS'sway'
p27
I2
sS'worth'
p28
I19
sS'frowns'
p29
I1
sS'discased'
p30
I1
sS'dispense'
p31
I1
sS'hadst'
p32
I2
sS'inhearse'
p33
I1
sS"women's"
p34
I3
sS'every'
p35
I29
sS'foul'
p36
I7
sS'nourished'
p37
I1
sS"o'er-read"
p38
I1
sS'uttering'
p39
I1
sS'prize'
p40
I3
sS'sunk'
p41
I1
sS'graced'
p42
I1
sS'succession'
p43
I1
sS'graces'
p44
I5
sS'triumph'
p45
I3
sS'enjoy'
p46
I1
sS'charter'
p47
I2
sS'force'
p48
I2
sS'tired'
p49
I4
sS'razed'
p50
I2
sS'out-going'
p51
I1
sS'tires'
p52
I1
sS'crave'
p53
I1
sS'persuade'
p54
I1
sS'down-rased'
p55
I1
sS'esteem'
p56
I2
sS'quill'
p57
I2
sS'even'
p58
I24
sS'beated'
p59
I1
sS'captain'
p60
I2
sS'hide'
p61
I5
sS"ne'er"
p62
I3
sS'solemn'
p63
I1
sS'thunder'
p64
I1
sS'fingers'
p65
I3
sS'liberty'
p66
I2
sS"gild'st"
p67
I1
sS'worser'
p68
I1
sS'wakened'
p69
I1
sS'above'
p70
I4
sS'matcheth'
p71
I1
sS'new'
p72
I22
sS'increasing'
p73
I1
sS'ever'
p74
I11
sS'told'
p75
I4
sS'deemed'
p76
I2
sS'sinks'
p77
I1
sS'never'
p78
I15
sS'here'
p79
I4
sS'herd'
p80
I1
sS'beck'
p81
I1
sS"sweet'st"
p82
I1
sS'pursuit'
p83
I2
sS'active'
p84
I1
sS'quite'
p85
I5
sS'a-doting'
p86
I1
sS'dry'
p87
I1
sS'resty'
p88
I1
sS'substance'
p89
I4
sS'attending'
p90
I2
sS'leaves'
p91
I8
sS'climbed'
p92
I1
sS'credit'
p93
I1
sS'smoke'
p94
I1
sS'permit'
p95
I1
sS'bettered'
p96
I1
sS'weakens'
p97
I1
sS'settled'
p98
I1
sS'golden'
p99
I5
sS'swearing'
p100
I1
sS'divide'
p101
I1
sS'blessed-fair'
p102
I1
sS'sorrows'
p103
I2
sS'patience'
p104
I2
sS'stern'
p105
I1
sS'glance'
p106
I2
sS"light's"
p107
I1
sS'plot'
p108
I1
sS'would'
p109
I21
sS'crowning'
p110
I1
sS"world's"
p111
I5
sS'junes'
p112
I1
sS'music'
p113
I6
sS'therefore'
p114
I17
sS'survive'
p115
I2
sS'gilding'
p116
I2
sS'tell'
p117
I15
sS'breathe'
p118
I2
sS'leese'
p119
I1
sS'unbless'
p120
I1
sS'holy'
p121
I4
sS'wary'
p122
I1
sS'brings'
p123
I2
sS'muse'
p124
I16
sS'pierced'
p125
I1
sS'grief'
p126
I5
sS'glass'
p127
I9
sS'warm'
p128
I1
sS'former'
p129
I4
sS'excellent'
p130
I1
sS'robbing'
p131
I1
sS'ward'
p132
I1
sS'hold'
p133
I12
sS'striving'
p134
I1
sS'must'
p135
I20
sS'shoot'
p136
I1
sS'join'
p137
I1
sS'room'
p138
I1
sS'err'
p139
I1
sS'rights'
p140
I1
sS'work'
p141
I3
sS'eclipse'
p142
I1
sS'roof'
p143
I1
sS'meadows'
p144
I1
sS'ere'
p145
I6
sS'sharp'
p146
I1
sS'leaped'
p147
I1
sS'dost'
p148
I28
sS'revenues'
p149
I1
sS'my'
p150
I391
sS'example'
p151
I1
sS'shook'
p152
I1
sS'fresher'
p153
I1
sS'wane'
p154
I1
sS'unjust'
p155
I1
sS'contented'
p156
I3
sS'honey'
p157
I1
sS"wand'rest"
p158
I1
sS'respose'
p159
I1
sS'appearance'
p160
I1
sS'story'
p161
I4
sS'returned'
p162
I1
sS'ceremony'
p163
I1
sS"consum'st"
p164
I1
sS'thing'
p165
I12
sS'provide'
p166
I1
sS'dignifies'
p167
I1
sS'travel'
p168
I2
sS'feature'
p169
I1
sS'wights'
p170
I1
sS'faults'
p171
I8
sS'hot'
p172
I3
sS'writers'
p173
I1
sS'low'
p174
I1
sS'answer'
p175
I3
sS'gate'
p176
I1
sS'dignified'
p177
I1
sS"o'er-snowed"
p178
I1
sS'blanks'
p179
I1
sS'beauty'
p180
I52
sS'after'
p181
I10
sS'wrong'
p182
I5
sS'lay'
p183
I2
sS'lap'
p184
I1
sS'wronk'
p185
I1
sS"grow'st"
p186
I2
sS"rud'st"
p187
I1
sS'revolt'
p188
I1
sS'greet'
p189
I3
sS'purging'
p190
I1
sS'wink'
p191
I2
sS'maintain'
p192
I1
sS'haste'
p193
I3
sS'keeps'
p194
I4
sS'alack'
p195
I3
sS'mightier'
p196
I1
sS'wouldst'
p197
I3
sS'wind'
p198
I2
sS'bed-vow'
p199
I1
sS'determinate'
p200
I1
sS'couplement'
p201
I1
sS'after-loss'
p202
I1
sS'office'
p203
I1
sS'consent'
p204
I1
sS'choose'
p205
I1
sS'profaned'
p206
I2
sS'sickly'
p207
I1
sS'fortify'
p208
I2
sS'ghastly'
p209
I1
sS'budding'
p210
I1
sS"bestow'st"
p211
I1
sS'wrought'
p212
I2
sS'before'
p213
I15
sS'wilt'
p214
I14
sS'thrust'
p215
I1
sS'better'
p216
I19
sS'fade'
p217
I3
sS'carve'
p218
I1
sS'hidden'
p219
I1
sS'possessing'
p220
I2
sS'then'
p221
I74
sS'them'
p222
I17
sS'blots'
p223
I1
sS'enrich'
p224
I1
sS'thee'
p225
I158
sS"truth's"
p226
I1
sS'break'
p227
I4
sS"winter's"
p228
I3
sS'diseased'
p229
I1
sS'they'
p230
I52
sS'glazed'
p231
I1
sS"lovers'"
p232
I1
sS'silver'
p233
I1
sS'shadows'
p234
I3
sS'rhetoric'
p235
I1
sS'brightness'
p236
I1
sS'slavery'
p237
I1
sS'rocks'
p238
I1
sS'herald'
p239
I1
sS'victories'
p240
I1
sS'each'
p241
I15
sS'wantonly'
p242
I1
sS'dulness'
p243
I1
sS'went'
p244
I1
sS'side'
p245
I6
sS'luck'
p246
I1
sS'true-telling'
p247
I1
sS'woes'
p248
I1
sS'concord'
p249
I2
sS"'will'"
p250
I4
sS'taught'
p251
I6
sS'forgot'
p252
I4
sS'misprision'
p253
I1
sS'whit'
p254
I1
sS'truant'
p255
I1
sS'sounds'
p256
I2
sS'borne'
p257
I2
sS'contend'
p258
I1
sS'silvered'
p259
I1
sS'decree'
p260
I1
sS'god'
p261
I2
sS'forty'
p262
I1
sS'moiety'
p263
I1
sS'content'
p264
I2
sS'laid'
p265
I4
sS'heart-inflaming'
p266
I1
sS'heavenly'
p267
I3
sS'got'
p268
I3
sS'marigold'
p269
I1
sS'forth'
p270
I7
sS'assured'
p271
I4
sS'fadeth'
p272
I1
sS'tops'
p273
I1
sS'eternal'
p274
I6
sS'little'
p275
I2
sS'free'
p276
I4
sS'mourning'
p277
I2
sS'small'
p278
I2
sS'bestow'
p279
I1
sS'whereupon'
p280
I1
sS'rain'
p281
I3
sS'basest'
p282
I3
sS'crowned'
p283
I4
sS'mistress'
p284
I3
sS'knit'
p285
I1
sS"receiv'st"
p286
I2
sS'created'
p287
I2
sS'days'
p288
I17
sS'ordering'
p289
I1
sS'renew'
p290
I1
sS'tempting'
p291
I1
sS'potions'
p292
I2
sS'loud'
p293
I1
sS'ruinate'
p294
I1
sS'penury'
p295
I1
sS'separable'
p296
I1
sS'untutored'
p297
I1
sS'already'
p298
I1
sS'hearsay'
p299
I1
sS"'greeing"
p300
I1
sS'rank'
p301
I5
sS'hearing'
p302
I1
sS'workings'
p303
I1
sS'featured'
p304
I1
sS'another'
p305
I8
sS'sober'
p306
I1
sS'filching'
p307
I1
sS'exchequer'
p308
I1
sS'usurer'
p309
I2
sS'their'
p310
I63
sS'top'
p311
I1
sS'hawks'
p312
I2
sS'millioned'
p313
I1
sS'master'
p314
I2
sS'too'
p315
I17
sS'dwell'
p316
I6
sS'bitter'
p317
I2
sS'feathers'
p318
I1
sS'griefs'
p319
I1
sS'took'
p320
I5
sS'wisdom'
p321
I1
sS'wardrobe'
p322
I1
sS"youth's"
p323
I1
sS'begins'
p324
I1
sS'distance'
p325
I1
sS'coward'
p326
I1
sS'singleness'
p327
I1
sS'bitterness'
p328
I2
sS'idly'
p329
I1
sS'matter'
p330
I3
sS'idle'
p331
I2
sS'inheritors'
p332
I1
sS'flame'
p333
I3
sS'speaking'
p334
I4
sS'deserving'
p335
I1
sS'knights'
p336
I1
sS'prone'
p337
I1
sS'powers'
p338
I1
sS'swift-footed'
p339
I1
sS'fashion'
p340
I2
sS'sees'
p341
I1
sS'gaudy'
p342
I1
sS"mind's"
p343
I1
sS'modern'
p344
I1
sS'mind'
p345
I16
sS'mine'
p346
I63
sS'loathsome'
p347
I1
sS'manner'
p348
I1
sS'bewailed'
p349
I1
sS"deserv'st"
p350
I1
sS'churl'
p351
I2
sS'seem'
p352
I12
sS'seek'
p353
I4
sS'tells'
p354
I2
sS'contents'
p355
I1
sS'praising'
p356
I2
sS'strength'
p357
I5
sS'snow'
p358
I1
sS'chest'
p359
I3
sS'subjects'
p360
I2
sS'laughed'
p361
I1
sS'pilgrimage'
p362
I2
sS'rider'
p363
I1
sS'maiden'
p364
I3
sS'though'
p365
I32
sS'object'
p366
I1
sS'dial'
p367
I2
sS'clears'
p368
I1
sS'errors'
p369
I4
sS'disarmed'
p370
I1
sS'grave'
p371
I3
sS'shalt'
p372
I11
sS'constancy'
p373
I3
sS'foist'
p374
I1
sS'flow'
p375
I1
sS'breathes'
p376
I1
sS'spend'
p377
I5
sS'points'
p378
I1
sS'breathed'
p379
I1
sS'sum'
p380
I4
sS'fitted'
p381
I1
sS'reserve'
p382
I2
sS'saying'
p383
I1
sS'bait'
p384
I1
sS'his'
p385
I103
sS'enjoyer'
p386
I1
sS'ending'
p387
I1
sS'showing'
p388
I1
sS'poison'
p389
I1
sS'earth'
p390
I12
sS'bail'
p391
I2
sS'enjoyed'
p392
I1
sS'touches'
p393
I4
sS'flowers'
p394
I7
sS'just'
p395
I4
sS'spite'
p396
I5
sS"woman's"
p397
I3
sS'spites'
p398
I1
sS'cupid'
p399
I2
sS'bliss'
p400
I1
sS'touched'
p401
I1
sS'rich'
p402
I10
sS'pursuing'
p403
I1
sS'mend'
p404
I3
sS"'thou"
p405
I1
sS'soundless'
p406
I1
sS'borrowed'
p407
I2
sS'do'
p408
I84
sS'blenches'
p409
I1
sS'forsworn'
p410
I4
sS'stop'
p411
I2
sS'perceive'
p412
I1
sS'leisure'
p413
I4
sS'raiment'
p414
I1
sS'gored'
p415
I1
sS'bootless'
p416
I1
sS'despite'
p417
I6
sS'report'
p418
I4
sS'saturn'
p419
I1
sS'seemly'
p420
I1
sS'runs'
p421
I1
sS'bar'
p422
I1
sS"o'er"
p423
I6
sS'thrusts'
p424
I1
sS'public'
p425
I4
sS'twice'
p426
I2
sS'eyelids'
p427
I2
sS'esteeming'
p428
I1
sS'hasten'
p429
I1
sS'steal'
p430
I6
sS'thanks'
p431
I1
sS'unprovident'
p432
I1
sS'penance'
p433
I1
sS"wond'ring"
p434
I1
sS'fair'
p435
I43
sS'habit'
p436
I1
sS'imitate'
p437
I1
sS'proclaims'
p438
I1
sS'depends'
p439
I2
sS'corrupt'
p440
I2
sS'best'
p441
I23
sS'subject'
p442
I5
sS'said'
p443
I4
sS'temptation'
p444
I2
sS"bett'ring"
p445
I1
sS'away'
p446
I18
sS'sail'
p447
I3
sS'bier'
p448
I1
sS'injuries'
p449
I2
sS'mud'
p450
I1
sS"there's"
p451
I1
sS'finger'
p452
I1
sS'pebbled'
p453
I1
sS'scorn'
p454
I2
sS'drawn'
p455
I3
sS'vices'
p456
I1
sS'preserve'
p457
I1
sS'warrior'
p458
I1
sS'we'
p459
I15
sS'men'
p460
I15
sS'terms'
p461
I1
sS'parallels'
p462
I1
sS'nature'
p463
I9
sS'lover'
p464
I1
sS'weak'
p465
I2
sS'ignorance'
p466
I2
sS'religious'
p467
I1
sS'authorizing'
p468
I1
sS'disdaineth'
p469
I1
sS'wear'
p470
I3
sS'diest'
p471
I1
sS'news'
p472
I1
sS'debt'
p473
I1
sS'pity'
p474
I8
sS'foes'
p475
I3
sS'goddess'
p476
I2
sS'accident'
p477
I1
sS'disdain'
p478
I2
sS'fault'
p479
I3
sS'ill'
p480
I17
sS'against'
p481
I18
sS'brag'
p482
I1
sS'receives'
p483
I3
sS'faces'
p484
I2
sS'exceeds'
p485
I1
sS'expense'
p486
I3
sS'groans'
p487
I1
sS'asked'
p488
I1
sS'vexed'
p489
I1
sS'honouring'
p490
I1
sS'burthen'
p491
I2
sS'height'
p492
I3
sS'hers'
p493
I1
sS'springs'
p494
I1
sS'trust'
p495
I5
sS'heals'
p496
I1
sS'speak'
p497
I8
sS'petty'
p498
I1
sS'unhappily'
p499
I1
sS'puts'
p500
I1
sS'hues'
p501
I1
sS'time-bettering'
p502
I1
sS'three'
p503
I7
sS'been'
p504
I6
sS'particulars'
p505
I1
sS'twain'
p506
I3
sS'much'
p507
I17
sS'afloat'
p508
I1
sS'interest'
p509
I2
sS'incertainty'
p510
I1
sS'privilege'
p511
I1
sS'lovely'
p512
I7
sS'thrice'
p513
I3
sS'idol'
p514
I1
sS'threw'
p515
I1
sS'life'
p516
I23
sS"brav'ry"
p517
I1
sS'beloved'
p518
I5
sS'drugs'
p519
I1
sS'pointing'
p520
I1
sS'decrepit'
p521
I1
sS'dote'
p522
I2
sS'child'
p523
I8
sS'catch'
p524
I4
sS"ne'er-cloying"
p525
I1
sS'doth'
p526
I88
sS'erst'
p527
I1
sS'gracious'
p528
I5
sS'play'
p529
I5
sS'physician'
p530
I1
sS'save'
p531
I8
sS'gentle'
p532
I14
sS'air'
p533
I4
sS'lesser'
p534
I1
sS'ugly'
p535
I1
sS'near'
p536
I5
sS'suppose'
p537
I1
sS'aid'
p538
I2
sS'voice'
p539
I1
sS'mistake'
p540
I1
sS'recured'
p541
I1
sS'is'
p542
I167
sS'it'
p543
I110
sS'defeated'
p544
I1
sS'shame'
p545
I9
sS'to-morrow'
p546
I3
sS'splendour'
p547
I1
sS'in'
p548
I320
sS'bounteous'
p549
I2
sS'if'
p550
I66
sS'grown'
p551
I3
sS'wooing'
p552
I1
sS'memorial'
p553
I1
sS'lacking'
p554
I1
sS'cools'
p555
I1
sS'patent'
p556
I1
sS'suggest'
p557
I1
sS'make'
p558
I43
sS'wound'
p559
I4
sS"lords'"
p560
I1
sS'beside'
p561
I2
sS"th'"
p562
I9
sS'several'
p563
I1
sS'grows'
p564
I4
sS'entitled'
p565
I1
sS'lusty'
p566
I2
sS'fairly'
p567
I1
sS'thereof'
p568
I1
sS'hang'
p569
I3
sS'evil'
p570
I4
sS'hand'
p571
I17
sS'delight'
p572
I8
sS'supposing'
p573
I1
sS'jealous'
p574
I1
sS'bequest'
p575
I1
sS'blamed'
p576
I2
sS'thoughts'
p577
I18
sS'censures'
p578
I1
sS'kept'
p579
I3
sS'thy'
p580
I279
sS"mother's"
p581
I3
sS'askance'
p582
I1
sS'possessed'
p583
I2
sS'humble'
p584
I2
sS'inherit'
p585
I1
sS'ocean'
p586
I3
sS'ragged'
p587
I1
sS'quest'
p588
I2
sS'greatest'
p589
I1
sS'incapable'
p590
I1
sS'mother'
p591
I2
sS'hearts'
p592
I4
sS'the'
p593
I426
sS'yours'
p594
I5
sS'left'
p595
I5
sS'proposed'
p596
I1
sS'wasteful'
p597
I2
sS'yea'
p598
I1
sS"poet's"
p599
I2
sS'unfair'
p600
I1
sS'repose'
p601
I1
sS'verses'
p602
I1
sS'maketh'
p603
I1
sS'farther'
p604
I4
sS'swears'
p605
I1
sS'prognosticate'
p606
I1
sS'plight'
p607
I1
sS'yet'
p608
I49
sS'succeeding'
p609
I1
sS'enlighten'
p610
I1
sS'adding'
p611
I1
sS'dearer'
p612
I2
sS'compeers'
p613
I1
sS'character'
p614
I3
sS'about'
p615
I1
sS'alchemy'
p616
I2
sS'presagers'
p617
I1
sS'easy'
p618
I1
sS'prison'
p619
I1
sS'hap'
p620
I1
sS'pitiful'
p621
I1
sS'east'
p622
I1
sS'gave'
p623
I5
sS"others'"
p624
I5
sS'looks'
p625
I13
sS'reviewest'
p626
I1
sS'birth'
p627
I5
sS'shadow'
p628
I7
sS'dreams'
p629
I2
sS"feed'st"
p630
I1
sS'desire'
p631
I11
sS'dignity'
p632
I1
sS"picture's"
p633
I1
sS'gift'
p634
I5
sS'new-found'
p635
I1
sS'vilest'
p636
I1
sS'offices'
p637
I1
sS'night'
p638
I22
sS'hung'
p639
I2
sS'antique'
p640
I5
sS'right'
p641
I10
sS'old'
p642
I22
sS'flatter'
p643
I3
sS'all-oblivious'
p644
I1
sS'deaf'
p645
I1
sS'short-numbered'
p646
I1
sS'dead'
p647
I16
sS'born'
p648
I7
sS'kind-hearted'
p649
I1
sS'dear'
p650
I21
sS'pain'
p651
I5
sS'bore'
p652
I2
sS'creep'
p653
I1
sS'enemies'
p654
I2
sS'teachest'
p655
I1
sS'for'
p656
I168
sS"bosom's"
p657
I2
sS'rehearse'
p658
I4
sS'comments'
p659
I2
sS'foe'
p660
I1
sS'denied'
p661
I1
sS'who'
p662
I27
sS'bold'
p663
I2
sS'burn'
p664
I3
sS'translated'
p665
I1
sS'shifting'
p666
I1
sS'losing'
p667
I3
sS'all-tyrant'
p668
I1
sS'peep'
p669
I1
sS'disdains'
p670
I1
sS'shaken'
p671
I2
sS'takes'
p672
I3
sS'theirs'
p673
I2
sS'coral'
p674
I1
sS'haply'
p675
I3
sS'frailer'
p676
I1
sS'o'
I48
sS'despair'
p677
I2
sS'cherish'
p678
I1
sS'commit'
p679
I1
sS'lacked'
p680
I2
sS'raised'
p681
I1
sS'contains'
p682
I1
sS'issueless'
p683
I1
sS'presence'
p684
I2
sS'civil'
p685
I1
sS'pays'
p686
I2
sS'nought'
p687
I3
sS'bound'
p688
I2
sS'bath'
p689
I4
sS'down'
p690
I4
sS'lies'
p691
I12
sS'refined'
p692
I1
sS"pour'st"
p693
I1
sS'often'
p694
I2
sS'strangely'
p695
I2
sS'despised'
p696
I3
sS'jealousy'
p697
I1
sS'unrespected'
p698
I2
sS'fight'
p699
I3
sS'virgin'
p700
I1
sS'way'
p701
I6
sS'call'
p702
I10
sS'was'
p703
I29
sS'war'
p704
I6
sS'happy'
p705
I11
sS'head'
p706
I6
sS'faring'
p707
I1
sS'form'
p708
I11
sS'afresh'
p709
I1
sS'crown'
p710
I1
sS'becoming'
p711
I2
sS'forgetful'
p712
I1
sS'fore'
p713
I1
sS'heinous'
p714
I1
sS'pricked'
p715
I1
sS'heat'
p716
I4
sS'hear'
p717
I6
sS'odours'
p718
I1
sS'astonished'
p719
I1
sS'blindness'
p720
I1
sS'removed'
p721
I4
sS'true'
p722
I37
sS'absent'
p723
I3
sS'lilies'
p724
I1
sS'captive'
p725
I1
sS'extremity'
p726
I1
sS"for't"
p727
I1
sS'bids'
p728
I1
sS'until'
p729
I1
sS'crystal'
p730
I1
sS'unfathered'
p731
I2
sS'adore'
p732
I1
sS'anew'
p733
I3
sS'engraft'
p734
I1
sS'bide'
p735
I2
sS'latch'
p736
I1
sS'trim'
p737
I1
sS'disgrace'
p738
I7
sS'sight'
p739
I17
sS'fury'
p740
I1
sS'sinful'
p741
I4
sS'steep-up'
p742
I1
sS"beauty's"
p743
I18
sS'huswife'
p744
I1
sS'sometime'
p745
I6
sS'subsist'
p746
I1
sS'shines'
p747
I2
sS'reproving'
p748
I1
sS'injurious'
p749
I2
sS'posting'
p750
I1
sS'willingly'
p751
I1
sS'pipe'
p752
I1
sS'dying'
p753
I1
sS'no'
p754
I79
sS'excel'
p755
I1
sS"lov'st"
p756
I6
sS'actor'
p757
I1
sS'thriftless'
p758
I1
sS'despising'
p759
I1
sS'falsely'
p760
I1
sS'papers'
p761
I1
sS'tie'
p762
I2
sS'vanished'
p763
I2
sS'smell'
p764
I4
sS'eternity'
p765
I3
sS'picture'
p766
I3
sS'intend'
p767
I1
sS'phoenix'
p768
I1
sS'delivered'
p769
I1
sS'dies'
p770
I1
sS'felt'
p771
I1
sS'first-born'
p772
I1
sS'present-absent'
p773
I1
sS'journey'
p774
I2
sS'reign'
p775
I2
sS'rolling'
p776
I1
sS'hurt'
p777
I1
sS"'i"
p778
I3
sS'wrackful'
p779
I1
sS'to-day'
p780
I3
sS'longer'
p781
I6
sS'blushing'
p782
I1
sS'daily'
p783
I3
sS'cheater'
p784
I1
sS'teeth'
p785
I1
sS'controlling'
p786
I2
sS'laws'
p787
I1
sS'restored'
p788
I1
sS'songs'
p789
I1
sS'deface'
p790
I1
sS'whoever'
p791
I1
sS"perceiv'st"
p792
I1
sS'souls'
p793
I2
sS'vermilion'
p794
I1
sS'engrafted'
p795
I1
sS'leads'
p796
I2
sS'continual'
p797
I1
sS'idolatry'
p798
I1
sS'abundant'
p799
I1
sS'retention'
p800
I1
sS'doom'
p801
I5
sS'praises'
p802
I4
sS'april'
p803
I3
sS'father'
p804
I2
sS'pen'
p805
I10
sS'vex'
p806
I2
sS'charge'
p807
I1
sS'praised'
p808
I2
sS'suffered'
p809
I1
sS'furrows'
p810
I1
sS'me'
p811
I164
sS'strumpeted'
p812
I1
sS'string'
p813
I1
sS'advantage'
p814
I3
sS'buriest'
p815
I1
sS'drudge'
p816
I1
sS'none'
p817
I11
sS'votary'
p818
I1
sS'mourn'
p819
I3
sS'lest'
p820
I8
sS'advised'
p821
I1
sS'locked'
p822
I1
sS'trouble'
p823
I1
sS'feeble'
p824
I1
sS'cool'
p825
I1
sS"soul's"
p826
I2
sS'perceived'
p827
I1
sS'clouds'
p828
I4
sS'level'
p829
I2
sS'did'
p830
I24
sS'die'
p831
I12
sS'dig'
p832
I1
sS'leave'
p833
I10
sS'excellence'
p834
I2
sS'quick'
p835
I3
sS'prevent'
p836
I1
sS'brave'
p837
I3
sS'says'
p838
I5
sS'fearing'
p839
I1
sS"offender's"
p840
I1
sS'double-vantage'
p841
I1
sS'sigh'
p842
I1
sS'wherefore'
p843
I4
sS'cost'
p844
I2
sS'run'
p845
I1
sS'rough'
p846
I1
sS'drinks'
p847
I1
sS'hymn'
p848
I1
sS"fleet'st"
p849
I1
sS'curse'
p850
I2
sS'appear'
p851
I4
sS'assistance'
p852
I1
sS'contracted'
p853
I2
sS'favour'
p854
I3
sS'debate'
p855
I1
sS'suspect'
p856
I3
sS'goes'
p857
I1
sS'view'
p858
I8
sS'appeal'
p859
I1
sS'filled'
p860
I3
sS"april's"
p861
I1
sS'prescriptions'
p862
I1
sS'wail'
p863
I2
sS'heavily'
p864
I2
sS'honour'
p865
I7
sS'clerk'
p866
I1
sS'water'
p867
I5
sS'entertain'
p868
I1
sS'alone'
p869
I19
sS'appears'
p870
I1
sS'change'
p871
I12
sS'blunter'
p872
I1
sS'boy'
p873
I2
sS'boast'
p874
I5
sS'root'
p875
I2
sS'guilty'
p876
I2
sS'bow'
p877
I2
sS'spheres'
p878
I1
sS'recounting'
p879
I1
sS'treasure'
p880
I8
sS'love'
p881
I161
sS'humour'
p882
I2
sS'tempteth'
p883
I1
sS'bloody'
p884
I3
sS'withal'
p885
I1
sS'betraying'
p886
I1
sS'surmount'
p887
I1
sS'swallowed'
p888
I1
sS"suff'ring"
p889
I1
sS"o'erworn"
p890
I1
sS'wealth'
p891
I6
sS'prove'
p892
I12
sS'sake'
p893
I8
sS'confounded'
p894
I1
sS'angry'
p895
I1
sS'give'
p896
I27
sS'tears'
p897
I5
sS'by'
p898
I91
sS'wrongs'
p899
I2
sS'live'
p900
I29
sS'going'
p901
I1
sS'prey'
p902
I2
sS'memory'
p903
I8
sS'scope'
p904
I5
sS'loving'
p905
I9
sS"love's"
p906
I24
sS'love-god'
p907
I1
sS'riot'
p908
I1
sS'sessions'
p909
I1
sS'towers'
p910
I1
sS'share'
p911
I1
sS'acceptable'
p912
I1
sS"strength's"
p913
I1
sS'fuel'
p914
I1
sS'drown'
p915
I1
sS'everywhere'
p916
I2
sS'virtue'
p917
I7
sS'stain'
p918
I3
sS'epitaph'
p919
I1
sS'fly'
p920
I1
sS'impair'
p921
I1
sS'sheds'
p922
I1
sS'car'
p923
I1
sS'soul'
p924
I10
sS'purge'
p925
I1
sS'hardest'
p926
I1
sS'sour'
p927
I2
sS'can'
p928
I44
sS'believed'
p929
I1
sS'making'
p930
I12
sS"prevent'st"
p931
I1
sS'deceased'
p932
I2
sS'breeds'
p933
I1
sS'heart'
p934
I50
sS'dedicated'
p935
I1
sS"servant's"
p936
I1
sS'want'
p937
I4
sS'figure'
p938
I1
sS'saith'
p939
I1
sS'well-tuned'
p940
I1
sS'distillation'
p941
I1
sS'heard'
p942
I1
sS'critic'
p943
I1
sS'purity'
p944
I1
sS'hides'
p945
I1
sS"mak'st"
p946
I2
sS'provoke'
p947
I1
sS'stole'
p948
I1
sS'churls'
p949
I1
sS'winter'
p950
I5
sS'allege'
p951
I1
sS'divided'
p952
I1
sS'undivided'
p953
I1
sS'vainly'
p954
I2
sS'pine'
p955
I3
sS"lour'st"
p956
I1
sS'write'
p957
I10
sS'till'
p958
I14
sS'sword'
p959
I1
sS'husbandry'
p960
I2
sS'sworn'
p961
I3
sS"eye's"
p962
I3
sS'map'
p963
I2
sS'mar'
p964
I1
sS'where-through'
p965
I1
sS'coming'
p966
I2
sS'may'
p967
I27
sS'use'
p968
I13
sS'spot'
p969
I1
sS'needs'
p970
I5
sS'mad'
p971
I6
sS'date'
p972
I5
sS'end'
p973
I10
sS'hateth'
p974
I1
sS'flourish'
p975
I1
sS'grow'
p976
I8
sS'man'
p977
I5
sS'temperate'
p978
I1
sS'neck'
p979
I1
sS'liquid'
p980
I1
sS'candles'
p981
I1
sS'needy'
p982
I1
sS'so'
p983
I145
sS'odour'
p984
I3
sS'deceive'
p985
I2
sS'thorns'
p986
I2
sS'tall'
p987
I1
sS'augurs'
p988
I1
sS'serving'
p989
I2
sS'receivest'
p990
I1
sS'food'
p991
I1
sS'indeed'
p992
I1
sS'forfeit'
p993
I2
sS'wishing'
p994
I1
sS'years'
p995
I2
sS'course'
p996
I3
sS'pitch'
p997
I2
sS'cold'
p998
I7
sS'still'
p999
I39
sS'birds'
p1000
I3
sS'trifle'
p1001
I1
sS'limbs'
p1002
I2
sS'derive'
p1003
I1
sS'thank'
p1004
I1
sS'acknowledge'
p1005
I1
sS'muses'
p1006
I1
sS'spur'
p1007
I2
sS'torn'
p1008
I1
sS'curls'
p1009
I1
sS"offence's"
p1010
I1
sS'maid'
p1011
I1
sS'spacious'
p1012
I1
sS"play'st"
p1013
I1
sS'policy'
p1014
I2
sS"stol'n"
p1015
I2
sS'main'
p1016
I3
sS'style'
p1017
I3
sS'conquest'
p1018
I3
sS'correspondence'
p1019
I1
sS'prime'
p1020
I4
sS'truest'
p1021
I1
sS'equipage'
p1022
I1
sS'thereby'
p1023
I2
sS'sooner'
p1024
I2
sS'delighted'
p1025
I1
sS'records'
p1026
I1
sS'half'
p1027
I3
sS'not'
p1028
I164
sS'son'
p1029
I3
sS'twilight'
p1030
I1
sS'nor'
p1031
I50
sS'wont'
p1032
I1
sS'term'
p1033
I1
sS'name'
p1034
I17
sS'servant'
p1035
I1
sS'drop'
p1036
I1
sS'veins'
p1037
I1
sS'seldom'
p1038
I2
sS'surfeit'
p1039
I1
sS"another's"
p1040
I3
sS'receipt'
p1041
I1
sS'richly'
p1042
I1
sS'fever'
p1043
I2
sS'farewell'
p1044
I1
sS'yield'
p1045
I2
sS'year'
p1046
I5
sS'hymns'
p1047
I2
sS'living'
p1048
I7
sS'shown'
p1049
I2
sS'mouths'
p1050
I1
sS'space'
p1051
I1
sS'profit'
p1052
I1
sS'abide'
p1053
I2
sS'increase'
p1054
I4
sS'boundless'
p1055
I1
sS'grecian'
p1056
I1
sS'receiving'
p1057
I1
sS'correct'
p1058
I1
sS'shows'
p1059
I6
sS'worthiness'
p1060
I1
sS'state'
p1061
I14
sS'siege'
p1062
I1
sS'cars'
p1063
I1
sS'sweet-seasoned'
p1064
I1
sS'spies'
p1065
I1
sS'wits'
p1066
I2
sS'rebel'
p1067
I1
sS'plea'
p1068
I3
sS"feel'st"
p1069
I1
sS'care'
p1070
I6
sS'advance'
p1071
I1
sS"age's"
p1072
I2
sS'embassage'
p1073
I1
sS"widow's"
p1074
I1
sS'wilful-slow'
p1075
I1
sS'kingdoms'
p1076
I1
sS'honest'
p1077
I1
sS'motion'
p1078
I5
sS'gusts'
p1079
I1
sS'thine'
p1080
I44
sS'place'
p1081
I10
sS'recompense'
p1082
I1
sS'sufferance'
p1083
I1
sS'widow'
p1084
I2
sS'star'
p1085
I3
sS'think'
p1086
I15
sS'frequent'
p1087
I1
sS'first'
p1088
I12
sS'blind'
p1089
I6
sS'mayst'
p1090
I12
sS'faculty'
p1091
I1
sS'one'
p1092
I42
sS'nativity'
p1093
I1
sS'consecrate'
p1094
I1
sS'fast'
p1095
I4
sS'directly'
p1096
I1
sS'habitation'
p1097
I1
sS'carry'
p1098
I1
sS'ill-used'
p1099
I1
sS'array'
p1100
I1
sS'tame'
p1101
I1
sS'open'
p1102
I2
sS'affords'
p1103
I2
sS'millions'
p1104
I1
sS'interchange'
p1105
I1
sS'given'
p1106
I4
sS'checked'
p1107
I2
sS'silent'
p1108
I2
sS'breed'
p1109
I2
sS'steep'
p1110
I1
sS'fiery'
p1111
I1
sS'bounty'
p1112
I2
sS'white'
p1113
I5
sS'utmost'
p1114
I1
sS"tiger's"
p1115
I1
sS'friend'
p1116
I14
sS'gives'
p1117
I8
sS'hue'
p1118
I5
sS'eyes'
p1119
I52
sS'pomp'
p1120
I1
sS'grant'
p1121
I4
sS'blazon'
p1122
I1
sS'that'
p1123
I320
sS'brains'
p1124
I1
sS"men's"
p1125
I6
sS'proving'
p1126
I1
sS'alas'
p1127
I2
sS'eyed'
p1128
I1
sS'girded'
p1129
I1
sS'copy'
p1130
I2
sS'than'
p1131
I48
sS"here's"
p1132
I1
sS'wide'
p1133
I7
sS'feeds'
p1134
I2
sS'wert'
p1135
I3
sS'require'
p1136
I1
sS'folly'
p1137
I2
sS'transferred'
p1138
I1
sS'were'
p1139
I29
sS'carcanet'
p1140
I1
sS'and'
p1141
I485
sS'angel'
p1142
I5
sS'slay'
p1143
I1
sS'correction'
p1144
I1
sS'confessed'
p1145
I1
sS'turned'
p1146
I2
sS'argument'
p1147
I6
sS'jewels'
p1148
I2
sS'voices'
p1149
I1
sS'entombed'
p1150
I1
sS'worms'
p1151
I4
sS'say'
p1152
I28
sS'perfumes'
p1153
I2
sS'buried'
p1154
I5
sS'foiled'
p1155
I1
sS'anger'
p1156
I1
sS'sap'
p1157
I2
sS'pry'
p1158
I1
sS'any'
p1159
I11
sS'elsewhere'
p1160
I3
sS'defaced'
p1161
I1
sS'describe'
p1162
I1
sS'mourners'
p1163
I2
sS'aside'
p1164
I2
sS'purest'
p1165
I1
sS'note'
p1166
I2
sS'wretch'
p1167
I2
sS'take'
p1168
I13
sS'resembling'
p1169
I2
sS'wanting'
p1170
I2
sS'blunt'
p1171
I3
sS'flattered'
p1172
I1
sS'urge'
p1173
I2
sS'begin'
p1174
I1
sS'sure'
p1175
I3
sS'altered'
p1176
I2
sS'tallies'
p1177
I1
sS'knew'
p1178
I1
sS'clearer'
p1179
I2
sS'paid'
p1180
I1
sS'remover'
p1181
I1
sS'unkindness'
p1182
I2
sS'staineth'
p1183
I1
sS'flatterer'
p1184
I1
sS'tract'
p1185
I1
sS'winters'
p1186
I2
sS'garments'
p1187
I1
sS'proud'
p1188
I12
sS'hungry'
p1189
I2
sS'wing'
p1190
I1
sS"perfect'st"
p1191
I1
sS'sunset'
p1192
I1
sS'amis'
p1193
I1
sS'glutton'
p1194
I1
sS'perfumed'
p1195
I1
sS'review'
p1196
I1
sS'erred'
p1197
I1
sS'shop'
p1198
I1
sS'show'
p1199
I23
sS'cheap'
p1200
I1
sS'merit'
p1201
I5
sS'trespass'
p1202
I2
sS'bright'
p1203
I11
sS'untold'
p1204
I1
sS'tend'
p1205
I3
sS'ground'
p1206
I3
sS'slow'
p1207
I4
sS'woos'
p1208
I1
sS'unkind'
p1209
I3
sS'stormy'
p1210
I1
sS'title'
p1211
I2
sS'stained'
p1212
I1
sS'robs'
p1213
I2
sS'cloak'
p1214
I1
sS'crime'
p1215
I4
sS'only'
p1216
I6
sS'wood'
p1217
I2
sS'black'
p1218
I13
sS'nurse'
p1219
I1
sS'partake'
p1220
I1
sS'robe'
p1221
I1
sS'wilfully'
p1222
I1
sS'hindmost'
p1223
I1
sS'get'
p1224
I1
sS"'tis"
p1225
I12
sS'limbecks'
p1226
I1
sS'truly'
p1227
I5
sS'cannot'
p1228
I10
sS'nearly'
p1229
I1
sS'dye'
p1230
I1
sS'closure'
p1231
I1
sS'orphans'
p1232
I1
sS'seeting'
p1233
I1
sS'morning'
p1234
I2
sS'naked'
p1235
I1
sS'miles'
p1236
I2
sS'where'
p1237
I40
sS'husband'
p1238
I3
sS'signs'
p1239
I1
sS'up'
p1240
I14
sS"fortune's"
p1241
I3
sS'asleep'
p1242
I2
sS'expiate'
p1243
I1
sS'successive'
p1244
I1
sS'seal'
p1245
I1
sS'salutation'
p1246
I1
sS'sport'
p1247
I2
sS'strangle'
p1248
I1
sS'wonder'
p1249
I3
sS'invoked'
p1250
I1
sS'tongue-tied'
p1251
I4
sS'compounds'
p1252
I2
sS'crooked'
p1253
I2
sS'sourest'
p1254
I1
sS'dateless'
p1255
I2
sS'ornament'
p1256
I5
sS'glorious'
p1257
I1
sS'behind'
p1258
I4
sS'departest'
p1259
I1
sS'complexion'
p1260
I2
sS'sable'
p1261
I1
sS'import'
p1262
I1
sS'enjoys'
p1263
I1
sS'presage'
p1264
I1
sS'untainted'
p1265
I1
sS'forsake'
p1266
I2
sS'lays'
p1267
I4
sS'eye'
p1268
I37
sS'discloses'
p1269
I1
sS'pluck'
p1270
I3
sS'blame'
p1271
I4
sS'countenance'
p1272
I1
sS'reigns'
p1273
I1
sS'profitless'
p1274
I1
sS'come'
p1275
I15
sS'grieved'
p1276
I1
sS'dates'
p1277
I1
sS'many'
p1278
I13
sS'region'
p1279
I1
sS'quiet'
p1280
I1
sS'called'
p1281
I2
sS'dwellers'
p1282
I1
sS'awards'
p1283
I1
sS"sea's"
p1284
I1
sS'duty'
p1285
I3
sS'among'
p1286
I3
sS'unthrifts'
p1287
I1
sS'madness'
p1288
I1
sS'afterwards'
p1289
I1
sS'unthrifty'
p1290
I1
sS'swerving'
p1291
I1
sS'dispatch'
p1292
I1
sS'eisel'
p1293
I1
sS'slain'
p1294
I2
sS'stretched'
p1295
I1
sS'learning'
p1296
I2
sS'proved'
p1297
I3
sS'famished'
p1298
I1
sS'consider'
p1299
I1
sS'boat'
p1300
I1
sS'doctor-like'
p1301
I1
sS'arts'
p1302
I1
sS'self-doing'
p1303
I1
sS'west'
p1304
I3
sS'absence'
p1305
I5
sS'mark'
p1306
I4
sS'breath'
p1307
I5
sS'subscribes'
p1308
I1
sS"self's"
p1309
I1
sS'beams'
p1310
I1
sS'mars'
p1311
I1
sS'informer'
p1312
I1
sS'straying'
p1313
I1
sS'robbed'
p1314
I1
sS'thousand'
p1315
I3
sS'blessing'
p1316
I1
sS'nobler'
p1317
I1
sS'figured'
p1318
I1
sS'wake'
p1319
I1
sS'external'
p1320
I1
sS'frantic-mad'
p1321
I1
sS'masonry'
p1322
I1
sS'careful'
p1323
I2
sS'spirit'
p1324
I10
sS'those'
p1325
I33
sS'sound'
p1326
I2
sS'profane'
p1327
I1
sS'rarities'
p1328
I1
sS'these'
p1329
I22
sS'sheaves'
p1330
I1
sS'compile'
p1331
I1
sS'cast'
p1332
I2
sS'warning'
p1333
I1
sS'graven'
p1334
I1
sS'cancelled'
p1335
I1
sS'situation'
p1336
I1
sS'endured'
p1337
I1
sS'anchored'
p1338
I1
sS'forbear'
p1339
I2
sS'determination'
p1340
I1
sS'endowed'
p1341
I1
sS'brow'
p1342
I8
sS'gluttoning'
p1343
I1
sS'middle'
p1344
I1
sS'limping'
p1345
I1
sS'commanded'
p1346
I1
sS'fame'
p1347
I3
sS'different'
p1348
I1
sS'harsh'
p1349
I1
sS"tyrants'"
p1350
I1
sS'strains'
p1351
I1
sS'pay'
p1352
I3
sS'same'
p1353
I6
sS'check'
p1354
I2
sS'shifts'
p1355
I1
sS'weakness'
p1356
I1
sS'streams'
p1357
I1
sS"'truth"
p1358
I1
sS'wires'
p1359
I2
sS'sickness'
p1360
I1
sS'tyrannous'
p1361
I1
sS'defy'
p1362
I1
sS'weed'
p1363
I3
sS'fruit'
p1364
I1
sS'scorned'
p1365
I1
sS'extern'
p1366
I1
sS'changing'
p1367
I2
sS'weep'
p1368
I3
sS"slander's"
p1369
I1
sS'vowed'
p1370
I1
sS'vantage'
p1371
I1
sS'dear-purchased'
p1372
I1
sS'throned'
p1373
I1
sS'vacant'
p1374
I1
sS'costs'
p1375
I1
sS'relief'
p1376
I1
sS'very'
p1377
I7
sS'justify'
p1378
I1
sS'distills'
p1379
I1
sS'summer'
p1380
I8
sS'ransoms'
p1381
I1
sS'being'
p1382
I32
sS'when'
p1383
I106
sS'weeds'
p1384
I4
sS'shamefully'
p1385
I1
sS'over-plus'
p1386
I1
sS'imprint'
p1387
I1
sS'bareness'
p1388
I2
sS'cease'
p1389
I1
sS'disperse'
p1390
I1
sS'aspect'
p1391
I1
sS'touch'
p1392
I1
sS'speed'
p1393
I3
sS'guides'
p1394
I1
sS'blow'
p1395
I1
sS'renewed'
p1396
I1
sS'unwooed'
p1397
I1
sS'thinking'
p1398
I3
sS'rose'
p1399
I6
sS'seems'
p1400
I2
sS"summer's"
p1401
I11
sS"summers'"
p1402
I1
sS'verse'
p1403
I15
sS'suppressed'
p1404
I1
sS'worthier'
p1405
I1
sS'dully'
p1406
I1
sS'valley-fountain'
p1407
I1
sS'struck'
p1408
I1
sS'kingdom'
p1409
I1
sS'frown'
p1410
I3
sS'kills'
p1411
I1
sS'read'
p1412
I5
sS'offence'
p1413
I2
sS'sums'
p1414
I1
sS'dart'
p1415
I1
sS'dark'
p1416
I3
sS'traffic'
p1417
I1
sS'confined'
p1418
I3
sS'world'
p1419
I27
sS'reap'
p1420
I1
sS'dare'
p1421
I4
sS'acquainted'
p1422
I2
sS'fortune'
p1423
I6
sS'achieve'
p1424
I1
sS'miracle'
p1425
I1
sS'invention'
p1426
I5
sS'benefit'
p1427
I2
sS'beguiled'
p1428
I1
sS'either'
p1429
I2
sS'robbery'
p1430
I1
sS'offenders'
p1431
I1
sS'tombed'
p1432
I1
sS'fulfil'
p1433
I2
sS'falsehood'
p1434
I2
sS'what'
p1435
I70
sS'elements'
p1436
I2
sS'respect'
p1437
I4
sS'images'
p1438
I1
sS'divine'
p1439
I2
sS'thinks'
p1440
I2
sS'gross'
p1441
I2
sS'bones'
p1442
I1
sS'courses'
p1443
I1
sS'noon'
p1444
I1
sS'besiege'
p1445
I2
sS'stops'
p1446
I1
sS'moon'
p1447
I3
sS'forgoing'
p1448
I1
sS'expressing'
p1449
I1
sS'self-loving'
p1450
I1
sS'knife'
p1451
I4
sS'destroys'
p1452
I1
sS'welcome'
p1453
I2
sS'power'
p1454
I8
sS'seconds'
p1455
I1
sS'strained'
p1456
I1
sS'olives'
p1457
I1
sS'forgetfulness'
p1458
I1
sS'broken'
p1459
I1
sS"o'er-green"
p1460
I1
sS'assemble'
p1461
I1
sS'throw'
p1462
I1
sS'renewest'
p1463
I1
sS'on'
p1464
I78
sS'stone'
p1465
I3
sS'subdued'
p1466
I1
sS'zealous'
p1467
I1
sS'of'
p1468
I366
sS'choirs'
p1469
I1
sS'feil'
p1470
I1
sS'greater'
p1471
I4
sS'whence'
p1472
I2
sS'fell'
p1473
I4
sS'wolf'
p1474
I1
sS'stand'
p1475
I7
sS'act'
p1476
I1
sS'mixed'
p1477
I1
sS'bond'
p1478
I1
sS'or'
p1479
I78
sS'imitated'
p1480
I1
sS'ladies'
p1481
I1
sS'long-lived'
p1482
I1
sS'burning'
p1483
I1
sS'weighs'
p1484
I1
sS'distempered'
p1485
I1
sS'image'
p1486
I4
sS'blessed'
p1487
I7
sS'rising'
p1488
I1
sS'lively'
p1489
I2
sS'dreaming'
p1490
I1
sS'blesses'
p1491
I1
sS'your'
p1492
I100
sS'buds'
p1493
I3
sS"oaths'"
p1494
I1
sS'prepare'
p1495
I2
sS'there'
p1496
I18
sS'disposed'
p1497
I1
sS'desert'
p1498
I3
sS'stealth'
p1499
I1
sS"whate'er"
p1500
I2
sS'died'
p1501
I2
sS'stars'
p1502
I5
sS'house'
p1503
I1
sS'groan'
p1504
I4
sS'enough'
p1505
I6
sS"you'"
p1506
I1
sS"dyer's"
p1507
I1
sS'strikes'
p1508
I1
sS'meetness'
p1509
I1
sS'land'
p1510
I1
sS'brain'
p1511
I5
sS'with'
p1512
I181
sS'faster'
p1513
I1
sS'abused'
p1514
I1
sS'applying'
p1515
I1
sS'naming'
p1516
I1
sS'rage'
p1517
I5
sS'niggarding'
p1518
I1
sS'self-same'
p1519
I1
sS'impute'
p1520
I1
sS'abuses'
p1521
I1
sS'define'
p1522
I1
sS'minded'
p1523
I1
sS'strongly'
p1524
I2
sS'gone'
p1525
I9
sS'intents'
p1526
I1
sS'palate'
p1527
I2
sS'surly'
p1528
I1
sS'taste'
p1529
I4
sS'ah'
p1530
I7
sS'accents'
p1531
I1
sS'stealing'
p1532
I2
sS'am'
p1533
I35
sS'deep'
p1534
I8
sS'an'
p1535
I17
sS'toiled'
p1536
I1
sS'excusing'
p1537
I1
sS'deem'
p1538
I1
sS'carved'
p1539
I1
sS'walks'
p1540
I2
sS'ay'
p1541
I2
sS'horse'
p1542
I2
sS'spends'
p1543
I1
sS'fill'
p1544
I3
sS'again'
p1545
I10
sS'proudly'
p1546
I1
sS"judgment's"
p1547
I1
sS'deserve'
p1548
I1
sS"helen's"
p1549
I1
sS'green'
p1550
I5
sS'repent'
p1551
I1
sS'orient'
p1552
I1
sS'roses'
p1553
I6
sS'you'
p1554
I111
sS'abysm'
p1555
I1
sS'poor'
p1556
I15
sS'time'
p1557
I52
sS'gifts'
p1558
I1
sS'lovers'
p1559
I1
sS'suited'
p1560
I1
sS'brass'
p1561
I4
sS'celestial'
p1562
I1
sS'sequent'
p1563
I1
sS'building'
p1564
I1
sS'backward'
p1565
I1
sS'remote'
p1566
I1
sS'calls'
p1567
I5
sS'wife'
p1568
I1
sS"life's"
p1569
I1
sS'dyed'
p1570
I1
sS'extant'
p1571
I1
sS'repay'
p1572
I1
sS'hugely'
p1573
I1
sS'treason'
p1574
I1
sS'apparel'
p1575
I1
sS'tanned'
p1576
I1
sS'unset'
p1577
I1
sS'maturity'
p1578
I1
sS'all'
p1579
I116
sS'forget'
p1580
I2
sS'vile'
p1581
I3
sS'suns'
p1582
I1
sS'forbidden'
p1583
I1
sS'lack'
p1584
I4
sS'neigh'
p1585
I1
sS'bosoms'
p1586
I1
sS'importune'
p1587
I1
sS'seals'
p1588
I1
sS'unrest'
p1589
I1
sS"'gainst"
p1590
I6
sS'forged'
p1591
I1
sS'welfare'
p1592
I1
sS'follow'
p1593
I2
sS'meditation'
p1594
I1
sS'lace'
p1595
I1
sS'children'
p1596
I1
sS'oaths'
p1597
I3
sS'wanton'
p1598
I1
sS'homage'
p1599
I1
sS'sparkling'
p1600
I1
sS'deceivest'
p1601
I1
sS"keep'st"
p1602
I1
sS'to'
p1603
I404
sS'painter'
p1604
I2
sS'dressing'
p1605
I1
sS"is't"
p1606
I2
sS'health'
p1607
I2
sS'hideous'
p1608
I2
sS'subtleties'
p1609
I1
sS'case'
p1610
I3
sS'woman'
p1611
I3
sS'worse'
p1612
I5
sS'song'
p1613
I4
sS'far'
p1614
I16
sS"'will"
p1615
I1
sS'saved'
p1616
I1
sS'coloured'
p1617
I1
sS'oblation'
p1618
I1
sS'medicine'
p1619
I1
sS'worst'
p1620
I7
sS'invent'
p1621
I2
sS'fall'
p1622
I3
sS'hems'
p1623
I1
sS'difference'
p1624
I1
sS'vouchsafe'
p1625
I2
sS'heaven'
p1626
I13
sS'list'
p1627
I1
sS'large'
p1628
I5
sS'sang'
p1629
I1
sS'plain'
p1630
I1
sS'mistaking'
p1631
I1
sS"t'"
p1632
I1
sS'wantonness'
p1633
I1
sS"i'll"
p1634
I7
sS'quicker'
p1635
I1
sS'ten'
p1636
I7
sS'outworn'
p1637
I2
sS'lascivious'
p1638
I2
sS'past'
p1639
I9
sS'winds'
p1640
I2
sS'titles'
p1641
I1
sS'perspective'
p1642
I1
sS'pass'
p1643
I3
sS'harder'
p1644
I1
sS'affable'
p1645
I1
sS'befriends'
p1646
I1
sS'crests'
p1647
I1
sS'creatures'
p1648
I2
sS'conscience'
p1649
I3
sS'gazers'
p1650
I1
sS'sue'
p1651
I1
sS'defence'
p1652
I3
sS'darkness'
p1653
I1
sS'sweetly'
p1654
I2
sS'clock'
p1655
I2
sS'sun'
p1656
I11
sS'wrecked'
p1657
I1
sS'gardens'
p1658
I1
sS'brief'
p1659
I3
sS'prevailed'
p1660
I1
sS'foison'
p1661
I1
sS'unseen'
p1662
I2
sS'ill-wresting'
p1663
I1
sS'learned'
p1664
I1
sS'doting'
p1665
I1
sS'themselves'
p1666
I6
sS'womb'
p1667
I2
sS'quenched'
p1668
I1
sS'full'
p1669
I13
sS'ranged'
p1670
I1
sS'love-suit'
p1671
I1
sS'answers'
p1672
I1
sS'revenge'
p1673
I1
sS'hours'
p1674
I12
sS'ensconce'
p1675
I1
sS'excess'
p1676
I1
sS'hast'
p1677
I15
sS'depend'
p1678
I1
sS'yellowed'
p1679
I1
sS'table'
p1680
I1
sS'enmity'
p1681
I1
sS'losses'
p1682
I1
sS'dearths'
p1683
I1
sS'qualify'
p1684
I1
sS'within'
p1685
I11
sS'action'
p1686
I3
sS'steepy'
p1687
I1
sS'sweetness'
p1688
I2
sS"day's"
p1689
I1
sS'followed'
p1690
I1
sS'impiety'
p1691
I1
sS'tendered'
p1692
I1
sS"lion's"
p1693
I1
sS'estimate'
p1694
I1
sS'unthrift'
p1695
I1
sS'self-love'
p1696
I3
sS'taker'
p1697
I1
sS'proceed'
p1698
I1
sS'cherubins'
p1699
I1
sS'faint'
p1700
I1
sS'two'
p1701
I9
sS'pearl'
p1702
I1
sS'morn'
p1703
I2
sS'soil'
p1704
I2
sS'taken'
p1705
I3
sS'injury'
p1706
I3
sS'more'
p1707
I63
sS'horses'
p1708
I1
sS'wretched'
p1709
I2
sS'unlearned'
p1710
I1
sS'knows'
p1711
I11
sS'delves'
p1712
I1
sS"ow'st"
p1713
I1
sS'foregone'
p1714
I1
sS'spoils'
p1715
I1
sS'excuse'
p1716
I6
sS'lameness'
p1717
I1
sS"dian's"
p1718
I1
sS'broke'
p1719
I2
sS'varying'
p1720
I1
sS'known'
p1721
I1
sS'mounted'
p1722
I1
sS'glad'
p1723
I2
sS'cunning'
p1724
I3
sS'lust'
p1725
I2
sS'fleece'
p1726
I1
sS'hour'
p1727
I3
sS'besides'
p1728
I1
sS'remain'
p1729
I3
sS'nine'
p1730
I1
sS'learn'
p1731
I2
sS'marble'
p1732
I1
sS'history'
p1733
I1
sS'beautiful'
p1734
I1
sS'compare'
p1735
I6
sS'attainted'
p1736
I1
sS'visage'
p1737
I1
sS'neglected'
p1738
I1
sS'conspire'
p1739
I1
sS'thievish'
p1740
I2
sS'well-seeing'
p1741
I1
sS'numbers'
p1742
I4
sS'sense'
p1743
I4
sS'phrase'
p1744
I1
sS'dress'
p1745
I1
sS'simple'
p1746
I3
sS'huge'
p1747
I2
sS'siren'
p1748
I1
sS'early'
p1749
I1
sS'drained'
p1750
I1
sS'rather'
p1751
I1
sS"'thus"
p1752
I1
sS'comfort'
p1753
I4
sS'chopt'
p1754
I1
sS"adder's"
p1755
I1
sS'glowing'
p1756
I1
sS"heart's"
p1757
I7
sS'sacred'
p1758
I2
sS'strong'
p1759
I9
sS'creature'
p1760
I1
sS'simplicity'
p1761
I1
sS'pleasure'
p1762
I10
sS'rude'
p1763
I4
sS'disgraced'
p1764
I1
sS'mended'
p1765
I1
sS'blood'
p1766
I8
sS'waves'
p1767
I1
sS'replete'
p1768
I2
sS'a'
I161
sS'refuse'
p1769
I1
sS'short'
p1770
I4
sS'resemble'
p1771
I1
sS'shady'
p1772
I1
sS'register'
p1773
I1
sS'shore'
p1774
I3
sS'shade'
p1775
I4
sS'perjured'
p1776
I3
sS'banks'
p1777
I1
sS'shorn'
p1778
I1
sS"gav'st"
p1779
I3
sS'lasting'
p1780
I1
sS'dream'
p1781
I2
sS"that's"
p1782
I1
sS'recite'
p1783
I1
sS'played'
p1784
I1
sS'help'
p1785
I4
sS'winged'
p1786
I1
sS'stays'
p1787
I1
sS'soon'
p1788
I3
sS'disabled'
p1789
I1
sS'held'
p1790
I2
sS'paper'
p1791
I1
sS'through'
p1792
I6
sS'committed'
p1793
I1
sS'hell'
p1794
I8
sS'smiling'
p1795
I1
sS'suffer'
p1796
I2
sS'saucy'
p1797
I2
sS'merchandized'
p1798
I1
sS'pent'
p1799
I2
sS'render'
p1800
I1
sS'termed'
p1801
I1
sS'pray'
p1802
I1
sS'inward'
p1803
I4
sS'deeds'
p1804
I10
sS'bosom'
p1805
I2
sS'teeming'
p1806
I1
sS'hounds'
p1807
I1
sS'late'
p1808
I1
sS'resort'
p1809
I1
sS'dross'
p1810
I1
sS'parts'
p1811
I7
sS'threescore'
p1812
I1
sS'ruining'
p1813
I1
sS'self-willed'
p1814
I1
sS'bereft'
p1815
I1
sS'alter'
p1816
I1
sS'crawls'
p1817
I1
sS'fool'
p1818
I3
sS'good'
p1819
I15
sS'return'
p1820
I6
sS'freezings'
p1821
I1
sS'seeking'
p1822
I1
sS'motley'
p1823
I1
sS'distilled'
p1824
I3
sS'ye'
p1825
I2
sS'storm-beaten'
p1826
I1
sS'speechless'
p1827
I2
sS'walls'
p1828
I2
sS'nymphs'
p1829
I1
sS'maladies'
p1830
I2
sS'compound'
p1831
I1
sS'foot'
p1832
I3
sS'hunted'
p1833
I1
sS'antiquity'
p1834
I2
sS"mistress'"
p1835
I5
sS'complain'
p1836
I1
sS'likeness'
p1837
I1
sS'imprisoned'
p1838
I2
sS'always'
p1839
I1
sS'truths'
p1840
I1
sS'eloquence'
p1841
I1
sS'ashes'
p1842
I1
sS'stopped'
p1843
I1
sS'blest'
p1844
I2
sS'found'
p1845
I9
sS'heavy'
p1846
I6
sS"put'st"
p1847
I1
sS'proud-pied'
p1848
I1
sS'bends'
p1849
I1
sS'weight'
p1850
I1
sS'sullied'
p1851
I1
sS'jaws'
p1852
I1
sS'hard'
p1853
I1
sS'oppressed'
p1854
I2
sS'fist'
p1855
I1
sS"nature's"
p1856
I6
sS'beyond'
p1857
I1
sS'incertainties'
p1858
I1
sS'travels'
p1859
I1
sS'flower'
p1860
I5
sS'missed'
p1861
I1
sS'since'
p1862
I24
sS'publish'
p1863
I1
sS'nurseth'
p1864
I1
sS'hill'
p1865
I1
sS'print'
p1866
I1
sS'darling'
p1867
I1
sS'issue'
p1868
I2
sS'sympathized'
p1869
I1
sS'stewards'
p1870
I1
sS'boldness'
p1871
I1
sS'belied'
p1872
I2
sS'commits'
p1873
I2
sS'fore-bemoaned'
p1874
I1
sS'forgive'
p1875
I1
sS'pleasant'
p1876
I1
sS'reason'
p1877
I6
sS'base'
p1878
I5
sS'impeached'
p1879
I1
sS'put'
p1880
I7
sS'teach'
p1881
I3
sS'reproach'
p1882
I1
sS"excuse'"
p1883
I1
sS"know'st"
p1884
I4
sS'nightly'
p1885
I2
sS'owners'
p1886
I1
sS'service'
p1887
I1
sS'needing'
p1888
I1
sS'rack'
p1889
I1
sS'sicken'
p1890
I1
sS'corrupting'
p1891
I1
sS'feed'
p1892
I1
sS'gazed'
p1893
I1
sS'seeming'
p1894
I4
sS'forwards'
p1895
I1
sS'blush'
p1896
I1
sS'feel'
p1897
I2
sS'number'
p1898
I3
sS'breathers'
p1899
I1
sS'elder'
p1900
I1
sS'enlarged'
p1901
I1
sS'revolution'
p1902
I1
sS'done'
p1903
I5
sS'defects'
p1904
I1
sS'stage'
p1905
I2
sS'rents'
p1906
I1
sS'moan'
p1907
I5
sS'guess'
p1908
I2
sS'guest'
p1909
I2
sS'rondure'
p1910
I1
sS'twenty'
p1911
I1
sS'slanderers'
p1912
I1
sS'least'
p1913
I5
sS'hallowed'
p1914
I1
sS'belongs'
p1915
I2
sS'steals'
p1916
I1
sS'passed'
p1917
I2
sS'essays'
p1918
I1
sS'hundred'
p1919
I1
sS'store'
p1920
I9
sS'lease'
p1921
I4
sS'youngly'
p1922
I1
sS'selling'
p1923
I1
sS'imperfect'
p1924
I1
sS'saint'
p1925
I1
sS'longing'
p1926
I1
sS'adonis'
p1927
I1
sS'part'
p1928
I20
sS'bower'
p1929
I1
sS'believe'
p1930
I4
sS"what's"
p1931
I3
sS'grace'
p1932
I11
sS'king'
p1933
I2
sS'kind'
p1934
I11
sS'grew'
p1935
I5
sS'mortality'
p1936
I1
sS'vial'
p1937
I1
sS'double'
p1938
I2
sS'anticipate'
p1939
I1
sS'mortgaged'
p1940
I1
sS'grey'
p1941
I1
sS'shallowest'
p1942
I1
sS'youth'
p1943
I15
sS'autumn'
p1944
I2
sS'determined'
p1945
I1
sS'contrary'
p1946
I1
sS'supposed'
p1947
I2
sS'toward'
p1948
I1
sS'restful'
p1949
I1
sS'tongues'
p1950
I4
sS'trifles'
p1951
I1
sS'ages'
p1952
I1
sS'defect'
p1953
I2
sS'livery'
p1954
I1
sS'new-fired'
p1955
I1
sS'alike'
p1956
I1
sS'showers'
p1957
I2
sS'travail'
p1958
I1
sS'fading'
p1959
I2
sS'sensual'
p1960
I2
sS'sell'
p1961
I1
sS'mountain'
p1962
I2
sS'nights'
p1963
I2
sS'built'
p1964
I2
sS'dancing'
p1965
I1
sS'self'
p1966
I76
sS"hate's"
p1967
I1
sS'onset'
p1968
I1
sS'without'
p1969
I8
sS'lip'
p1970
I1
sS'finding'
p1971
I2
sS'chary'
p1972
I1
sS"art's"
p1973
I1
sS"'had"
p1974
I1
sS'towards'
p1975
I2
sS'death'
p1976
I14
sS'reckon'
p1977
I1
sS'sets'
p1978
I2
sS'unswayed'
p1979
I1
sS'unused'
p1980
I4
sS'most'
p1981
I27
sS'blunting'
p1982
I1
sS'nothing'
p1983
I19
sS'seasons'
p1984
I2
sS"o'ercharged"
p1985
I1
sS'wastes'
p1986
I2
sS'measured'
p1987
I1
sS'stands'
p1988
I3
sS'chronicle'
p1989
I1
sS'feasting'
p1990
I1
sS'windows'
p1991
I3
sS'arising'
p1992
I1
sS'clear'
p1993
I3
sS'sometimes'
p1994
I1
sS'cover'
p1995
I3
sS'unbred'
p1996
I1
sS'reeleth'
p1997
I1
sS'barren'
p1998
I5
sS'convertest'
p1999
I1
sS'charged'
p2000
I1
sS'lying'
p2001
I1
sS'stones'
p2002
I1
sS'self-substantial'
p2003
I1
sS'despise'
p2004
I2
sS'gold'
p2005
I2
sS'gates'
p2006
I1
sS"y'have"
p2007
I1
sS'wailing'
p2008
I1
sS'fond'
p2009
I2
sS'page'
p2010
I1
sS'rhymers'
p2011
I1
sS'wasted'
p2012
I1
sS'registers'
p2013
I1
sS'fine'
p2014
I2
sS'find'
p2015
I16
sS'viewest'
p2016
I1
sS'sportive'
p2017
I1
sS'gilded'
p2018
I3
sS'aggravate'
p2019
I1
sS'shouldst'
p2020
I6
sS'deserts'
p2021
I2
sS'unperfect'
p2022
I1
sS'ruin'
p2023
I1
sS'hope'
p2024
I6
sS'rotten'
p2025
I2
sS'vision'
p2026
I1
sS'tempests'
p2027
I1
sS'beauteous'
p2028
I9
sS'fiend'
p2029
I2
sS"painter's"
p2030
I1
sS'niggard'
p2031
I2
sS'dust'
p2032
I2
sS'gains'
p2033
I1
sS'mercy'
p2034
I1
sS'compiled'
p2035
I1
sS'express'
p2036
I2
sS'impregnable'
p2037
I1
sS'trees'
p2038
I1
sS'remedy'
p2039
I2
sS'hid'
p2040
I2
sS'rest'
p2041
I6
sS'compass'
p2042
I1
sS'swart-complexioned'
p2043
I1
sS'sepulchres'
p2044
I1
sS"send'st"
p2045
I1
sS'him'
p2046
I37
sS'distraction'
p2047
I1
sS'grievances'
p2048
I1
sS'pleasures'
p2049
I1
sS'cry'
p2050
I2
sS'impanelled'
p2051
I1
sS'remove'
p2052
I2
sS'common'
p2053
I4
sS'kill'
p2054
I4
sS'poisoned'
p2055
I1
sS'wrongfully'
p2056
I1
sS'bars'
p2057
I2
sS'set'
p2058
I7
sS'art'
p2059
I51
sS'declines'
p2060
I1
sS'jade'
p2061
I1
sS"o'ersways"
p2062
I1
sS'see'
p2063
I34
sS'bare'
p2064
I4
sS'are'
p2065
I69
sS'sea'
p2066
I4
sS'tender'
p2067
I7
sS'bark'
p2068
I2
sS'outward'
p2069
I7
sS'spirits'
p2070
I2
sS'forlorn'
p2071
I1
sS'please'
p2072
I4
sS'drooping'
p2073
I1
sS'unions'
p2074
I1
sS'won'
p2075
I1
sS'gentlest'
p2076
I1
sS'affairs'
p2077
I2
sS'woe'
p2078
I12
sS'guilt'
p2079
I1
sS'burned'
p2080
I1
sS'monsters'
p2081
I1
sS'thrive'
p2082
I2
sS'endure'
p2083
I1
sS'knowing'
p2084
I4
sS'creating'
p2085
I1
sS'sold'
p2086
I1
sS'sole'
p2087
I1
sS'vanishing'
p2088
I1
sS'blot'
p2089
I3
sS'alters'
p2090
I2
sS'both'
p2091
I16
sS'feeling'
p2092
I2
sS'last'
p2093
I2
sS'grounded'
p2094
I2
sS'desired'
p2095
I2
sS'thou'
p2096
I229
sS'anon'
p2097
I2
sS'objects'
p2098
I2
sS'forgotten'
p2099
I1
sS'let'
p2100
I26
sS'possesseth'
p2101
I1
sS'afar'
p2102
I1
sS'finds'
p2103
I2
sS'league'
p2104
I1
sS'usest'
p2105
I1
sS'flies'
p2106
I3
sS'onward'
p2107
I1
sS'majesty'
p2108
I2
sS'point'
p2109
I2
sS'reasons'
p2110
I3
sS'sweet'
p2111
I51
sS'loan'
p2112
I1
sS'manners'
p2113
I3
sS'except'
p2114
I1
sS'key'
p2115
I1
sS'simply'
p2116
I1
sS'worthless'
p2117
I2
sS'devil'
p2118
I1
sS'unworthiness'
p2119
I1
sS"'scaped"
p2120
I1
sS'stamp'
p2121
I1
sS'devouring'
p2122
I1
sS'acceptance'
p2123
I1
sS'satire'
p2124
I1
sS'due'
p2125
I6
sS'miser'
p2126
I1
sS'whom'
p2127
I12
sS'secret'
p2128
I1
sS"wood's"
p2129
I1
sS'wait'
p2130
I2
sS'delights'
p2131
I2
sS'rosy'
p2132
I1
sS'firm'
p2133
I1
sS'lived'
p2134
I4
sS'partly'
p2135
I1
sS'gay'
p2136
I2
sS"'twixt"
p2137
I2
sS'fire'
p2138
I10
sS"dial's"
p2139
I1
sS'overthrow'
p2140
I1
sS'great'
p2141
I10
sS'else'
p2142
I5
sS'awake'
p2143
I1
sS'mournful'
p2144
I1
sS'plants'
p2145
I1
sS'uncertain'
p2146
I1
sS'look'
p2147
I22
sS'straight'
p2148
I7
sS'admire'
p2149
I1
sS'pace'
p2150
I3
sS'while'
p2151
I6
sS'rigour'
p2152
I1
sS"intermixed'"
p2153
I1
sS'kissing'
p2154
I1
sS'eclipses'
p2155
I2
sS'youthful'
p2156
I2
sS'costly'
p2157
I1
sS'wherever'
p2158
I1
sS'herein'
p2159
I1
sS'confound'
p2160
I2
sS'vow'
p2161
I2
sS'lodged'
p2162
I1
sS'owes'
p2163
I1
sS'seen'
p2164
I11
sS'rid'
p2165
I1
sS'seest'
p2166
I2
sS'fairer'
p2167
I3
sS'chase'
p2168
I2
sS'twofold'
p2169
I1
sS'trial'
p2170
I1
sS'lengths'
p2171
I1
sS'bristly'
p2172
I1
sS'belong'
p2173
I2
sS'engrossed'
p2174
I1
sS'wherein'
p2175
I5
sS'discourse'
p2176
I1
sS'esteemed'
p2177
I2
sS'ruth'
p2178
I1
sS'miscalled'
p2179
I1
sS'composition'
p2180
I1
sS'covetous'
p2181
I1
sS'used'
p2182
I3
sS'forced'
p2183
I1
sS'mow'
p2184
I1
sS'moment'
p2185
I1
sS'flown'
p2186
I1
sS'moving'
p2187
I2
sS'user'
p2188
I1
sS'wretchcd'
p2189
I1
sS'broils'
p2190
I1
sS'task'
p2191
I1
sS'older'
p2192
I1
sS'accumulate'
p2193
I1
sS'try'
p2194
I1
sS'cheek'
p2195
I4
sS'spent'
p2196
I6
sS"frown'st"
p2197
I1
sS'grind'
p2198
I1
sS'morrow'
p2199
I1
sS'cheer'
p2200
I1
sS'edge'
p2201
I3
sS'starved'
p2202
I1
sS'dulling'
p2203
I1
sS'stelled'
p2204
I1
sS'steeled'
p2205
I1
sS'things'
p2206
I14
sS'plagues'
p2207
I1
sS'bearer'
p2208
I1
sS'salve'
p2209
I2
sS'shape'
p2210
I5
sS'madding'
p2211
I1
sS'unto'
p2212
I1
sS'gems'
p2213
I1
sS'tables'
p2214
I2
sS'cut'
p2215
I1
sS'cup'
p2216
I1
sS'hated'
p2217
I1
sS'decayed'
p2218
I1
sS'sire'
p2219
I1
sS'eager'
p2220
I1
sS'lifts'
p2221
I1
sS'crying'
p2222
I1
sS"either's"
p2223
I2
sS"tongue's"
p2224
I1
sS'march'
p2225
I1
sS'awakes'
p2226
I1
sS'big'
p2227
I1
sS'bid'
p2228
I1
sS'advocate'
p2229
I1
sS'judgement'
p2230
I2
sS'redeem'
p2231
I1
sS'fulness'
p2232
I1
sS'private'
p2233
I1
sS'dearly'
p2234
I1
sS'sharpened'
p2235
I1
sS'like'
p2236
I34
sS'outright'
p2237
I1
sS'lost'
p2238
I4
sS'follows'
p2239
I1
sS"hate'"
p2240
I3
sS'strife'
p2241
I1
sS'shapes'
p2242
I1
sS'divining'
p2243
I1
sS'tribes'
p2244
I1
sS'witness'
p2245
I3
sS'foolish'
p2246
I1
sS'canst'
p2247
I7
sS'methods'
p2248
I1
sS'wombs'
p2249
I1
sS'spring'
p2250
I5
sS'creation'
p2251
I2
sS'some'
p2252
I31
sS'back'
p2253
I8
sS'sighs'
p2254
I1
sS'lips'
p2255
I7
sS'added'
p2256
I2
sS'ornaments'
p2257
I1
sS'curious'
p2258
I1
sS'pale'
p2259
I2
sS'sauces'
p2260
I1
sS'savage'
p2261
I1
sS'acquaintance'
p2262
I3
sS'fairing'
p2263
I1
sS'shall'
p2264
I59
sS'oblivion'
p2265
I1
sS'balmy'
p2266
I1
sS'quickly'
p2267
I1
sS'confounds'
p2268
I3
sS'barrenly'
p2269
I1
sS'lark'
p2270
I1
sS'be'
p2271
I141
sS'patient'
p2272
I1
sS'remembered'
p2273
I4
sS'word'
p2274
I2
sS'clay'
p2275
I1
sS"shadow's"
p2276
I1
sS"'this"
p2277
I1
sS'aloft'
p2278
I1
sS'rent'
p2279
I1
sS'cheered'
p2280
I1
sS'concealed'
p2281
I1
sS'nerves'
p2282
I1
sS"batt'ring"
p2283
I1
sS'shine'
p2284
I4
sS'faith'
p2285
I5
sS'works'
p2286
I3
sS'deserved'
p2287
I1
sS'wrinkles'
p2288
I5
sS'deserves'
p2289
I1
sS'ambush'
p2290
I1
sS'together'
p2291
I1
sS'hatred'
p2292
I1
sS'behaviour'
p2293
I1
sS'tenants'
p2294
I1
sS'silence'
p2295
I3
sS'misplaced'
p2296
I1
sS'seeing'
p2297
I5
sS'into'
p2298
I5
sS'amazeth'
p2299
I1
sS'exceed'
p2300
I1
sS'debateth'
p2301
I1
sS'services'
p2302
I1
sS'inconstant'
p2303
I2
sS'remembrance'
p2304
I2
sS'lesson'
p2305
I1
sS"sharp'st"
p2306
I1
sS'sad'
p2307
I7
sS'featureless'
p2308
I1
sS'few'
p2309
I1
sS'spending'
p2310
I1
sS'question'
p2311
I2
sS'long'
p2312
I11
sS'whereto'
p2313
I3
sS'suit'
p2314
I1
sS'pictured'
p2315
I1
sS'translate'
p2316
I1
sS'himself'
p2317
I2
sS'arise'
p2318
I1
sS'jacks'
p2319
I2
sS'governs'
p2320
I1
sS'graciously'
p2321
I1
sS'healthful'
p2322
I2
sS'frost'
p2323
I1
sS'vowing'
p2324
I1
sS'alive'
p2325
I2
sS'newer'
p2326
I2
sS'filed'
p2327
I1
sS'hopes'
p2328
I2
sS'line'
p2329
I3
sS'dull'
p2330
I6
sS'usury'
p2331
I1
sS'directed'
p2332
I1
sS'bevel'
p2333
I1
sS'immured'
p2334
I1
sS"lover's"
p2335
I1
sS"monarch's"
p2336
I1
sS'us'
p2337
I2
sS'lords'
p2338
I1
sS'politic'
p2339
I1
sS'slander'
p2340
I2
sS'cheeks'
p2341
I4
sS'proves'
p2342
I2
sS'consumed'
p2343
I1
sS'vassalage'
p2344
I1
sS'possession'
p2345
I2
sS'constant'
p2346
I3
sS'goodly'
p2347
I1
sS'allayed'
p2348
I1
sS'influence'
p2349
I2
sS'scarlet'
p2350
I1
sS'single'
p2351
I4
sS'cure'
p2352
I5
sS'babe'
p2353
I4
sS'surmise'
p2354
I1
sS'rainy'
p2355
I1
sS'sullen'
p2356
I2
sS'sunken'
p2357
I1
sS'impediments'
p2358
I1
sS'peace'
p2359
I2
sS'fears'
p2360
I6
sS'dimmed'
p2361
I1
sS'charactered'
p2362
I1
sS'confine'
p2363
I1
sS'mock'
p2364
I3
sS'perusal'
p2365
I1
sS'draw'
p2366
I3
sS'aright'
p2367
I1
sS'clean'
p2368
I1
sS'lend'
p2369
I5
sS'breasts'
p2370
I1
sS'nay'
p2371
I2
sS'rise'
p2372
I2
sS'weigh'
p2373
I1
sS'makeless'
p2374
I1
sS'wrinkle'
p2375
I1
sS'sides'
p2376
I1
sS'bases'
p2377
I1
sS'suffers'
p2378
I1
sS'happier'
p2379
I3
sS'happies'
p2380
I1
sS"spend'st"
p2381
I1
sS'vice'
p2382
I1
sS'age'
p2383
I15
sS'wards'
p2384
I1
sS'admiring'
p2385
I1
sS'heats'
p2386
I1
sS'came'
p2387
I3
sS'fresh'
p2388
I7
sS'marvel'
p2389
I1
sS'having'
p2390
I6
sS'once'
p2391
I10
sS'wilfulness'
p2392
I1
sS'discontent'
p2393
I2
sS'highmost'
p2394
I1
sS'tombs'
p2395
I1
sS"deformed'st"
p2396
I1
sS'alien'
p2397
I1
sS'windy'
p2398
I1
sS'gladly'
p2399
I1
sS'amiss'
p2400
I2
sS"present'st"
p2401
I1
sS'seemed'
p2402
I3
sS'graves'
p2403
I1
sS'tincture'
p2404
I1
sS'uphold'
p2405
I1
sS'reckoned'
p2406
I1
sS'young'
p2407
I4
sS'send'
p2408
I2
sS'breach'
p2409
I1
sS'pleasing'
p2410
I2
sS'virtuous'
p2411
I3
sS'over-partial'
p2412
I1
sS'random'
p2413
I1
sS'wished'
p2414
I1
sS'torture'
p2415
I2
sS"'now"
p2416
I1
sS"'not"
p2417
I1
sS'confounding'
p2418
I1
sS'rhyme'
p2419
I6
sS'languished'
p2420
I1
sS'rebuked'
p2421
I1
sS'scanted'
p2422
I1
sS'accuse'
p2423
I2
sS'telling'
p2424
I1
sS'false-speaking'
p2425
I1
sS'iniquity'
p2426
I1
sS'queen'
p2427
I1
sS"eve's"
p2428
I1
sS'race'
p2429
I1
sS'verdict'
p2430
I1
sS'betwixt'
p2431
I1
sS'noted'
p2432
I1
sS"alt'ring"
p2433
I1
sS'sovereign'
p2434
I3
sS'crow'
p2435
I2
sS"work's"
p2436
I1
sS'poets'
p2437
I2
sS'waking'
p2438
I1
sS'jump'
p2439
I1
sS'ever-fixed'
p2440
I1
sS'go'
p2441
I6
sS'plead'
p2442
I2
sS'decrees'
p2443
I1
sS'pity-wanting'
p2444
I1
sS'victor'
p2445
I1
sS'giving'
p2446
I2
sS'saw'
p2447
I5
sS'expressed'
p2448
I3
sS"man's"
p2449
I2
sS'paying'
p2450
I1
sS'waiting'
p2451
I1
sS"seasons'"
p2452
I1
sS'famoused'
p2453
I1
sS'bird'
p2454
I1
sS'body'
p2455
I4
sS'melancholy'
p2456
I1
sS'chose'
p2457
I1
sS'gathered'
p2458
I1
sS'sins'
p2459
I3
sS'growing'
p2460
I3
sS'scythe'
p2461
I4
sS'busy'
p2462
I1
sS'poverty'
p2463
I2
sS'separation'
p2464
I1
sS'others'
p2465
I10
sS'dissuade'
p2466
I1
sS'sing'
p2467
I7
sS'adulterate'
p2468
I1
sS'extreme'
p2469
I2
sS'convert'
p2470
I1
sS'burthens'
p2471
I1
sS'receive'
p2472
I1
sS'metre'
p2473
I1
sS'leaving'
p2474
I1
sS'survey'
p2475
I2
sS'defeat'
p2476
I1
sS'vaunt'
p2477
I1
sS'makes'
p2478
I8
sS'writes'
p2479
I1
sS'composed'
p2480
I1
sS'control'
p2481
I3
sS'chaste'
p2482
I1
sS'apple'
p2483
I1
sS'admired'
p2484
I1
sS'forbid'
p2485
I3
sS'win'
p2486
I4
sS"whoe'er"
p2487
I1
sS'messengers'
p2488
I1
sS'uprear'
p2489
I1
sS'posterity'
p2490
I3
sS'wit'
p2491
I6
sS'decrease'
p2492
I1
sS'scandal'
p2493
I1
sS'cloud'
p2494
I2
sS'desiring'
p2495
I1
sS'fed'
p2496
I1
sS'fee'
p2497
I1
sS'from'
p2498
I80
sS'remains'
p2499
I1
sS'hammered'
p2500
I1
sS'next'
p2501
I2
sS'predict'
p2502
I1
sS'doubt'
p2503
I1
sS'bonds'
p2504
I3
sS'uneared'
p2505
I1
sS"sun's"
p2506
I1
sS'defendant'
p2507
I1
sS'deepest'
p2508
I1
sS'sort'
p2509
I2
sS'pencil'
p2510
I2
sS'assailed'
p2511
I2
sS'pretty'
p2512
I3
sS'becomes'
p2513
I2
sS'freedom'
p2514
I1
sS'heir'
p2515
I3
sS"need'st"
p2516
I1
sS'infection'
p2517
I3
sS'fools'
p2518
I1
sS'meant'
p2519
I1
sS'insufficiency'
p2520
I1
sS'tattered'
p2521
I2
sS'special-blest'
p2522
I1
sS'harvest'
p2523
I1
sS'had'
p2524
I11
sS'annoy'
p2525
I1
sS'high'
p2526
I4
sS'account'
p2527
I4
sS'chide'
p2528
I4
sS'this'
p2529
I103
sS'ride'
p2530
I3
sS'tresses'
p2531
I1
sS'halt'
p2532
I1
sS'crossed'
p2533
I1
sS'praise'
p2534
I28
sS'executor'
p2535
I1
sS'meet'
p2536
I2
sS'drops'
p2537
I1
sS'befits'
p2538
I1
sS'proof'
p2539
I3
sS'thralled'
p2540
I1
sS'dregs'
p2541
I1
sS'enfeebled'
p2542
I1
sS'bent'
p2543
I2
sS'ushers'
p2544
I1
sS'process'
p2545
I1
sS"none'"
p2546
I1
sS'salving'
p2547
I1
sS'unswept'
p2548
I1
sS'something'
p2549
I2
sS'sought'
p2550
I1
sS'purposed'
p2551
I1
sS'paws'
p2552
I1
sS'darkening'
p2553
I1
sS'counterfeit'
p2554
I2
sS'lamb'
p2555
I1
sS'conceit'
p2556
I3
sS'compounded'
p2557
I1
sS'falls'
p2558
I1
sS'sit'
p2559
I2
sS"sickle's"
p2560
I1
sS'purpose'
p2561
I4
sS'holds'
p2562
I5
sS'thrall'
p2563
I1
sS'moods'
p2564
I1
sS'blessings'
p2565
I1
sS'slandering'
p2566
I1
sS'mightst'
p2567
I2
sS'forsaken'
p2568
I1
sS'sin'
p2569
I8
sS'watery'
p2570
I1
sS'attend'
p2571
I1
sS'watch'
p2572
I2
sS'tied'
p2573
I1
sS'abuse'
p2574
I3
sS'fits'
p2575
I1
sS"worth's"
p2576
I1
sS'tongue'
p2577
I11
sS'physic'
p2578
I2
sS'bankrupt'
p2579
I1
sS"bear'st"
p2580
I1
sS'untrimmed'
p2581
I1
sS'bind'
p2582
I1
sS'lame'
p2583
I2
sS'lines'
p2584
I8
sS'chief'
p2585
I2
sS'writ'
p2586
I6
sS'allow'
p2587
I2
sS'pyramids'
p2588
I1
sS'favourites'
p2589
I1
sS'looking'
p2590
I3
sS'counted'
p2591
I1
sS'breast'
p2592
I7
sS'neglect'
p2593
I2
sS'beauties'
p2594
I4
sS'stamped'
p2595
I1
sS'transfix'
p2596
I1
sS'move'
p2597
I1
sS'widowed'
p2598
I1
sS"o'erlook"
p2599
I1
sS'offences'
p2600
I1
sS'beguile'
p2601
I1
sS'dearest'
p2602
I3
sS'enclose'
p2603
I1
sS'trophies'
p2604
I1
sS'tyrant'
p2605
I2
sS'thyself'
p2606
I1
sS'badges'
p2607
I1
sS'perfect'
p2608
I2
sS'refusest'
p2609
I1
sS'frailties'
p2610
I2
sS'brood'
p2611
I1
sS'whereon'
p2612
I3
sS'unstained'
p2613
I1
sS'decay'
p2614
I9
sS'lo'
p2615
I3
sS'whereof'
p2616
I2
sS'banquet'
p2617
I1
sS'themes'
p2618
I1
sS'willing'
p2619
I2
sS'tyrants'
p2620
I1
sS'tickled'
p2621
I1
sS'ruined'
p2622
I2
sS'pure'
p2623
I2
sS'flattery'
p2624
I3
sS'sweets'
p2625
I6
sS'stout'
p2626
I1
sS'hands'
p2627
I2
sS'front'
p2628
I1
sS"owner's"
p2629
I1
sS'kindness'
p2630
I2
sS'affections'
p2631
I1
sS'day'
p2632
I25
sS'damasked'
p2633
I1
sS'strive'
p2634
I2
sS'profound'
p2635
I1
sS'eased'
p2636
I1
sS'feast'
p2637
I2
sS'mouthed'
p2638
I1
sS'trimmed'
p2639
I1
sS'slide'
p2640
I1
sS'truth'
p2641
I22
sS'gazing'
p2642
I1
sS'legions'
p2643
I1
sS'beshrew'
p2644
I1
sS'lie'
p2645
I12
sS'pitying'
p2646
I1
sS'debarred'
p2647
I1
sS'doing'
p2648
I2
sS"princes'"
p2649
I1
sS'ills'
p2650
I2
sS'alteration'
p2651
I1
sS'society'
p2652
I1
sS'decays'
p2653
I1
sS'exceeded'
p2654
I1
sS'our'
p2655
I18
sS'bay'
p2656
I1
sS'tenth'
p2657
I1
sS'special'
p2658
I1
sS'might'
p2659
I26
sS'respects'
p2660
I1
sS"'"
I3
sS"children's"
p2661
I1
sS'plods'
p2662
I1
sS'confess'
p2663
I1
sS'sufficed'
p2664
I1
sS'bad'
p2665
I7
sS'wondrous'
p2666
I2
sS'impart'
p2667
I1
sS'cause'
p2668
I3
sS'red'
p2669
I3
sS'afford'
p2670
I1
sS'perish'
p2671
I1
sS'frank'
p2672
I1
sS'darkly'
p2673
I1
sS'embassy'
p2674
I1
sS'gaol'
p2675
I1
sS'canker'
p2676
I4
sS'shun'
p2677
I2
sS'yore'
p2678
I1
sS'cured'
p2679
I1
sS'her'
p2680
I45
sS'misuse'
p2681
I1
sS'could'
p2682
I9
sS'times'
p2683
I9
sS'counterpart'
p2684
I1
sS'keen'
p2685
I2
sS'length'
p2686
I1
sS'cures'
p2687
I1
sS'mortal'
p2688
I5
sS'hence'
p2689
I6
sS'ears'
p2690
I1
sS'rudely'
p2691
I1
sS'new-appearing'
p2692
I1
sS'fragrant'
p2693
I1
sS'pitied'
p2694
I1
sS'savour'
p2695
I1
sS'powerful'
p2696
I2
sS'loveliness'
p2697
I1
sS'feasts'
p2698
I1
sS"learned's"
p2699
I1
sS'such'
p2700
I31
sS'watchman'
p2701
I1
sS'quality'
p2702
I1
sS"run'st"
p2703
I1
sS"love'"
p2704
I1
sS'sadly'
p2705
I1
sS'bears'
p2706
I3
sS'unknown'
p2707
I2
sS'vulgar'
p2708
I3
sS'seat'
p2709
I2
sS'comes'
p2710
I2
sS'intelligence'
p2711
I1
sS'prouder'
p2712
I1
sS'travelled'
p2713
I1
sS'badness'
p2714
I1
sS'fairest'
p2715
I5
sS'painful'
p2716
I1
sS'beard'
p2717
I1
sS'sealed'
p2718
I1
sS"were't"
p2719
I1
sS'perforce'
p2720
I1
sS'prefiguring'
p2721
I1
sS'herself'
p2722
I1
sS'commence'
p2723
I1
sS'remember'
p2724
I2
sS'steel'
p2725
I3
sS'loved'
p2726
I5
sS'unlooked'
p2727
I2
sS'aught'
p2728
I2
sS'beseem'
p2729
I1
sS'riches'
p2730
I2
sS'richer'
p2731
I1
sS'bed'
p2732
I1
sS'jollity'
p2733
I1
sS'transgression'
p2734
I1
sS"body's"
p2735
I4
sS'loves'
p2736
I8
sS'light'
p2737
I6
sS'dumb'
p2738
I6
sS"lily's"
p2739
I1
sS'counting'
p2740
I2
sS'descriptions'
p2741
I1
sS'drunk'
p2742
I1
sS'accusing'
p2743
I1
sS'enforced'
p2744
I1
sS'beggared'
p2745
I1
sS'false'
p2746
I18
sS"forget'st"
p2747
I1
sS'beggar'
p2748
I1
sS'labouring'
p2749
I1
sS'gently'
p2750
I1
sS'refigured'
p2751
I1
sS'presenteth'
p2752
I1
sS'prophetic'
p2753
I1
sS'torment'
p2754
I3
sS'have'
p2755
I76
sS're-survey'
p2756
I1
sS'need'
p2757
I5
sS'turn'
p2758
I3
sS'sings'
p2759
I2
sS'bastard'
p2760
I3
sS'bough'
p2761
I1
sS'reeks'
p2762
I1
sS'able'
p2763
I1
sS'gravity'
p2764
I1
sS'adjunct'
p2765
I2
sS'which'
p2766
I107
sS'divert'
p2767
I1
sS'adieu'
p2768
I1
sS'unless'
p2769
I6
sS'centre'
p2770
I1
sS'tenure'
p2771
I1
sS'privilage'
p2772
I1
sS"time's"
p2773
I15
sS'harmful'
p2774
I1
sS'offend'
p2775
I1
sS'but'
p2776
I160
sS'prisoner'
p2777
I1
sS'expired'
p2778
I1
sS'why'
p2779
I25
sS"husband's"
p2780
I1
sS'statute'
p2781
I1
sS'deny'
p2782
I2
sS'wherewith'
p2783
I1
sS'bred'
p2784
I2
sS'stronger'
p2785
I2
sS'disease'
p2786
I1
sS'brought'
p2787
I3
sS'face'
p2788
I19
sS'looked'
p2789
I2
sS'wounded'
p2790
I1
sS'painting'
p2791
I6
sS'outlive'
p2792
I3
sS'tear'
p2793
I1
sS'impression'
p2794
I1
sS'slandered'
p2795
I1
sS'wilful'
p2796
I1
sS'couldst'
p2797
I1
sS'burden'
p2798
I1
sS'poesy'
p2799
I1
sS'bring'
p2800
I8
sS"many's"
p2801
I1
sS'fear'
p2802
I7
sS'obsequious'
p2803
I2
sS'pleased'
p2804
I1
sS'spurring'
p2805
I1
sS'envy'
p2806
I2
sS'knowledge'
p2807
I3
sS'chiding'
p2808
I1
sS'philomel'
p2809
I1
sS'mute'
p2810
I2
sS'woo'
p2811
I1
sS'world-without-end'
p2812
I1
sS'should'
p2813
I44
sS'score'
p2814
I1
sS'preposterously'
p2815
I1
sS'tune'
p2816
I1
sS'marriage'
p2817
I1
sS'inhabit'
p2818
I1
sS'inferior'
p2819
I1
sS'exchanged'
p2820
I1
sS'accessary'
p2821
I1
sS'doubting'
p2822
I2
sS'watching'
p2823
I1
sS'familiar'
p2824
I1
sS'bear'
p2825
I12
sS'sightless'
p2826
I2
sS'abundance'
p2827
I4
sS'perfection'
p2828
I2
sS'words'
p2829
I10
sS'durst'
p2830
I1
sS'leases'
p2831
I1
sS'chips'
p2832
I1
sS'rite'
p2833
I1
sS'endless'
p2834
I1
sS'heretic'
p2835
I1
sS"stick'st"
p2836
I1
sS'glory'
p2837
I8
sS'whilst'
p2838
I13
sS'gust'
p2839
I1
sS'married'
p2840
I2
sS'summon'
p2841
I1
sS'she'
p2842
I31
sS'contain'
p2843
I1
sS'fixed'
p2844
I2
sS'deceived'
p2845
I2
sS'strengthened'
p2846
I1
sS'sluttish'
p2847
I1
sS'untrue'
p2848
I2
sS'outbraves'
p2849
I1
sS'farthest'
p2850
I2
sS'prayers'
p2851
I1
sS'frame'
p2852
I4
sS'shake'
p2853
I3
sS'legacy'
p2854
I1
sS'merits'
p2855
I1
sS'changes'
p2856
I1
sS'desperate'
p2857
I1
sS'violet'
p2858
I1
sS'sleeping'
p2859
I1
sS'overturn'
p2860
I1
sS'tripping'
p2861
I1
sS'error'
p2862
I1
sS'closet'
p2863
I1
sS'placed'
p2864
I1
sS'pattern'
p2865
I2
sS'vows'
p2866
I2
sS'unseeing'
p2867
I1
sS'worship'
p2868
I1
sS'written'
p2869
I1
sS'boughs'
p2870
I1
sS'progress'
p2871
I1
sS'neither'
p2872
I2
sS'besmeared'
p2873
I1
sS'wiry'
p2874
I1
sS'dreading'
p2875
I1
sS'amen'
p2876
I1
sS'dressings'
p2877
I1
sS'joy'
p2878
I8
sS'sorrow'
p2879
I5
sS'beweep'
p2880
I1
sS'never-resting'
p2881
I1
sS'hooks'
p2882
I1
sS'spoil'
p2883
I1
sS'precious'
p2884
I6
sS'weary'
p2885
I4
sS'swift'
p2886
I5
sS'hits'
p2887
I1
sS'weeks'
p2888
I1
sS'instant'
p2889
I1
sS'limits'
p2890
I1
sS'invited'
p2891
I1
sS'thence'
p2892
I8
sS'equal'
p2893
I1
sS'minds'
p2894
I3
sS'ruminate'
p2895
I1
sS'assure'
p2896
I1
sS'admit'
p2897
I1
sS'devour'
p2898
I1
sS'figures'
p2899
I1
sS"store's"
p2900
I1
sS'conquered'
p2901
I1
sS'canopy'
p2902
I2
sS'lofty'
p2903
I2
sS"beds'"
p2904
I1
sS'aye'
p2905
I1
sS'comment'
p2906
I2
sS'fester'
p2907
I1
sS'statues'
p2908
I1
sS'bearing'
p2909
I3
sS'walk'
p2910
I1
sS'commend'
p2911
I1
sS"wretch's"
p2912
I1
sS'kings'
p2913
I2
sS'fountains'
p2914
I1
sS'death-bed'
p2915
I1
sS'second'
p2916
I4
sS'addition'
p2917
I2
sS'wills'
p2918
I2
sS'gaze'
p2919
I2
sS'certain'
p2920
I1
sS'poet'
p2921
I2
sS'waste'
p2922
I7
sS'tillage'
p2923
I1
sS'tyranny'
p2924
I1
sS'senses'
p2925
I1
sS'proudest'
p2926
I1
sS"war's"
p2927
I1
sS'painted'
p2928
I5
sS'nimble'
p2929
I2
sS'releasing'
p2930
I1
sS"hear'st"
p2931
I1
sS'lets'
p2932
I1
sS'unmoved'
p2933
I1
sS'general'
p2934
I3
sS'present'
p2935
I5
sS'debtor'
p2936
I1
sS'novel'
p2937
I1
sS'sourly'
p2938
I2
sS'surety-like'
p2939
I1
sS'fearful'
p2940
I1
sS'slept'
p2941
I1
sS'means'
p2942
I3
sS'addeth'
p2943
I1
sS'as'
p2944
I119
sS'three-fold'
p2945
I1
sS'will'
p2946
I58
sS'riper'
p2947
I2
sS'wild'
p2948
I1
sS'at'
p2949
I26
sS'ripe'
p2950
I1
sS'physicians'
p2951
I1
sS'almost'
p2952
I3
sS'up-locked'
p2953
I1
sS'thus'
p2954
I20
sS'over-goes'
p2955
I1
sS'turns'
p2956
I4
sS'lambs'
p2957
I1
sS'sits'
p2958
I1
sS'new-fangled'
p2959
I1
sS'ransom'
p2960
I2
sS'all-eating'
p2961
I1
sS'perhaps'
p2962
I1
sS'cross'
p2963
I3
sS'largess'
p2964
I1
sS'adverse'
p2965
I1
sS'strange'
p2966
I6
sS'duteous'
p2967
I1
sS'kingly'
p2968
I1
sS'party'
p2969
I1
sS'well-contented'
p2970
I1
sS'blooms'
p2971
I1
sS'slave'
p2972
I6
sS'toil'
p2973
I4
sS'flesh'
p2974
I3
sS'shames'
p2975
I2
sS'drink'
p2976
I2
sS'upon'
p2977
I29
sS'effect'
p2978
I3
sS'outcast'
p2979
I1
sS'beast'
p2980
I2
sS"december's"
p2981
I1
sS'fierce'
p2982
I2
sS'judgment'
p2983
I4
sS'betray'
p2984
I2
sS'shamed'
p2985
I1
sS'keep'
p2986
I8
sS'audit'
p2987
I2
sS'scarcely'
p2988
I1
sS'off'
p2989
I2
sS'i'
I337
sS'approve'
p2990
I3
sS'colour'
p2991
I2
sS'well'
p2992
I23
sS'thought'
p2993
I18
sS'amends'
p2994
I1
sS'oft'
p2995
I5
sS'drowns'
p2996
I1
sS'tibey'
p2997
I1
sS'builded'
p2998
I1
sS'twire'
p2999
I1
sS'bending'
p3000
I2
sS'restore'
p3001
I1
sS'feathered'
p3002
I1
sS'stores'
p3003
I1
sS'kiss'
p3004
I3
sS'liker'
p3005
I1
sS'less'
p3006
I7
sS"o'erpressed"
p3007
I1
sS'gulls'
p3008
I1
sS'cries'
p3009
I2
sS'interim'
p3010
I1
sS'skill'
p3011
I7
sS'thither'
p3012
I1
sS'warrantise'
p3013
I1
sS'now'
p3014
I45
sS'field'
p3015
I1
sS'bell'
p3016
I1
sS'sky'
p3017
I1
sS'fled'
p3018
I2
sS'arrest'
p3019
I1
sS'add'
p3020
I4
sS'book'
p3021
I6
sS'wet'
p3022
I1
sS"infant's"
p3023
I1
sS'rearward'
p3024
I1
sS'raven'
p3025
I1
sS'wooed'
p3026
I1
sS'fate'
p3027
I1
sS'testy'
p3028
I1
sS'devised'
p3029
I1
sS'famine'
p3030
I1
sS"who's"
p3031
I1
sS'crushed'
p3032
I1
sS'smother'
p3033
I1
sS'five'
p3034
I3
sS'know'
p3035
I17
sS'presume'
p3036
I1
sS'press'
p3037
I1
sS'woeful'
p3038
I1
sS'loss'
p3039
I8
sS'necessary'
p3040
I1
sS"garments'"
p3041
I1
sS'inviting'
p3042
I1
sS'perpetual'
p3043
I2
sS'rich-proud'
p3044
I1
sS'admitted'
p3045
I1
sS'dove'
p3046
I1
sS'heed'
p3047
I1
sS'lose'
p3048
I9
sS'become'
p3049
I1
sS'dispraise'
p3050
I1
sS'indigest'
p3051
I1
sS'lends'
p3052
I4
sS'therein'
p3053
I2
sS'decease'
p3054
I3
sS'warmed'
p3055
I1
sS'because'
p3056
I3
sS'thief'
p3057
I3
sS'authority'
p3058
I1
sS'immortal'
p3059
I1
sS'hush'
p3060
I1
sS'growth'
p3061
I2
sS'home'
p3062
I3
sS'transport'
p3063
I1
sS"heaven's"
p3064
I6
sS'lead'
p3065
I2
sS'broad'
p3066
I1
sS'lean'
p3067
I1
sS'whole'
p3068
I1
sS'leap'
p3069
I2
sS'passion'
p3070
I1
sS'masked'
p3071
I3
sS"o'ertake"
p3072
I1
sS'thinly'
p3073
I1
sS'slight'
p3074
I2
sS"death's"
p3075
I4
sS'how'
p3076
I40
sS'expire'
p3077
I1
sS'although'
p3078
I9
sS'worthy'
p3079
I5
sS'instinct'
p3080
I1
sS'imaginary'
p3081
I1
sS'stay'
p3082
I9
sS"travel's"
p3083
I1
sS'worths'
p3084
I1
sS'hiding'
p3085
I1
sS'hied'
p3086
I1
sS"murd'rous"
p3087
I3
sS'rare'
p3088
I4
sS'dun'
p3089
I1
sS'linger'
p3090
I1
sS'universe'
p3091
I1
sS'swear'
p3092
I7
sS'gainer'
p3093
I1
sS'hairs'
p3094
I1
sS'tomb'
p3095
I5
sS'outstripped'
p3096
I1
sS'reckoning'
p3097
I1
sS'own'
p3098
I30
sS'polished'
p3099
I1
sS'depart'
p3100
I2
sS'owe'
p3101
I1
sS'attaint'
p3102
I1
sS'repair'
p3103
I3
sS'guard'
p3104
I2
sS'promise'
p3105
I1
sS'treads'
p3106
I1
sS'female'
p3107
I1
sS'lawful'
p3108
I3
sS'monuments'
p3109
I1
sS'gazeth'
p3110
I1
sS'suborned'
p3111
I1
sS'victors'
p3112
I1
sS'friends'
p3113
I3
sS'trenches'
p3114
I1
sS'reigned'
p3115
I1
sS'spread'
p3116
I1
sS"grief's"
p3117
I1
sS'function'
p3118
I1
sS'buy'
p3119
I1
sS'hoisted'
p3120
I1
sS'brand'
p3121
I5
sS'invocate'
p3122
I1
sS"wand'ring"
p3123
I1
sS'gait'
p3124
I1
sS'prophecies'
p3125
I1
sS'plague'
p3126
I3
sS'gain'
p3127
I4
sS'delivers'
p3128
I1
sS'ear'
p3129
I3
sS'eat'
p3130
I2
sS'bud'
p3131
I2
sS'he'
p3132
I43
sS'count'
p3133
I4
sS'made'
p3134
I19
sS'wise'
p3135
I2
sS'princes'
p3136
I2
sS'evident'
p3137
I1
sS'whether'
p3138
I7
sS'wish'
p3139
I5
sS'grieve'
p3140
I1
sS'triumphant'
p3141
I2
sS"eyes'"
p3142
I1
sS'record'
p3143
I3
sS'cruel'
p3144
I8
sS'converted'
p3145
I2
sS'limit'
p3146
I1
sS'monument'
p3147
I2
sS'minutes'
p3148
I3
sS'unfolding'
p3149
I1
sS'rightly'
p3150
I1
sS'deaths'
p3151
I2
sS'devise'
p3152
I2
sS'measure'
p3153
I2
sS'dearth'
p3154
I1
sS'denote'
p3155
I1
sS'goodness'
p3156
I2
sS'ink'
p3157
I2
sS'fleeting'
p3158
I1
sS'self-killed'
p3159
I1
sS'proceeds'
p3160
I1
sS'endeared'
p3161
I1
sS'nursed'
p3162
I1
sS'mutual'
p3163
I2
sS'compared'
p3164
I1
sS'didst'
p3165
I2
sS'dressed'
p3166
I1
sS'boot'
p3167
I1
sS'forests'
p3168
I1
sS'slumbers'
p3169
I1
sS'other'
p3170
I17
sS'prizing'
p3171
I1
sS'sick'
p3172
I6
sS'unlettered'
p3173
I1
sS'behold'
p3174
I7
sS'out'
p3175
I16
sS'beseechers'
p3176
I1
sS'pupil'
p3177
I1
sS'semblance'
p3178
I1
sS'kinds'
p3179
I1
sS'oppression'
p3180
I1
sS'variation'
p3181
I1
sS'insults'
p3182
I1
sS'methinks'
p3183
I4
sS'chance'
p3184
I1
sS'earthly'
p3185
I1
sS'astronomy'
p3186
I1
sS'veil'
p3187
I1
sS'tan'
p3188
I1
sS'ghost'
p3189
I1
sS'stirred'
p3190
I1
sS'self-example'
p3191
I1
sS'ranks'
p3192
I1
sS"he's"
p3193
I1
sS'love-kindling'
p3194
I1
sS'jewel'
p3195
I4
sS'abhor'
p3196
I2
sS'thrivers'
p3197
I1
sS"sway'st"
p3198
I1
sS'vassal'
p3199
I2
sS'lives'
p3200
I9
sS'accidents'
p3201
I1
sS'indirectly'
p3202
I1
stRp3203
.