(lp1
(lp2
I1028
aI664
aI486
aI1677
aI2725
aI2516
aa(lp3
I869
aI83
aI1845
aI1436
aI780
aI1061
aI1159
aa(lp4
I3057
aI1591
aI2308
aI2826
aI2953
aI621
aI2950
aI2790
aa(lp5
I943
aI2561
aI2838
aI1845
aI2533
aI1663
aI2561
aa(lp6
I1156
aI1241
aI3101
aI1119
aI1635
aI892
aI2129
aI2790
aa(lp7
I2829
aI2037
aI1549
aI348
aI116
aI608
aI666
aa(lp8
I725
aI851
aI1274
aI3033
aI1798
aI969
aa(lp9
I3145
aI326
aI1999
aI2141
aI608
aI1635
aI692
aI608
aI1999
aI608
aa(lp10
I1374
aI608
aI2392
aI2290
aI1224
aI268
aI1418
aa(lp11
I3019
aI780
aI608
aI576
aI3115
aI1568
aI870
aI1178
aa(lp12
I1067
aI1501
aI1925
aI1023
aI1987
aI1226
aI336
aI608
aa(lp13
I1820
aI27
aI1661
aI1505
aI1397
aI2537
aI1798
aI2297
aI2952
aa(lp14
I725
aI188
aI608
aI1610
aI1274
aI514
aI1417
aI224
aa(lp15
I296
aI595
aI608
aI1505
aI1250
aI621
aI1610
aI1274
aa(lp16
I1156
aI2379
aI1568
aI3101
aI1119
aI2321
aI1189
aI1635
aa(lp17
I2547
aI796
aI1178
aI572
aI2966
aI1569
aI1176
aa(lp18
I2050
aI2129
aI786
aI621
aI127
aI1178
aI137
aI608
aI576
aI2178
aa(lp19
I317
aI742
aI2826
aI786
aI1159
aI1591
aI621
aI569
aI1067
aa(lp20
I2922
aI1066
aI2129
aI1067
aI578
aI2319
aI2409
aI13
aa(lp21
I619
aI2278
aI130
aI1458
aI621
aI2612
aI3017
aI2129
aa(lp22
I1694
aI2713
aI13
aI461
aI1023
aI2852
aI569
aI1274
aI688
aa(lp23
I1000
aI608
aI1505
aI1051
aI621
aI701
aa(lp24
I2590
aI621
aI2297
aI2952
aI2043
aI1023
aI3133
aI569
aI2783
aI1515
aa(lp25
I3083
aI433
aI1635
aI1724
aI2561
aI1505
aa(lp26
I2233
aI2129
aI3017
aI2793
aI2706
aI1327
aa(lp27
I2864
aI780
aI608
aI1999
aI608
aI2983
aa(lp28
I1481
aI555
aI2790
aI2017
aI1154
aI603
aI1886
aa(lp29
I284
aI2098
aI1359
aI1635
aI3055
aI2852
aI2681
aI1417
aI1178
aa(lp30
I2587
aI2129
aI3017
aI2793
aI2064
aI2061
aI224
aa(lp31
I936
aI1635
aI228
aI283
aI2970
aI577
aI621
aa(lp32
I2514
aI2129
aI3017
aI2793
aI321
aI1312
aa(lp33
I940
aI1066
aI2273
aI638
aI1453
aI1505
aI1686
aI1798
aI2487
aI1023
aa(lp34
I2862
aI868
aI150
aI2762
aI1549
aI1159
aI1701
aI1359
aa(lp35
I327
aI555
aI1725
aI35
aI1274
aI1537
aI541
aI621
aa(lp36
I1385
aI1645
aI621
aI1635
aI1851
aI621
aI2279
aI2952
aa(lp37
I793
aI555
aI596
aI2776
aI630
aI1159
aI1178
aa(lp38
I1501
aI1415
aI835
aI1591
aI2728
aI688
aa(lp39
I1533
aI2078
aI844
aI1178
aI990
aI1639
aI1635
aa(lp40
I1559
aI1106
aI97
aI595
aI1178
aI2344
aI1549
aI1146
aI1194
aa(lp41
I1274
aI35
aI1423
aI1178
aI186
aI188
aa(lp42
I2806
aI599
aI615
aI231
aI1066
aI2480
aI224
aa(lp43
I1388
aI2297
aI2129
aI154
aI1415
aI608
aI228
aI576
aa(lp44
I1120
aI2278
aI2129
aI1250
aI1969
aI2278
aI2141
aI586
aa(lp45
I3160
aI2297
aI570
aI154
aI1250
aI780
aI1549
aa(lp46
I2352
aI1614
aI1066
aI569
aI2514
aI1159
aa(lp47
I2142
aI2630
aI621
aI1384
aI1159
aI1359
aI1550
aI2776
aa(lp48
I228
aI317
aI1148
aI1635
aI1999
aI608
aI688
aI1813
aa(lp49
I235
aI688
aI1666
aI570
aI2297
aI2400
aI169
aI1666
aI1515
aa(lp50
I2594
aI557
aI621
aI1418
aI1888
aI621
aI576
aI2626
aa(lp51
I1725
aI22
aI245
aI740
aI1519
aI2561
aI1278
aI2001
aa(lp52
I2283
aI2701
aI2561
aI1635
aI1631
aI555
aa(lp53
I2138
aI1787
aI2561
aI2615
aI1549
aI1030
aa(lp54
I1896
aI273
aI779
aI621
aI98
aI2411
aI1178
aa(lp55
I2404
aI1376
aI2561
aI576
aI1975
aI1706
aI1205
aa(lp56
I1039
aI188
aI2561
aI769
aI2615
aI2697
aI638
aa(lp57
I381
aI106
aI2561
aI1501
aI2684
aa(lp58
I2715
aI123
aI2129
aI2938
aI2793
aI752
aI1635
aI123
aa(lp59
I2887
aI576
aI2161
aI2887
aI1066
aI738
aI2635
aI1549
aI2635
aa(lp60
I2538
aI1066
aI294
aI2129
aI2776
aI1159
aI2129
aI794
aI2793
aa(lp61
I2540
aI1119
aI1809
aI1549
aI294
aI2172
aI1515
aa(lp62
I1139
aI1774
aI1505
aI253
aI758
aI621
aI578
aa(lp63
I3130
aI1119
aI2788
aI429
aI2850
aI2107
aI2308
aa(lp64
I844
aI2783
aI228
aI2333
aI1683
aI2790
aI429
aI233
aa(lp65
I2838
aI2054
aI2129
aI1159
aI2972
aI621
aI609
aI576
aa(lp66
I1725
aI2801
aI1798
aI3026
aI1635
aI885
aI688
aI570
aI569
aa(lp67
I545
aI2373
aI576
aI1999
aI608
aI172
aI2129
aI1159
aa(lp68
I869
aI1635
aI651
aI394
aI2461
aI2129
aI578
aI1564
aa(lp69
I1601
aI2396
aI1798
aI3044
aI228
aI902
aI2952
aI1458
aI621
aa(lp70
I1403
aI1039
aI1178
aI1123
aI608
aI2297
aI2952
aI1458
aI621
aa(lp71
I1296
aI624
aI1704
aI228
aI1505
aI742
aI792
aI2129
aI1159
aa(lp72
I2692
aI1007
aI2997
aI1123
aI2505
aI35
aI1418
aa(lp73
I361
aI576
aI2237
aI2794
aI2689
aI1156
aI2670
aI2308
aa(lp74
I1196
aI1635
aI920
aI1514
aI2129
aI1159
aI2796
aI572
aI688
aa(lp75
I457
aI1023
aI2092
aI1999
aI608
aI688
aI2783
aa(lp76
I1316
aI1505
aI649
aI2092
aI2129
aI2947
aI2129
aI578
aI2200
aa(lp77
I2847
aI2013
aI569
aI794
aI1756
aI2129
aI1159
aI2790
aa(lp78
I11
aI3089
aI1549
aI611
aI1023
aI2092
aI2129
aI688
aa(lp79
I1770
aI1635
aI1066
aI1170
aI2129
aI1999
aI608
aI1621
aI1159
aa(lp80
I305
aI1635
aI152
aI2061
aI1159
aI1853
aa(lp81
I664
aI2597
aI608
aI2297
aI2826
aI2319
aI1635
aI2776
aa(lp82
I2556
aI2129
aI1531
aI1023
aI163
aI394
aI2129
aI2950
aI1531
aI2950
aa(lp83
I1297
aI2129
aI2776
aI1159
aI2516
aI1119
aI1505
aI235
aI576
aa(lp84
I216
aI2129
aI1955
aI2776
aI1794
aI2409
aI1159
aI1178
aa(lp85
I2033
aI1975
aI2516
aI2129
aI1418
aI1119
aI736
aI1129
aI2129
aa(lp86
I1028
aI1178
aI188
aI334
aI2173
aI135
aa(lp87
I2625
aI1038
aI1178
aI2404
aI1174
aI2544
aI1411
aa(lp88
I1424
aI2826
aI169
aI621
aI1023
aI1652
aI1176
aI1610
aI578
aa(lp89
I472
aI1458
aI621
aI586
aI119
aI1086
aI1842
aI1178
aa(lp90
I1591
aI621
aI371
aI1159
aI1684
aI621
aI3134
aI429
aI2994
aI1418
aa(lp91
I671
aI1639
aI576
aI1620
aI2642
aI876
aI621
aI2096
aI1178
aa(lp92
I1268
aI1668
aI2868
aI621
aI3175
aI2994
aI1418
aa(lp93
I1151
aI1549
aI2739
aI1659
aI1610
aI1049
aI1299
aI1178
aa(lp94
I97
aI1505
aI2032
aI2096
aI2994
aI2070
aI2909
aI1418
aa(lp95
I85
aI621
aI2908
aI868
aI751
aI2516
aI556
aI2776
aa(lp96
I1365
aI576
aI1278
aI1166
aI1610
aI1206
aI1438
aI1178
aa(lp97
I353
aI2202
aI1178
aI1151
aI1549
aI474
aI621
aI1501
aI261
aa(lp98
I2098
aI1588
aI920
aI2790
aI1999
aI1528
aI1176
aI1588
aI1159
aI708
aa(lp99
I940
aI84
aI1999
aI1528
aI1588
aI1169
aI623
aI820
aI792
aa(lp100
I1532
aI2826
aI1588
aI1013
aI1795
aI2544
aI507
aa(lp101
I936
aI3025
aI2278
aI1635
aI3178
aI2141
aI1528
aI1178
aa(lp102
I1954
aI576
aI142
aI1588
aI2776
aI188
aI1159
aI2826
aI1023
aa(lp103
I1176
aI1588
aI224
aI3200
aI792
aI2049
aa(lp104
I3057
aI1345
aI1528
aI189
aI1578
aI1999
aI1528
aa(lp105
I2838
aI2826
aI742
aI2141
aI1528
aI1899
aI2141
aI1528
aI1418
aa(lp106
I1307
aI2256
aI157
aI2994
aI429
aI1539
aI621
aI2516
aI1066
aa(lp107
I3186
aI2765
aI2994
aI3183
aI638
aI1178
aa(lp108
I250
aI289
aI1515
aI1850
aI1505
aI127
aI1635
aI1066
aI2790
aa(lp109
I2711
aI1538
aI1515
aI1710
aI1505
aI2234
aI1505
aa(lp110
I127
aI3149
aI1687
aI1635
aI1462
aI2994
aI967
aI1069
aa(lp111
I204
aI1178
aI598
aI66
aI2561
aI245
aI1635
aI1612
aa(lp112
I2997
aI2421
aI2290
aI570
aI578
aI3137
aI1549
aI1189
aI1515
aa(lp113
I2049
aI1657
aI576
aI2994
aI1159
aI978
aI3000
aI2308
aa(lp114
I593
aI1159
aI1118
aI35
aI1611
aI2994
aI1418
aa(lp115
I2214
aI1145
aI1798
aI2790
aI2839
aI576
aI2575
aa(lp116
I1101
aI2790
aI721
aI2100
aI3087
aI1777
aI2544
aI1159
aa(lp117
I2913
aI2371
aI2158
aI576
aI1539
aI621
aI2623
aa(lp118
I1028
aI2176
aI2950
aI487
aI1159
aI434
aI2994
aI1418
aa(lp119
I3021
aI1555
aI621
aI2308
aI60
aI1146
aI1178
aI2515
aa(lp120
I2509
aI519
aI2955
aI1194
aI2317
aI2720
aI576
aI2552
aa(lp121
I943
aI1505
aI2668
aI2878
aI876
aI2720
aI495
aI1178
aa(lp122
I735
aI2374
aI1798
aI1588
aI1066
aI429
aI882
aI2790
aa(lp123
I1591
aI2616
aI923
aI2544
aI2983
aI738
aI586
aa(lp124
I2625
aI1528
aI576
aI1999
aI1528
aI213
aI1178
aa(lp125
I2440
aI2032
aI157
aI1169
aI1523
aI1735
aI2836
aI1549
aa(lp126
I1701
aI739
aI1505
aI322
aI621
aI1501
aI1588
aI1511
aI1067
aa(lp127
I1609
aI638
aI3202
aI384
aI1316
aI1178
aa(lp128
I1168
aI1088
aI1588
aI2838
aI119
aI3140
aI2432
aI1549
aa(lp129
I2567
aI2936
aI1528
aI1169
aI2145
aI536
aa(lp130
I1313
aI1635
aI1591
aI576
aI1440
aI157
aI1963
aI2952
aI2783
aa(lp131
I2055
aI2559
aI2013
aI1528
aI1549
aI899
aI1176
aI570
aI578
aa(lp132
I2590
aI1798
aI2950
aI2790
aI569
aI570
aI1739
aI1657
aI638
aI385
aa(lp133
I2972
aI1528
aI1065
aI1066
aI1101
aI1178
aI545
aI1528
aI984
aI2776
aa(lp134
I1156
aI1528
aI1505
aI188
aI621
aI997
aI2691
aI2994
aI578
aa(lp135
I46
aI1528
aI1610
aI1930
aI1773
aI2409
aI576
aI1178
aa(lp136
I725
aI2928
aI2544
aI1189
aI119
aI1313
aI1635
aI2404
aI621
aa(lp137
I510
aI3185
aI423
aI64
aI416
aI273
aI2709
aa(lp138
I2642
aI1438
aI1798
aI1635
aI228
aI1765
aI2994
aI2290
aa(lp139
I1018
aI1735
aI1178
aI541
aI1735
aI2092
aI2129
aa(lp140
I1007
aI1505
aI1529
aI1898
aI621
aI2863
aI429
aI1669
aI2815
aa(lp141
I1012
aI1798
aI1800
aI326
aI1610
aI4
aI1954
aI1438
aI1178
aa(lp142
I785
aI1657
aI1505
aI1725
aI621
aI181
aI326
aI783
aa(lp143
I2383
aI1298
aI2039
aI2561
aI569
aI2274
aI1178
aa(lp144
I2093
aI783
aI461
aI2516
aI461
aI35
aI1178
aa(lp145
I2593
aI1036
aI1402
aI1886
aI1515
aI3184
aI2308
aa(lp146
I2565
aI1721
aI621
aI2129
aI1207
aI1591
aI2152
aa(lp147
I2622
aI2141
aI3101
aI2689
aI2904
aI412
aI621
aI586
aI1178
aa(lp148
I1540
aI1152
aI947
aI621
aI2516
aI824
aI2694
aI621
aI1307
aa(lp149
I1794
aI2689
aI576
aI806
aI1518
aI621
aI695
aI1178
aa(lp150
I888
aI2129
aI2950
aI2018
aI24
aI1178
aI1752
aI586
aa(lp151
I1591
aI355
aI2947
aI2129
aI2926
aI429
aI1178
aa(lp152
I2635
aI1992
aI2689
aI1610
aI1178
aI1458
aI1171
aI621
aI1635
aa(lp153
I1253
aI749
aI2013
aI235
aI228
aI2502
aI2994
aI2790
aa(lp154
I2936
aI599
aI3101
aI1886
aI1549
aI786
aI1918
aI1798
aa(lp155
I3073
aI157
aI1505
aI291
aI325
aI621
aI2129
aI1704
aa(lp156
I1461
aI1066
aI2790
aI973
aI2762
aI1918
aI1798
aa(lp157
I356
aI33
aI2756
aI569
aI2950
aI909
aI697
aI1549
aa(lp158
I814
aI576
aI2756
aI2057
aI704
aI1169
aI1241
aI1735
aI1725
aI1569
aa(lp159
I3111
aI570
aI288
aI386
aI621
aI126
aa(lp160
I1747
aI2561
aI576
aI2247
aI1610
aI358
aI576
aI1017
aI1798
aa(lp161
I2016
aI832
aI33
aI1178
aI1156
aI1161
aI2990
aI2776
aa(lp162
I134
aI1159
aI1549
aI2950
aI145
aI1549
aI1066
aI570
aI569
aI1023
aa(lp163
I1440
aI2561
aI1635
aI188
aI2936
aI1798
aI2308
aI3190
aa(lp164
I2514
aI555
aI1295
aI688
aI1999
aI570
aI1657
aI2783
aa(lp165
I690
aI555
aI461
aI2561
aI1549
aI461
aI35
aI1178
aa(lp166
I1765
aI1226
aI1505
aI207
aI1798
aI969
aa(lp167
I2241
aI424
aI1321
aI1178
aI412
aI1549
aI1483
aI1178
aI1685
aI1549
aa(lp168
I3090
aI585
aI1610
aI1178
aI1168
aI810
aI900
aI1549
aa(lp169
I1654
aI1944
aI1777
aI2544
aI576
aI560
aI3068
aI1159
aa(lp170
I675
aI1567
aI2994
aI145
aI58
aI1066
aI2290
aI137
aI157
aa(lp171
I1012
aI235
aI1505
aI2098
aI2129
aI1178
aI1975
aI2950
aI1134
aI1023
aa(lp172
I3175
aI2994
aI850
aI2786
aI228
aI576
aI1418
aI2790
aa(lp173
I1281
aI2826
aI296
aI157
aI2122
aI2994
aI2178
aI224
aa(lp174
I228
aI2029
aI555
aI1159
aI188
aI1159
aI1610
aI688
aa(lp175
I973
aI157
aI1505
aI436
aI443
aI621
aI2790
aI569
aa(lp176
I145
aI576
aI1119
aI2950
aI940
aI555
aI2073
aI608
aI576
aI2776
aa(lp177
I2092
aI2129
aI1169
aI1932
aI2297
aI224
aI2994
aI967
aI3079
aa(lp178
I3087
aI621
aI1501
aI795
aI2192
aI1569
aI2950
aa(lp179
I1961
aI2561
aI589
aI1911
aI569
aI885
aI2561
aI1549
aI2783
aa(lp180
I1553
aI536
aI326
aI1549
aI1797
aI1118
aI947
aI2278
aI1515
aa(lp181
I973
aI3101
aI2561
aI567
aI851
aI953
aI13
aa(lp182
I1189
aI1635
aI12
aI524
aI1505
aI885
aI688
aI2994
aI1023
aa(lp183
I2113
aI946
aI1505
aI171
aI2619
aI621
aa(lp184
I2625
aI1635
aI369
aI374
aI946
aI3101
aI362
aI576
aI1178
aa(lp185
I1845
aI946
aI3101
aI362
aI1505
aI518
aI1549
aI2019
aa(lp186
I2232
aI4
aI1178
aI2942
aI621
aI568
aI4
aI1725
aI362
aa(lp187
I973
aI157
aI1505
aI2921
aI576
aI742
aI780
aI608
aa(lp188
I1820
aI1262
aI2205
aI2862
aI621
aI569
aI2472
aI157
aa(lp189
I2092
aI2063
aI467
aI569
aI570
aI1671
aI1178
aa(lp190
I3015
aI2561
aI2096
aI1588
aI144
aI2942
aI621
aI1822
aI688
aa(lp191
I725
aI3196
aI1522
aI758
aI1528
aI1274
aI2049
aI1635
aa(lp192
I1039
aI7
aI569
aI1236
aI689
aI157
aI576
aI2776
aa(lp193
I1156
aI1119
aI1549
aI234
aI2025
aI2561
aI4
aI1159
aa(lp194
I1539
aI2720
aI1549
aI893
aI576
aI2098
aI2783
aI1359
aI2480
aa(lp195
I912
aI347
aI1226
aI1178
aI903
aI1693
aI1505
aa(lp196
I2090
aI47
aI2709
aI1505
aI1462
aI2157
aI2994
aI2611
aa(lp197
I2013
aI903
aI2994
aI1159
aI576
aI2887
aI688
aI2737
aa(lp198
I3117
aI97
aI461
aI2720
aI2601
aI2658
aI2487
aa(lp199
I1725
aI2524
aI621
aI2955
aI275
aI621
aI2950
aI2790
aa(lp200
I1191
aI725
aI25
aI2720
aI2522
aI576
aI1178
aa(lp201
I869
aI3138
aI2720
aI576
aI233
aI1449
aI1798
aI2955
aI688
aa(lp202
I2364
aI576
aI2157
aI1635
aI920
aI157
aI1505
aI23
aa(lp203
I292
aI1558
aI1322
aI157
aI4
aI1239
aI608
aa(lp204
I1113
aI1252
aI2544
aI2429
aI2994
aI228
aI1635
aa(lp205
I2508
aI157
aI1237
aI1635
aI1066
aI1322
aI3172
aI1635
aa(lp206
I362
aI2950
aI1590
aI1023
aI2508
aI2776
aI2487
aI1023
aI1322
aa(lp207
I570
aI1237
aI1635
aI2840
aI660
aI576
aI2097
aI369
aI586
aI1007
aa(lp208
I1119
aI1505
aI2489
aI1850
aI2278
aI2832
aI2994
aI1159
aI2790
aa(lp209
I570
aI287
aI2952
aI1272
aI1610
aI2998
aI864
aI608
aI576
aa(lp210
I2742
aI157
aI1635
aI145
aI200
aI2994
aI2231
aI1549
aI2892
aa(lp211
I51
aI176
aI1549
aI1042
aI688
aI168
aI682
aI621
aa(lp212
I740
aI157
aI576
aI812
aI1798
aI338
aI224
aI2790
aa(lp213
I2792
aI2457
aI2745
aI1418
aI361
aI157
aI150
aI1635
aa(lp214
I1095
aI2994
aI1274
aI180
aI2516
aI605
aI157
aI224
aI688
aa(lp215
I228
aI1635
aI381
aI1504
aI1798
aI805
aa(lp216
I1171
aI1141
aI452
aI2106
aI157
aI2692
aI1178
aa(lp217
I2096
aI429
aI1128
aI621
aI2776
aI1682
aI1501
aI1096
aa(lp218
I637
aI739
aI576
aI1378
aI224
aI2994
aI967
aI3079
aa(lp219
I1421
aI1505
aI1465
aI621
aI2430
aI1567
aI1159
aa(lp220
I671
aI2308
aI2646
aI1066
aI569
aI3180
aI1716
aI1418
aa(lp221
I1884
aI2642
aI2308
aI671
aI1178
aI671
aI2308
aI2642
aI2790
aa(lp222
I813
aI2249
aI1635
aI687
aI385
aI245
aI1178
aa(lp223
I145
aI2436
aI1635
aI2637
aI2863
aI210
aI576
aI429
aa(lp224
I1866
aI1635
aI3025
aI621
aI2231
aI2308
aI235
aI621
aa(lp225
I228
aI2516
aI2993
aI456
aI1039
aI2231
aI2994
aI180
aI3079
aa(lp226
I1156
aI1161
aI1178
aI1462
aI1549
aI775
aI576
aI1418
aa(lp227
I2878
aI2985
aI157
aI2667
aI907
aI1610
aI2994
aa(lp228
I3013
aI438
aI157
aI1549
aI1657
aI678
aI861
aI1178
aa(lp229
I3030
aI157
aI889
aI1178
aI1999
aI157
aI2983
aI2178
aI1178
aa(lp230
I2832
aI576
aI424
aI1735
aI235
aI1635
aI3044
aI145
aI1034
aa(lp231
I611
aI3187
aI1549
aI2078
aI3044
aI2078
aI3044
aI316
aa(lp232
I944
aI2469
aI1159
aI1178
aI2092
aI2469
aI2544
aI2512
aa(lp233
I1947
aI1114
aI48
aI2013
aI2994
aI1680
aI1549
aa(lp234
I2998
aI1147
aI2141
aI1505
aI949
aI621
aI1635
aI1418
aa(lp235
I1668
aI585
aI1505
aI2326
aI1278
aI2851
aI2994
aa(lp236
I2560
aI2994
aI1118
aI1798
aI1316
aI1505
aI1615
aI621
aI881
aI2994
aa(lp237
I2929
aI2786
aI682
aI157
aI902
aI75
aI252
aI675
aI1549
aI1178
aa(lp238
I397
aI1635
aI2012
aI1725
aI1569
aI954
aI2994
aI967
aI224
aa(lp239
I671
aI2885
aI3078
aI576
aI2072
aI3187
aI2891
aI688
aa(lp240
I2111
aI1369
aI1892
aI1134
aI946
aI2795
aI1403
aI1178
aa(lp241
I2283
aI801
aI1798
aI1316
aI1505
aI512
aI591
aI1940
aI1178
aa(lp242
I620
aI1610
aI1549
aI3162
aI569
aI1835
aI608
aa(lp243
I680
aI1979
aI2765
aI2252
aI2308
aI2994
aI2776
aa(lp244
I2972
aI945
aI946
aI1610
aI1178
aI920
aI1311
aI1533
aI1178
aa(lp245
I1191
aI2998
aI2994
aI2776
aI3187
aI1359
aI1610
aI1178
aa(lp246
I1873
aI2816
aI1178
aI131
aI1798
aI1316
aI3079
aa(lp247
I1725
aI362
aI2516
aI1054
aI920
aI1627
aI682
aI4
aa(lp248
I890
aI1067
aI2776
aI680
aI621
aI1505
aI537
aI2950
aa(lp249
I2212
aI228
aI576
aI222
aI1159
aI757
aI585
aI2790
aa(lp250
I2642
aI2976
aI157
aI125
aI2129
aI578
aa(lp251
I2029
aI2290
aI2988
aI1549
aI2563
aI157
aI2122
aI368
aI1159
aI1418
aa(lp252
I2766
aI1735
aI2412
aI1462
aI2308
aI394
aI1178
aa(lp253
I2747
aI971
aI608
aI1505
aI2596
aI1791
aI1590
aI1364
aa(lp254
I1591
aI621
aI1505
aI471
aI621
aI1549
aI225
aI1765
aa(lp255
I1574
aI35
aI2308
aI3100
aI2297
aI233
aI385
aI1178
aa(lp256
I2440
aI2720
aI688
aI1066
aI920
aI157
aI688
aI225
aI404
aa(lp257
I487
aI2400
aI1505
aI519
aI621
aI2308
aI2663
aa(lp258
I2194
aI2994
aI2765
aI1271
aI2911
aI1798
aI1316
aI1696
aa(lp259
I1725
aI732
aI1549
aI597
aI1995
aI621
aI676
aa(lp260
I1206
aI153
aI621
aI786
aI106
aI1549
aI2185
aa(lp261
I647
aI273
aI1549
aI2905
aI2285
aI126
aa(lp262
I2545
aI1635
aI866
aI1455
aI621
aI101
aI2130
aa(lp263
I786
aI1561
aI2561
aI1501
aI2454
aI562
aI1549
aa(lp264
I63
aI1767
aI2561
aI1458
aI2104
aI621
aI2516
aI1178
aa(lp265
I775
aI2544
aI1549
aI1340
aI1635
aI3039
aI1566
aa(lp266
I2642
aI2061
aI1798
aI2709
aI3106
aI2129
aI3166
aI2793
aa(lp267
I994
aI157
aI1411
aI276
aI176
aI145
aI586
aI1178
aa(lp268
I735
aI157
aI576
aI145
aI3075
aI866
aI1909
aI2480
aI1635
aa(lp269
I100
aI2470
aI2720
aI576
aI546
aI608
aI2523
aa(lp270
I230
aI2129
aI2511
aI621
aI1822
aI1159
aI1542
aI1066
aI1262
aa(lp271
I786
aI1856
aI157
aI1501
aI598
aI621
aI93
aI1635
aa(lp272
I526
aI967
aI2236
aI1798
aI2709
aI1505
aI2997
aI1017
aI792
aI688
aa(lp273
I775
aI621
aI1066
aI2696
aI1178
aI587
aI621
aI525
aI1159
aa(lp274
I1935
aI1704
aI2129
aI2776
aI1159
aI2955
aI1314
aI2297
aI1735
aI792
aa(lp275
I477
aI3124
aI236
aI1178
aI1026
aI2765
aI1586
aa(lp276
I1685
aI1178
aI1483
aI2124
aI1258
aI2186
aI1178
aI866
aa(lp277
I3132
aI17
aI576
aI2173
aI2586
aI2224
aI1178
aa(lp278
I2544
aI576
aI2994
aI60
aI1178
aI1309
aI586
aI487
aI1610
aa(lp279
I1765
aI1549
aI1240
aI608
aI493
aa(lp280
I365
aI608
aI2543
aI1923
aI1999
aI157
aa(lp281
I2098
aI2476
aI608
aI1169
aI1735
aI2476
aI608
aI1571
aa(lp282
I535
aI2297
aI144
aI1729
aI486
aI1159
aI2672
aI145
aI2480
aa(lp283
I235
aI2098
aI2746
aI993
aI2664
aI3081
aa(lp284
I1759
aI145
aI1549
aI429
aI1159
aI226
aI1359
aI2290
aI1023
aa(lp285
I907
aI261
aI2297
aI145
aI2308
aI1815
aI608
aI1411
aa(lp286
I1707
aI235
aI2790
aI569
aI1533
aI2746
aI1729
aI2664
aI576
aa(lp287
I419
aI307
aI1798
aI2173
aI2664
aI576
aI385
aa(lp288
I2984
aI2120
aI946
aI1066
aI1846
aI570
aI385
aI2776
aa(lp289
I600
aI946
aI2516
aI1701
aI2141
aI455
aI570
aI555
aI638
aa(lp290
I600
aI1726
aI843
aI551
aI1798
aI2950
aa(lp291
I1975
aI1505
aI1834
aI429
aI553
aI89
aI2561
aI2096
aI1635
aa(lp292
I419
aI2613
aI1279
aI2308
aI2595
aI3135
aI2994
aI1023
aa(lp293
I2651
aI1178
aI27
aI608
aI1505
aI1782
aI157
aI1610
aI1204
aa(lp294
I2508
aI1515
aI931
aI1515
aI659
aI188
aI3139
aI688
aa(lp295
I1735
aI1515
aI1610
aI1515
aI1610
aI1364
aI1505
aI1196
aI1515
aa(lp296
I2573
aI290
aI429
aI2972
aI608
aI576
aI594
aa(lp297
I1953
aI2544
aI1635
aI834
aI920
aI157
aI586
aI2994
aa(lp298
I833
aI1635
aI468
aI976
aI134
aI157
aI967
aI3079
aa(lp299
I1440
aI157
aI1056
aI727
aI1159
aI128
aI3017
aI2129
aI2182
aa(lp300
I139
aI326
aI1185
aI2141
aI3101
aI1119
aa(lp301
I690
aI1635
aI1821
aI2718
aI35
aI688
aa(lp302
I145
aI576
aI2738
aI578
aI634
aI621
aI1999
aI608
aI936
aI708
aa(lp303
I2283
aI608
aI507
aI1511
aI2388
aI3082
aa(lp304
I228
aI1635
aI997
aI1265
aI1159
aI2748
aI1023
aI3034
aI688
aa(lp305
I2594
aI1670
aI936
aI3017
aI1999
aI608
aI2129
aI1418
aa(lp306
I2484
aI2994
aI1007
aI2143
aI1549
aI27
aI608
aI3079
aI708
aa(lp307
I145
aI1505
aI1961
aI219
aI621
aI1610
aI2092
aI2129
aI1418
aa(lp308
I2813
aI1999
aI3101
aI362
aI1635
aI2547
aI3101
aI362
aI967
aI1680
aa(lp309
I228
aI2547
aI2994
aI1418
aI3101
aI362
aI2790
aI2189
aI1680
aI1178
aa(lp310
I940
aI992
aI2358
aI2480
aI2544
aI688
aI60
aa(lp311
I235
aI2373
aI1505
aI1072
aI3051
aI920
aI682
aI2664
aI1178
aa(lp312
I936
aI1007
aI2994
aI2481
aI2544
aI2308
aI1159
aa(lp313
I907
aI367
aI2129
aI2776
aI228
aI1635
aI2155
aI1159
aa(lp314
I1610
aI225
aI1204
aI628
aI920
aI157
aI2746
aI157
aI1610
aI1204
aa(lp315
I218
aI31
aI2129
aI1169
aI1735
aI224
aI2129
aI1704
aI1680
aa(lp316
I736
aI920
aI758
aI1129
aI2129
aI1159
aI920
aI157
aI920
aI792
aa(lp317
I1735
aI2544
aI31
aI2129
aI218
aI1119
aI737
aI362
aI1610
aa(lp318
I1031
aI920
aI157
aI2129
aI920
aI157
aI688
aI578
aI224
aa(lp319
I2136
aI2129
aI920
aI157
aI688
aI228
aI1308
aI1265
aI2994
aa(lp320
I1358
aI1999
aI608
aI2129
aI578
aI604
aI2297
aI638
aI2790
aa(lp321
I2620
aI1999
aI608
aI1680
aI1505
aI1563
aI2809
aI2308
aa(lp322
I1904
aI68
aI1159
aI939
aI2530
aI1359
aa(lp323
I973
aI608
aI2516
aI760
aI783
aI1567
aI2994
aI1418
aa(lp324
I2551
aI2997
aI1696
aI1035
aI608
aI1178
aI188
aI608
aa(lp325
I2092
aI2129
aI1274
aI2266
aI470
aI1039
aI688
aa(lp326
I2108
aI2297
aI1635
aI124
aI1178
aI2092
aI2129
aI2762
aa(lp327
I2375
aI2297
aI1635
aI124
aI2092
aI2129
aI2061
aa(lp328
I723
aI1918
aI1680
aI1246
aI1642
aI1798
aI1418
aI1178
aa(lp329
I1688
aI2765
aI3133
aI998
aI2689
aI871
aI2945
aI2952
aa(lp330
I136
aI157
aI1610
aI1066
aI569
aI570
aI2689
aI1704
aI2129
aI1159
aa(lp331
I2260
aI2689
aI2736
aI2994
aI469
aI2297
aI1007
aI570
aI638
aI1178
aa(lp332
I2597
aI2042
aI157
aI1505
aI569
aI228
aI4
aI2852
aI1159
aa(lp333
I1266
aI1735
aI145
aI416
aI1159
aI920
aI576
aI3042
aI1798
aa(lp334
I1855
aI1745
aI2952
aI2994
aI2960
aI1469
aI945
aa(lp335
I2689
aI920
aI2994
aI1914
aI2129
aI2325
aI2689
aI920
aI3017
aI2129
aa(lp336
I145
aI2587
aI2852
aI555
aI1023
aI60
aI933
aI157
aI688
aI1178
aa(lp337
I2689
aI2134
aI1635
aI933
aI157
aI688
aI349
aI157
aI928
aa(lp338
I2096
aI467
aI1156
aI362
aI429
aI224
aI198
aI2994
aI2013
aI1418
aa(lp339
I460
aI585
aI2855
aI233
aI2642
aI621
aI1610
aI688
aa(lp340
I228
aI1501
aI2178
aI233
aI662
aI576
aI5
aI2994
aI1418
aI2790
aa(lp341
I2353
aI602
aI576
aI1241
aI2098
aI1241
aI2682
aI1178
aa(lp342
I1241
aI586
aI555
aI237
aI661
aI13
aI2129
aI224
aa(lp343
I1237
aI739
aI742
aI742
aI2301
aI608
aI119
aI3079
aa(lp344
I2594
aI1216
aI536
aI608
aI1549
aI2642
aI2027
aI621
aI1635
aa(lp345
I1023
aI785
aI1806
aI608
aI1156
aI2876
aI1635
aI1418
aa(lp346
I2998
aI1176
aI2979
aI157
aI1505
aI95
aI2351
aI621
aI578
aa(lp347
I735
aI157
aI433
aI1066
aI2826
aI339
aI787
aa(lp348
I665
aI2297
aI119
aI2994
aI1092
aI1505
aI440
aI224
aI688
aa(lp349
I3182
aI3017
aI2129
aI1274
aI1599
aI180
aI2897
aI2516
aa(lp350
I1511
aI868
aI1862
aI157
aI3081
aI224
aI345
aI792
aa(lp351
I228
aI2516
aI757
aI412
aI2860
aI621
aI2983
aa(lp352
I2399
aI1178
aI2099
aI2124
aI2460
aI967
aI2998
aI2477
aI688
aa(lp353
I2297
aI119
aI3133
aI1274
aI1120
aI621
aI1125
aI2950
aI1818
aI2950
aa(lp354
I2168
aI197
aI1178
aI560
aI3077
aI1729
aI3025
aI621
aa(lp355
I1095
aI2994
aI914
aI228
aI1549
aI2124
aI2098
aa(lp356
I664
aI157
aI3025
aI621
aI2998
aI157
aI1127
aI621
aa(lp357
I2650
aI1117
aI2893
aI1549
aI811
aI1364
aa(lp358
I1559
aI2098
aI2390
aI1665
aI1364
aI1418
aI688
aa(lp359
I228
aI1635
aI920
aI1505
aI2683
aI1663
aI576
aa(lp360
I907
aI1729
aI1549
aI3
aI1505
aI3135
aI1417
aI545
aI157
aa(lp361
I2473
aI1549
aI1884
aI2122
aI1635
aI724
aI81
aa(lp362
I738
aI2697
aI1798
aI2955
aI2098
aI973
aI1178
aI1725
aI362
aa(lp363
I2283
aI608
aI1505
aI2320
aI621
aI108
aI1635
aI3079
aa(lp364
I446
aI119
aI2283
aI663
aI608
aI973
aI157
aI1725
aI362
aa(lp365
I674
aI1159
aI1505
aI3093
aI621
aI1725
aI362
aI973
aI157
aa(lp366
I2212
aI3017
aI2078
aI576
aI2129
aI1159
aI2462
aI555
aI973
aI157
aa(lp367
I1156
aI767
aI1549
aI815
aI83
aI2872
aI1798
aa(lp368
I2796
aI1108
aI1159
aI555
aI2525
aI621
aI2790
aa(lp369
I725
aI2949
aI461
aI608
aI2078
aI576
aI877
aI1178
aa(lp370
I333
aI569
aI2935
aI1798
aI973
aI1178
aI1725
aI362
aI2453
aa(lp371
I3025
aI621
aI2240
aI1067
aI1875
aI1850
aI555
aI245
aI1178
aa(lp372
I2178
aI1798
aI688
aI1837
aI569
aI1725
aI362
aI1159
aI1418
aa(lp373
I3036
aI555
aI2338
aI2280
aI1549
aI920
aI576
aI973
aI1515
aa(lp374
I2647
aI555
aI1725
aI157
aI224
aI804
aI946
aI157
aI1549
aa(lp375
I973
aI157
aI765
aI2628
aI2936
aI621
aI1635
aI1178
aa(lp376
I1942
aI1786
aI157
aI569
aI1725
aI362
aI1591
aI317
aa(lp377
I1961
aI1798
aI1769
aI555
aI920
aI1505
aI605
aI2561
aI576
aI1178
aa(lp378
I735
aI157
aI333
aI2994
aI1418
aI2994
aI737
aI1357
aI3079
aa(lp379
I2686
aI1635
aI2090
aI1059
aI22
aI1041
aI245
aa(lp380
I3182
aI2012
aI1845
aI570
aI2514
aI157
aI1635
aI1159
aa(lp381
I524
aI1505
aI2405
aI1211
aI576
aI1473
aI1505
aI2637
aI2516
aa(lp382
I2098
aI1984
aI1186
aI157
aI2157
aI1635
aI2129
aI2790
aa(lp383
I136
aI617
aI157
aI1067
aI1782
aI3082
aI2013
aa(lp384
I1110
aI937
aI362
aI1178
aI2613
aI1505
aI467
aI2129
aa(lp385
I3061
aI2718
aI35
aI1505
aI942
aI621
aI624
aI2092
aa(lp386
I1313
aI1591
aI1159
aI77
aI578
aI1591
aI1159
aI507
aa(lp387
I1936
aI157
aI1501
aI1449
aI228
aI2096
aI2290
aI2994
aI1418
aa(lp388
I1686
aI2177
aI2561
aI1367
aI4
aI920
aI608
aI2950
aI1418
aa(lp389
I2669
aI859
aI2308
aI2991
aI1159
aI1635
aI2363
aa(lp390
I1672
aI729
aI394
aI2129
aI1418
aI1591
aI1159
aI507
aa(lp391
I1725
aI1119
aI1685
aI1159
aI1549
aI145
aI196
aI2992
aI1178
aa(lp392
I737
aI570
aI1118
aI621
aI2516
aI3146
aI920
aI1418
aa(lp393
I2774
aI104
aI1505
aI2049
aI2140
aI2290
aa(lp394
I735
aI621
aI1501
aI812
aI2994
aI429
aI1877
aI3079
aa(lp395
I1013
aI1227
aI2892
aI157
aI370
aI2994
aI1680
aI1418
aa(lp396
I1189
aI1635
aI631
aI1159
aI1178
aI1360
aI1159
aI1912
aI555
aa(lp397
I349
aI608
aI2516
aI2021
aI2098
aI1273
aI621
aI180
aI1781
aa(lp398
I2111
aI157
aI1549
aI51
aI145
aI298
aI1159
aI1915
aI621
aa(lp399
I145
aI576
aI1881
aI1159
aI2838
aI1635
aI1501
aI1444
aI2671
aa(lp400
I3038
aI868
aI1203
aI621
aI2507
aI2278
aI2308
aI578
aI2950
aa(lp401
I228
aI2516
aI3135
aI1417
aI1428
aI1066
aI2736
aI382
aI2561
aa(lp402
I1452
aI1245
aI621
aI1745
aI920
aI157
aI967
aI2960
aa(lp403
I1428
aI2994
aI228
aI2516
aI1418
aI415
aI2351
aI157
aI1505
aa(lp404
I2899
aI145
aI200
aI2994
aI2826
aI2793
aI2092
aI2129
aI1274
aI2516
aa(lp405
I2767
aI792
aI569
aI788
aI1505
aI1378
aI2994
aI998
aa(lp406
I2049
aI224
aI1915
aI1590
aI157
aI2952
aI1745
aI1680
aI708
aa(lp407
I1245
aI2790
aI369
aI967
aI763
aI2893
aI1418
aa(lp408
I204
aI621
aI1501
aI841
aI385
aI2843
aI2994
aI2826
aI224
aa(lp409
I3038
aI2994
aI2290
aI1117
aI792
aI1428
aI1816
aI576
aa(lp410
I2890
aI1523
aI13
aI424
aI621
aI2950
aI2994
aI1567
aI1023
aa(lp411
I1250
aI2959
aI2141
aI2561
aI1635
aI2078
aI2813
aI967
aa(lp412
I2492
aI1757
aI35
aI1066
aI2952
aI3133
aI2776
aI621
aa(lp413
I1809
aI1269
aI1505
aI2139
aI2048
aI621
aI2015
aI688
aa(lp414
I3090
aI1023
aI1178
aI65
aI1023
aI2707
aI2098
aI124
aa(lp415
I2091
aI1086
aI1134
aI1159
aI576
aI1795
aI1269
aI1892
aa(lp416
I2098
aI3144
aI2458
aI233
aI27
aI1505
aI2036
aI3044
aa(lp417
I1177
aI621
aI576
aI1186
aI62
aI1515
aa(lp418
I3135
aI1588
aI2098
aI2627
aI95
aI1528
aI569
aI1680
aa(lp419
I2877
aI1588
aI1501
aI237
aI1841
aI1505
aI1143
aI1159
aa(lp420
I1806
aI235
aI235
aI35
aI4
aI235
aI35
aI1892
aa(lp421
I1481
aI661
aI35
aI967
aI235
aI2790
aI1588
aI1178
aa(lp422
I2567
aI621
aI1178
aI1960
aI2932
aa(lp423
I1588
aI189
aI1516
aI76
aI569
aa(lp424
I2091
aI188
aI1505
aI2092
aI1610
aI2223
aI1583
aI1501
aa(lp425
I75
aI2936
aI2098
aI56
aI1098
aI576
aI1588
aI1178
aa(lp426
I369
aI2061
aI188
aI555
aI1735
aI536
aI3079
aI708
aa(lp427
I936
aI555
aI2651
aI2776
aI1295
aI2141
aI1159
aI2308
aa(lp428
I1572
aI570
aI486
aI2197
aI2790
aI461
aI2615
aI1436
aI621
aa(lp429
I940
aI570
aI576
aI555
aI2776
aI2188
aI2141
aI1159
aI688
aa(lp430
I1267
aI1798
aI1568
aI2950
aI1696
aI2765
aI2977
aI2586
aI621
aa(lp431
I1586
aI621
aI1505
aI2425
aI1233
aI621
aI2950
aa(lp432
I246
aI2950
aI2279
aI1178
aI1026
aI2709
aI1501
aI280
aa(lp433
I1306
aI1529
aI3074
aI2720
aI1343
aI1438
aI1418
aa(lp434
I2679
aI2052
aI621
aI1069
aI1762
aI1066
aa(lp435
I2440
aI2705
aI2544
aI2805
aI2290
aI3137
aI1505
aa(lp436
I372
aI1364
aI576
aI1241
aI1735
aI2309
aI2290
aI1588
aI2790
aa(lp437
I1591
aI2857
aI1549
aI2882
aI1502
aI2555
aI1169
aa(lp438
I2941
aI2916
aI2290
aI738
aI627
aI1418
aa(lp439
I1356
aI1505
aI150
aI621
aI2668
aI913
aI330
aI1178
aa(lp440
I695
aI2290
aI2168
aI874
aI677
aI1069
aI999
aI2561
aI1346
aI1069
aa(lp441
I943
aI1528
aI1505
aI2873
aI1088
aI621
aa(lp442
I469
aI1066
aI570
aI2297
aI50
aI608
aI299
aI920
aI2141
aa(lp443
I9
aI1169
aI2297
aI910
aI2826
aI2229
aI608
aa(lp444
I2370
aI569
aI14
aI2308
aI819
aI2790
aI2776
aa(lp445
I1845
aI1633
aI2561
aI576
aI2262
aI573
aa(lp446
I1577
aI2129
aI819
aI3081
aI2129
aI2297
aI920
aI1023
aa(lp447
I616
aI1549
aI198
aI233
aI998
aI60
aI1156
aI781
aI608
aa(lp448
I2087
aI1066
aI429
aI1178
aI1578
aI2096
aI573
aa(lp449
I247
aI3046
aI1798
aI1549
aI920
aI1505
aI439
aI621
aa(lp450
I2877
aI2790
aI429
aI2994
aI2826
aI1680
aI2978
aI1528
aI1417
aa(lp451
I664
aI1528
aI1505
aI169
aI1178
aI1701
aI621
aI2983
aa(lp452
I2233
aI1635
aI1610
aI2955
aI1591
aI2891
aI792
aI2765
aI2994
aa(lp453
I1173
aI1588
aI998
aI429
aI1635
aI2324
aI1069
aa(lp454
I1757
aI2825
aI621
aI2333
aI2994
aI1460
aI1069
aa(lp455
I1588
aI688
aI1684
aI621
aI2585
aI732
aI157
aI2994
aI2611
aa(lp456
I966
aI1840
aI1505
aI343
aI621
aI1125
aI1069
aa(lp457
I2779
aI2412
aI1073
aI1528
aI2254
aI2765
aI1588
aI1418
aa(lp458
I2978
aI1528
aI1127
aI145
aI3135
aI1159
aI2502
aI267
aI1159
aa(lp459
I1809
aI1505
aI169
aI1528
aI2553
aI2998
aI576
aI2826
aI2994
aa(lp460
I57
aI1635
aI1701
aI1505
aI2542
aI591
aI599
aI1528
aI2955
aI1515
aa(lp461
I435
aI1528
aI3182
aI1635
aI722
aI3199
aI1528
aI1417
aa(lp462
I86
aI1528
aI2955
aI1417
aI1826
aI145
aI2480
aI708
aa(lp463
I68
aI1528
aI1505
aI1840
aI1868
aI591
aa(lp464
I1386
aI245
aI772
aI1122
aI1635
aI1140
aI112
aI1178
aa(lp465
I1734
aI1505
aI1588
aI2753
aI1411
aa(lp466
I569
aI2776
aI1159
aI2790
aI75
aI2017
aI2297
aI1533
aI578
aa(lp467
I2920
aI1160
aI2664
aI2098
aI3079
aI218
aI533
aI4
aa(lp468
I1231
aI2838
aI1670
aI688
aI2759
aI2776
aa(lp469
I553
aI1633
aI1798
aI1505
aI518
aI2923
aI621
aa(lp470
I2178
aI1598
aI1798
aI1549
aI2691
aI2873
aI1159
aI708
aa(lp471
I1685
aI621
aI1505
aI1479
aI1952
aI3037
aI1505
aI60
aa(lp472
I3171
aI673
aI2278
aI576
aI1522
aI1528
aI145
aI1237
aa(lp473
I1935
aI737
aI337
aI576
aI1127
aI2955
aI361
aI1892
aa(lp474
I1805
aI480
aI621
aI2008
aI586
aI1130
aI621
aI2950
aI3044
aa(lp475
I1013
aI2720
aI1635
aI454
aI3149
aI2664
aI429
aI1023
aa(lp476
I218
aI896
aI2776
aI1159
aI1549
aI1120
aI1402
aI245
aa(lp477
I262
aI429
aI1927
aI1610
aI2231
aI1596
aI576
aa(lp478
I2594
aI1505
aI1055
aI621
aI576
aI2412
aI1132
aa(lp479
I290
aI1417
aI2797
aI2360
aI1635
aI1847
aa(lp480
I733
aI3138
aI2561
aI1621
aI2186
aI1292
aa(lp481
I2190
aI667
aI2561
aI1067
aI555
aI654
aI1159
aI1591
aI1178
aa(lp482
I1141
aI2692
aI2826
aI1522
aI608
aI2952
aI608
aI570
aI569
aa(lp483
I671
aI2892
aI621
aI1635
aI452
aI1877
aI157
aa(lp484
I1496
aI2297
aI2826
aI3170
aI157
aI664
aI2129
aI3017
aa(lp485
I2283
aI157
aI2387
aI429
aI228
aI1635
aI3044
aI237
aI2182
aa(lp486
I228
aI2516
aI2077
aI2129
aI1159
aI439
aI608
aI570
aI569
aa(lp487
I1195
aI1635
aI1834
aI157
aI1056
aI3066
aI2516
aI180
aI1023
aa(lp488
I145
aI576
aI1701
aI346
aI1178
aI2980
aI2668
aI2049
aI1635
aa(lp489
I731
aI608
aI1505
aI2600
aI1178
aI944
aI621
aa(lp490
I1725
aI362
aI1610
aI2133
aI1724
aI1505
aI2582
aa(lp491
I1961
aI35
aI157
aI1610
aI1178
aI963
aI157
aI1610
aI1178
aa(lp492
I2071
aI792
aI569
aI1533
aI2582
aI2544
aI688
aI1178
aa(lp493
I973
aI157
aI576
aI1833
aI2127
aI1023
aI569
aI570
aa(lp494
I362
aI2950
aI569
aI557
aI1023
aI786
aI792
aI3183
aa(lp495
I2542
aI2709
aI1505
aI2651
aI792
aI758
aI1023
aI2237
aI792
aa(lp496
I2930
aI429
aI27
aI3101
aI362
aI1999
aI157
aI688
aI1178
aa(lp497
I926
aI3086
aI1610
aI576
aI3025
aI1610
aI2994
aI2950
aa(lp498
I1067
aI1567
aI2994
aI2950
aI2297
aI2290
aI920
aI157
aI507
aa(lp499
I929
aI1178
aI3035
aI599
aI787
aI2786
aI1549
aa(lp500
I1374
aI2561
aI899
aI1178
aI1794
aI2561
aI1779
aI2765
aI1701
aI1418
aa(lp501
I1731
aI2317
aI2561
aI1418
aI2312
aI1178
aI2596
aI1549
aa(lp502
I671
aI1714
aI1112
aI1635
aI1501
aI2723
aI4
aa(lp503
I1965
aI3193
aI1067
aI2627
aI2604
aI1359
aI1610
aI1178
aa(lp504
I2283
aI1505
aI2668
aI801
aI1515
aI2121
aI2098
aa(lp505
I2276
aI2561
aI1505
aI1250
aI621
aI472
aI1566
aa(lp506
I1199
aI599
aI1509
aI2786
aI2308
aI2194
aI2765
aI2994
aI1418
aa(lp507
I2404
aI1191
aI1667
aI1505
aI883
aI3047
aI621
aa(lp508
I2884
aI2096
aI2994
aI950
aI2909
aI783
aI1418
aa(lp509
I1553
aI2697
aI1635
aI2978
aI282
aI1595
aI1178
aa(lp510
I3128
aI614
aI781
aI621
aI2194
aI2765
aI2994
aI1418
aa(lp511
I1805
aI621
aI1505
aI1448
aI621
aI1501
aI854
aa(lp512
I1055
aI2583
aI621
aI1505
aI2503
aI1732
aI2163
aI621
aI1178
aa(lp513
I1953
aI1549
aI3042
aI1178
aI3042
aI1549
aI1953
aI445
aa(lp514
I2099
aI1097
aI1069
aI412
aI1069
aI1502
aI1069
aI1595
aI1892
aa(lp515
I1490
aI2720
aI2095
aI1968
aI1187
aI2790
aa(lp516
I1108
aI1798
aI142
aI188
aI2290
aI1553
aI2544
aI1549
aI3079
aa(lp517
I1593
aI1798
aI1169
aI2799
aI792
aI569
aI1713
aI13
aa(lp518
I2668
aI142
aI1343
aI165
aI1438
aI2290
aI3079
aI708
aa(lp519
I296
aI938
aI1505
aI1103
aI818
aI621
aI507
aa(lp520
I2636
aI1023
aI1066
aI2098
aI2069
aI241
aI1418
aa(lp521
I2662
aI1591
aI2790
aI1706
aI1023
aI2735
aI1505
aI2040
aI1069
aa(lp522
I2082
aI2994
aI2122
aI1981
aI688
aI1364
aI1610
aI1549
aI51
aa(lp523
I681
aI2758
aI1798
aI2398
aI3175
aI1635
aI2950
aa(lp524
I2743
aI576
aI2649
aI2017
aI1780
aI1178
aa(lp525
I431
aI528
aI2310
aI1287
aI1178
aa(lp526
I2318
aI1420
aI903
aI2052
aI1178
aa(lp527
I852
aI2700
aI956
aI384
aI1178
aa(lp528
I1792
aI2089
aI2839
aI674
aI1178
aa(lp529
I1819
aI26
aI1377
aI2308
aI374
aI1178
aa(lp530
I940
aI3133
aI2826
aI2535
aI1549
aI882
aI1564
aa(lp531
I1718
aI1964
aI718
aI2561
aI1549
aI1178
aa(lp532
I1463
aI2826
aI854
aI2078
aI2308
aI2582
aI1159
aa(lp533
I2661
aI2561
aI1549
aI1999
aI570
aI1328
aI1178
aa(lp534
I2223
aI2561
aI463
aI2804
aI2756
aI2826
aI2793
aa(lp535
I358
aI1088
aI2561
aI1505
aI1926
aI680
aI455
aI1178
aa(lp536
I370
aI177
aI188
aI1590
aI2826
aI2793
aa(lp537
I758
aI569
aI1436
aI2561
aI1892
aI661
aI1505
aI1586
aa(lp538
I1667
aI296
aI1505
aI1003
aI621
aI2223
aI2561
aI569
aI2960
aa(lp539
I1067
aI429
aI1168
aI2950
aI817
aI1178
aI2164
aI188
aI1418
aa(lp540
I681
aI1176
aI461
aI1505
aI1823
aI2770
aI1364
aI218
aa(lp541
I1374
aI1088
aI1798
aI1501
aI2831
aI2841
aI1515
aa(lp542
I680
aI621
aI1505
aI2685
aI106
aI621
aI218
aa(lp543
I472
aI1489
aI1176
aI2076
aI1505
aI674
aI621
aa(lp544
I740
aI2923
aI1501
aI545
aI2923
aI1798
aI940
aI1635
aa(lp545
I2166
aI317
aI3135
aI856
aI680
aI780
aI154
aa(lp546
I2855
aI555
aI1725
aI121
aI621
aI1159
aI228
aI1505
aI2972
aI1359
aa(lp547
I426
aI967
aI620
aI1505
aI2998
aI621
aI1159
aI2017
aI976
aa(lp548
I2155
aI1159
aI228
aI936
aI832
aI1505
aI566
aI621
aI1983
aI1610
aa(lp549
I2919
aI501
aI2950
aI1023
aI60
aI2651
aI2097
aI41
aa(lp550
I290
aI569
aI2547
aI2102
aI1549
aI2960
aI2102
aI608
aa(lp551
I3101
aI1119
aI1023
aI228
aI936
aI1159
aI1983
aI1385
aI1359
aI2790
aa(lp552
I2190
aI2547
aI2544
aI429
aI1565
aI3025
aI576
aa(lp553
I1089
aI4
aI1725
aI621
aI1169
aI456
aI816
aI2308
aa(lp554
I1986
aI608
aI2297
aI1066
aI2290
aI604
aI2092
aI2129
aI1159
aa(lp555
I461
aI621
aI638
aI77
aI737
aI1342
aI1404
aI688
aa(lp556
I895
aI569
aI188
aI1505
aI1295
aI621
aa(lp557
I560
aI17
aI3068
aI576
aI2137
aI1159
aI2456
aI1798
aa(lp558
I2134
aI2790
aI555
aI2361
aI1850
aI2297
aI2129
aI1023
aa(lp559
I1591
aI1505
aI3029
aI1417
aI2633
aI621
aI27
aI608
aa(lp560
I920
aI555
aI1529
aI17
aI621
aI2403
aI2586
aI688
aa(lp561
I1268
aI2624
aI1921
aI1798
aI1804
aI2129
aI1178
aa(lp562
I680
aI1567
aI2994
aI1418
aI145
aI688
aI858
aI820
aI792
aa(lp563
I2365
aI2378
aI1885
aI621
aI752
aI2290
aI1588
aI1169
aa(lp564
I3022
aI1567
aI2994
aI1159
aI1458
aI621
aI1635
aI1124
aI936
aa(lp565
I327
aI1635
aI1617
aI669
aI1549
aI1458
aI15
aI2544
aI2516
aa(lp566
I1066
aI1019
aI2350
aI2544
aI1451
aI1588
aI578
aI2386
aa(lp567
I1023
aI1588
aI920
aI2994
aI688
aI570
aI2598
aI1159
aI599
aI621
aa(lp568
I256
aI2297
aI119
aI605
aI2141
aI1528
aI576
aI2994
aI1159
aa(lp569
I2111
aI1588
aI586
aI2826
aI224
aI145
aI1501
aI1435
aI578
aa(lp570
I1814
aI1635
aI1588
aI2220
aI2826
aI1458
aI621
aI3004
aI708
aa(lp571
I920
aI2826
aI1588
aI1159
aI145
aI576
aI2164
aI1239
aI1680
aa(lp572
I1106
aI145
aI12
aI920
aI682
aI2122
aI157
aI189
aa(lp573
I932
aI3082
aI2017
aI967
aI145
aI576
aI1588
aI688
aa(lp574
I2212
aI2432
aI2278
aI3153
aI119
aI1588
aI2780
aa(lp575
I2398
aI3101
aI362
aI1169
aI145
aI688
aI1735
aI429
aI1635
aa(lp576
I2994
aI971
aI2983
aI2547
aI1735
aI280
aI1178
aa(lp577
I2676
aI789
aI119
aI2651
aI2064
aI1169
aa(lp578
I3175
aI145
aI576
aI1129
aI2129
aI1086
aI1505
aI1591
aI1159
aa(lp579
I280
aI429
aI2520
aI1515
aI1756
aI1515
aI97
aI2
aI1418
aa(lp580
I1038
aI621
aI507
aI2863
aI2776
aI2879
aI1359
aI2983
aa(lp581
I266
aI1040
aI2141
aI621
aI1838
aI1274
aI1506
aI1285
aI2097
aa(lp582
I2642
aI2709
aI1505
aI1068
aI621
aI2196
aI2129
aI145
aI576
aa(lp583
I1340
aI621
aI576
aI279
aI1230
aI189
aI2950
aa(lp584
I472
aI1204
aI555
aI671
aI1256
aI2308
aI1178
aI2308
aI2776
aa(lp585
I1421
aI576
aI1610
aI1278
aI1619
aI1159
aI1999
aI2923
aI3078
aa(lp586
I2150
aI1509
aI1159
aI1418
aI1114
aI2297
aI2790
aa(lp587
I472
aI145
aI1137
aI2290
aI413
aI1610
aI1411
aa(lp588
I537
aI2278
aI2350
aI2544
aI576
aI4
aI545
aI157
aa(lp589
I3182
aI2290
aI228
aI1549
aI1039
aI581
aI688
aI2776
aa(lp590
I1293
aI3017
aI2129
aI2544
aI658
aI2129
aI1418
aa(lp591
I228
aI1635
aI1133
aI737
aI1961
aI1645
aI621
aa(lp592
I2155
aI2561
aI569
aI2776
aI412
aI2790
aI2765
aI967
aI412
aI621
aa(lp593
I145
aI1505
aI1961
aI219
aI621
aI1119
aI569
aI439
aI157
aa(lp594
I545
aI1635
aI1854
aI2950
aI605
aI157
aI1635
aI1588
aI2098
aI1023
aa(lp595
I1244
aI621
aI1635
aI2098
aI1990
aI1105
aI2950
aI1515
aa(lp596
I2268
aI2709
aI142
aI2994
aI1588
aI1505
aI2381
aI621
aI688
aI1178
aa(lp597
I1876
aI569
aI931
aI2561
aI1178
aI2485
aI1798
aI2167
aI2950
aa(lp598
I2130
aI1178
aI409
aI1569
aI2950
aI1226
aI1067
aa(lp599
I1250
aI2561
aI455
aI2952
aI2404
aI319
aI621
aI2835
aa(lp600
I907
aI1588
aI1549
aI2297
aI1635
aI467
aI2570
aI1067
aa(lp601
I1809
aI157
aI2096
aI1007
aI1458
aI621
aI1159
aI102
aI224
aa(lp602
I25
aI75
aI1505
aI2032
aI1023
aI1440
aI157
aI569
aI2793
aa(lp603
I909
aI874
aI1515
aI3181
aI2516
aI180
aI1023
aa(lp604
I1201
aI115
aI1066
aI2994
aI429
aI1591
aI621
aI1549
aI2793
aa(lp605
I1841
aI1291
aI1635
aI1178
aI728
aI668
aI1635
aa(lp606
I1385
aI621
aI77
aI235
aI1610
aI1039
aI2994
aI997
aI2793
aa(lp607
I1397
aI1919
aI1798
aI576
aI1670
aI2692
aI1178
aa(lp608
I1072
aI157
aI127
aI2958
aI555
aI860
aI35
aI1159
aa(lp609
I703
aI868
aI233
aI1274
aI1178
aI659
aI2720
aI3043
aa(lp610
I495
aI2604
aI608
aI3079
aI228
aI1237
aI2952
aI137
aI608
aa(lp611
I2929
aI3149
aI2891
aI608
aI3079
aI387
aI608
aa(lp612
I2838
aI2952
aI1422
aI359
aI608
aI97
aI1410
aI1364
aa(lp613
I1563
aI2129
aI1129
aI1333
aI2544
aI3171
aI2544
aI1505
aI1178
aa(lp614
I1237
aI1264
aI2952
aI137
aI608
aI2776
aI2312
aI621
aa(lp615
I943
aI228
aI936
aI2952
aI2424
aI2648
aI1505
aa(lp616
I3038
aI1129
aI1536
aI1802
aI2169
aI608
aI2308
aI2129
aa(lp617
I803
aI1635
aI2880
aI1771
aI2786
aa(lp618
I134
aI157
aI688
aI228
aI1289
aI2994
aI2765
aI3000
aI1023
aa(lp619
I1440
aI157
aI576
aI891
aI461
aI2709
aI1876
aI1178
aa(lp620
I2514
aI157
aI274
aI4
aI1574
aI2418
aI35
aI2950
aa(lp621
I1425
aI2812
aI2720
aI228
aI22
aI1178
aa(lp622
I2484
aI1635
aI2559
aI1501
aI2748
aI621
aI255
aI1159
aI1156
aI1119
aa(lp623
I959
aI1635
aI2303
aI492
aI1877
aI1178
aa(lp624
I1228
aI2708
aI621
aI1635
aI331
aI2282
aI2765
aa(lp625
I2138
aI1970
aI1798
aI1964
aI283
aI1178
aa(lp626
I565
aI608
aI2983
aI736
aI868
aI907
aI2994
aI2611
aa(lp627
I1964
aI2762
aI608
aI1610
aI644
aI907
aI1440
aI157
aa(lp628
I2246
aI2098
aI1773
aI557
aI157
aI1067
aI2790
aa(lp629
I1120
aI3025
aI1569
aI936
aI555
aI134
aI3173
aI157
aI1178
aa(lp630
I1185
aI541
aI608
aI920
aI2141
aI2200
aI2994
aa(lp631
I1574
aI1442
aI1798
aI1505
aI1991
aI621
aI2313
aa(lp632
I833
aI555
aI2928
aI608
aI228
aI1505
aI1680
aI638
aa(lp633
I1578
aI228
aI570
aI720
aI1178
aI1505
aI228
aI1251
aI3133
aa(lp634
I997
aI429
aI1588
aI1505
aI2994
aI1418
aI717
aI2994
aI3079
aI708
aa(lp635
I1072
aI1528
aI2514
aI555
aI439
aI219
aI1798
aI2117
aa(lp636
I1845
aI2561
aI1610
aI1576
aI1860
aI2547
aI621
aI576
aI1178
aa(lp637
I1379
aI1528
aI1505
aI1153
aI1290
aI145
aI586
aI1635
aa(lp638
I569
aI614
aI621
aI2950
aI1171
aI27
aI1528
aI1892
aI2790
aa(lp639
I2838
aI555
aI473
aI2934
aI621
aI2950
aI612
aI621
aa(lp640
I2561
aI1635
aI180
aI1048
aI2101
aI1827
aI157
aa(lp641
I890
aI1259
aI555
aI1055
aI3070
aI1528
aI1501
aa(lp642
I586
aI1635
aI958
aI1528
aI940
aI2290
aI2994
aI1515
aa(lp643
I2470
aI1567
aI412
aI576
aI2994
aI1418
aI125
aI1588
aI1515
aa(lp644
I1204
aI1265
aI2122
aI943
aI1528
aI2698
aI2516
aa(lp645
I2131
aI2297
aI2952
aI1961
aI245
aI145
aI576
aI3081
aa(lp646
I2765
aI2290
aI545
aI3063
aI2698
aI2516
aI1072
aI1528
aa(lp647
I869
aI144
aI1458
aI621
aI1610
aI1635
aI1559
aI2412
aI2994
aI385
aa(lp648
I393
aI2086
aI1798
aI2790
aI145
aI1270
aI967
aI412
aI621
aa(lp649
I2212
aI2290
aI1156
aI1161
aI576
aI1188
aI1588
aI1418
aa(lp650
I134
aI157
aI1635
aI2850
aI1066
aI1172
aI2129
aI2200
aI2994
aa(lp651
I2609
aI3104
aI1411
aI1129
aI124
aI1178
aa(lp652
I2514
aI182
aI2776
aI2840
aI974
aI621
aa(lp653
I3171
aI35
aI1351
aI468
aI461
aI2720
aI1505
aa(lp654
I358
aI576
aI2950
aI2820
aI576
aI461
aI2950
aI2092
aI2129
aa(lp655
I2547
aI157
aI1668
aI3147
aI1798
aI27
aI608
aI2003
aa(lp656
I770
aI370
aI1635
aI2754
aI2092
aI124
aI1178
aa(lp657
I296
aI531
aI621
aI1505
aI2151
aI162
aI2278
aa(lp658
I2767
aI2804
aI868
aI1588
aI1159
aI2467
aI83
aI2994
aa(lp659
I2091
aI2804
aI792
aI461
aI1528
aI1635
aI124
aI1178
aa(lp660
I3058
aI868
aI1588
aI1876
aI2994
aI2998
aI1515
aI1876
aI2994
aa(lp661
I498
aI629
aI1798
aI1505
aI1663
aI2032
aI1159
aa(lp662
I441
aI1528
aI576
aI1938
aI2994
aI2765
aI124
aI1178
aa(lp663
I1237
aI1845
aI2997
aI1715
aI1417
aI1999
aI1528
aI1588
aI1159
aa(lp664
I1800
aI326
aI1313
aI555
aI59
aI360
aI1798
aI180
aI3079
aa(lp665
I1016
aI555
aI1588
aI576
aI27
aI1680
aI27
aI1505
aI1153
aa(lp666
I1735
aI1189
aI967
aI2776
aI2013
aI877
aI1159
aI570
aI569
aI2783
aa(lp667
I1588
aI2098
aI907
aI1588
aI1159
aI2547
aI424
aI2544
aI1169
aa(lp668
I1953
aI621
aI569
aI2355
aI1094
aI13
aI576
aa(lp669
I1967
aI2900
aI1528
aI1274
aI158
aI2826
aI2776
aa(lp670
I327
aI555
aI1574
aI1159
aI2321
aI1811
aI3071
aa(lp671
I3138
aI1661
aI2278
aI1066
aI3055
aI468
aI2561
aI1635
aI1159
aa(lp672
I127
aI967
aI3133
aI578
aI1588
aI1505
aI2496
aI1159
aI3133
aI2790
aa(lp673
I2329
aI2561
aI175
aI1023
aI1588
aI2098
aI1588
aI1159
aa(lp674
I1039
aI2689
aI2575
aI2143
aI576
aI134
aI1290
aI157
aa(lp675
I2067
aI1082
aI2547
aI1528
aI1505
aI691
aI2182
aa(lp676
I59
aI106
aI1549
aI337
aI2720
aI404
aa(lp677
I2348
aI1046
aI621
aI1610
aI2308
aI160
aI2891
aI1178
aa(lp678
I2840
aI1850
aI997
aI3025
aI2611
aI605
aI1850
aI1125
aI2994
aa(lp679
I1294
aI2082
aI1039
aI904
aI3174
aI3044
aI1178
aa(lp680
I1142
aI439
aI2773
aI1159
aI887
aI35
aI1635
aa(lp681
I1574
aI726
aI2997
aI1505
aI742
aI3102
aI576
aa(lp682
I1440
aI2487
aI2561
aI1505
aI473
aI1696
aI1226
aI621
aI570
aI737
aa(lp683
I1588
aI2891
aI326
aI1610
aI1505
aI42
aI621
aI688
aI722
aa(lp684
I32
aI2848
aI157
aI576
aI605
aI2956
aI157
aI868
aI1159
aa(lp685
I1967
aI233
aI2205
aI1694
aI621
aI2590
aI2720
aI969
aa(lp686
I997
aI1635
aI255
aI2103
aI2308
aI439
aI2561
aI570
aI737
aa(lp687
I680
aI145
aI1447
aI1159
aI1037
aI2697
aI1798
aI72
aa(lp688
I671
aI2308
aI643
aI2561
aI1069
aI3133
aI2881
aI792
aa(lp689
I755
aI1440
aI157
aI565
aI2078
aI2466
aa(lp690
I2704
aI157
aI688
aI682
aI326
aI2092
aI2129
aI1084
aa(lp691
I1722
aI608
aI1914
aI2129
aI1542
aI3044
aI1178
aa(lp692
I2937
aI228
aI1154
aI27
aI608
aI1505
aI49
aI621
aa(lp693
I206
aI1610
aI2098
aI228
aI576
aI2448
aI157
aa(lp694
I16
aI608
aI2308
aI2790
aI228
aI142
aI2994
aI429
aI3079
aI688
aa(lp695
I350
aI157
aI569
aI1274
aI2740
aI1159
aI688
aI1178
aa(lp696
I660
aI569
aI145
aI576
aI667
aI461
aI2544
aI1505
aI2677
aI621
aa(lp697
I1329
aI569
aI1578
aI748
aI584
aI157
aI1023
aI1178
aa(lp698
I2594
aI145
aI2091
aI1635
aI1534
aI2297
aI394
aI2129
aI1418
aa(lp699
I481
aI1505
aI1725
aI621
aI576
aI1239
aI157
aI1120
aI1178
aa(lp700
I733
aI1664
aI1999
aI157
aI507
aI249
aI608
aI2983
aa(lp701
I431
aI2092
aI2129
aI385
aI2432
aI228
aI932
aI1178
aa(lp702
I1461
aI467
aI1417
aI265
aI3101
aI362
aI1549
aa(lp703
I2329
aI1798
aI724
aI2091
aI967
aI2994
aI1961
aI608
aI2983
aa(lp704
I1766
aI1567
aI2994
aI2205
aI2306
aI1309
aI1505
aa(lp705
I3138
aI536
aI2503
aI394
aI145
aI698
aI576
aI2129
aI1159
aa(lp706
I505
aI2278
aI688
aI145
aI1304
aI3166
aI2129
aI1159
aI1189
aa(lp707
I1452
aI1159
aI2983
aI2913
aI2952
aI2994
aI1178
aa(lp708
I2964
aI2952
aI2179
aI2994
aI1178
aI1746
aI157
aI1505
aI526
aa(lp709
I1681
aI792
aI969
aI2140
aI608
aI507
aa(lp710
I506
aI1023
aI1065
aI145
aI775
aI920
aI1066
aI2273
aI2129
aa(lp711
I909
aI2128
aI2983
aI742
aI1798
aI2091
aI1635
aa(lp712
I2952
aI608
aI2117
aI775
aI1999
aI157
aI1664
aI2950
aa(lp713
I1841
aI2178
aI1178
aI215
aI2288
aI2952
aI2994
aa(lp714
I1067
aI77
aI578
aI2947
aI2129
aI1418
aI145
aI11
aI224
aa(lp715
I2968
aI1635
aI1834
aI157
aI1869
aI569
aI1458
aI621
aI2182
aI1067
aa(lp716
I915
aI145
aI586
aI1462
aI1505
aI419
aI621
aI1549
aI82
aa(lp717
I208
aI1569
aI688
aI576
aI1075
aI1066
aI429
aI1178
aa(lp718
I2888
aI2544
aI2149
aI4
aI973
aI157
aI1418
aI1066
aI429
aI1564
aa(lp719
I2111
aI1400
aI1798
aI1505
aI2690
aI621
aI576
aI1313
aa(lp720
I2227
aI2377
aI1798
aI671
aI2419
aI1798
aI1066
aI936
aa(lp721
I2170
aI2564
aI1798
aI2668
aI3092
aI1635
aa(lp722
I3015
aI2720
aI576
aI2278
aI659
aI2720
aI576
aI3138
aI2278
aa(lp723
I50
aI2745
aI2720
aI576
aI2278
aI931
aI2720
aI576
aI2278
aa(lp724
I506
aI1788
aI385
aI1225
aI2720
aI576
aI2278
aa(lp725
I1941
aI2720
aI576
aI2278
aI1335
aI1178
aI323
aI2720
aI576
aI2278
aa(lp726
I1809
aI2775
aI2561
aI4
aI921
aI35
aI1178
aa(lp727
I1421
aI621
aI72
aI2887
aI1798
aI2135
aI570
aI2205
aa(lp728
I3154
aI157
aI1066
aI2098
aI534
aI1364
aI2790
aa(lp729
I467
aI2933
aI235
aI576
aI219
aI2994
aI1364
aI1610
aa(lp730
I472
aI1999
aI608
aI455
aI1635
aI1651
aI608
aI429
aI2790
aa(lp731
I362
aI278
aI2092
aI2129
aI545
aI1505
aI1071
aI688
aa(lp732
I3182
aI2952
aI920
aI608
aI1169
aI820
aI792
aI545
aI1178
aa(lp733
I1119
aI1505
aI920
aI1159
aI2983
aI465
aI570
aI688
aa(lp734
I939
aI1505
aI1651
aI621
aI885
aI1635
aI1066
aI2994
aI2767
aI224
aa(lp735
I1013
aI4
aI545
aI157
aI225
aI1505
aI1947
aI621
aI576
aI1418
aa(lp736
I648
aI145
aI1635
aI2878
aI219
aI1798
aI2096
aI2994
aa(lp737
I1705
aI555
aI921
aI608
aI1501
aI2776
aI1159
aI1169
aa(lp738
I758
aI2092
aI2129
aI601
aI940
aI2994
aI2290
aI1023
aa(lp739
I786
aI946
aI1023
aI1275
aI281
aI1798
aI3044
aa(lp740
I75
aI683
aI385
aI145
aI1635
aI920
aI369
aI1039
aI1007
aa(lp741
I1120
aI3025
aI576
aI973
aI608
aI145
aI1549
aI2615
aI608
aa(lp742
I1725
aI1119
aI576
aI2315
aI792
aI940
aI967
aI1533
aI688
aa(lp743
I909
aI608
aI3038
aI1265
aI2994
aI1159
aI576
aI124
aa(lp744
I1763
aI1786
aI2756
aI621
aI2615
aI2814
aI576
aa(lp745
I1841
aI2312
aI1178
aI2675
aI1178
aI2577
aI576
aI2598
aI569
aa(lp746
I1756
aI429
aI2952
aI1178
aI1163
aI1635
aI1490
aI2765
aI1159
aI233
aa(lp747
I1237
aI429
aI2013
aI233
aI1118
aI621
aI429
aI1066
aI429
aI1159
aa(lp748
I1502
aI2950
aI2522
aI2098
aI2482
aI2216
aI2783
aa(lp749
I1245
aI470
aI1635
aI1178
aI1038
aI2940
aa(lp750
I46
aI3068
aI613
aI429
aI3151
aI233
aa(lp751
I512
aI2516
aI2740
aI1886
aI1275
aI1178
aa(lp752
I510
aI2720
aI1505
aI1916
aI1178
aI2359
aI621
aI2098
aI2114
aa(lp753
I872
aI2720
aI1505
aI1901
aI2790
aI2482
aa(lp754
I572
aI621
aI586
aI2129
aI3017
aI541
aI1178
aI2141
aI3079
aa(lp755
I1436
aI2702
aI621
aI576
aI2586
aI1798
aI3044
aI2776
aa(lp756
I1072
aI118
aI608
aI1505
aI188
aI621
aI1009
aI555
aa(lp757
I2614
aI2476
aI608
aI2129
aI3017
aI2635
aI1680
aI576
aI708
aa(lp758
I296
aI608
aI1505
aI2329
aI621
aI371
aI1159
aI3098
aI1159
aa(lp759
I1198
aI608
aI1501
aI691
aI2961
aI969
aa(lp760
I2547
aI1505
aI1966
aI1798
aI576
aI2790
aI2602
aI1265
aa(lp761
I441
aI506
aI1569
aI1527
aI1072
aI608
aI3161
aa(lp762
I293
aI2278
aI1975
aI569
aI505
aI608
aI1189
aI2278
aa(lp763
I1198
aI2762
aI1178
aI1975
aI569
aI1964
aI608
aI1189
aI2278
aa(lp764
I2057
aI1178
aI1735
aI1505
aI2736
aI2098
aI1309
aI1178
aI1964
aI2124
aa(lp765
I1839
aI228
aI1635
aI1159
aI46
aI1309
aI985
aI2129
aa(lp766
I2434
aI1408
aI1798
aI1505
aI479
aI621
aI1501
aI2950
aa(lp767
I2207
aI2997
aI2297
aI2952
aI3195
aI1455
aI621
aa(lp768
I2194
aI2098
aI228
aI576
aI1159
aI390
aI1359
aI2098
aI1023
aa(lp769
I79
aI585
aI758
aI688
aI1178
aI2270
aI1871
aI1635
aa(lp770
I533
aI1840
aI157
aI4
aI990
aI1798
aI3044
aI3079
aa(lp771
I1086
aI3159
aI621
aI1505
aI1809
aI621
aI228
aI2516
aa(lp772
I2194
aI296
aI602
aI1680
aI711
aI2994
aI2765
aI2974
aI1680
aa(lp773
I955
aI1423
aI2987
aI675
aI1680
aa(lp774
I1591
aI1438
aI737
aI757
aI1591
aI2544
aI638
aI1178
aa(lp775
I1028
aI424
aI1549
aI2253
aI1976
aI1836
aI621
aa(lp776
I1268
aI621
aI1505
aI2811
aI1630
aI621
aI3150
aa(lp777
I3057
aI588
aI2720
aI189
aI2275
aI1517
aI3044
aa(lp778
I2276
aI621
aI576
aI760
aI533
aI2994
aI2765
aI1588
aI2516
aa(lp779
I774
aI2561
aI1610
aI576
aI3167
aI2902
aI1879
aI1418
aa(lp780
I1118
aI35
aI576
aI1975
aI1505
aI439
aI1798
aI1911
aI4
aa(lp781
I2078
aI1549
aI155
aI1178
aI380
aI442
aI1877
aI1159
aa(lp782
I802
aI2141
aI621
aI1069
aI1040
aI1505
aI1305
aI621
aI1069
aI638
aa(lp783
I358
aI576
aI1178
aI2188
aI576
aI1168
aI1380
aI1505
aa(lp784
I127
aI2329
aI1438
aI1196
aI145
aI586
aI2691
aa(lp785
I1967
aI233
aI1274
aI225
aI1307
aI192
aI1226
aI2720
aI2516
aI1515
aa(lp786
I1134
aI1023
aI2757
aI2129
aI1159
aI134
aI2129
aI2092
aI1274
aa(lp787
I1845
aI608
aI1610
aI228
aI1154
aI2776
aI1159
aI1505
aI526
aI1635
aa(lp788
I1644
aI2146
aI2278
aI1501
aI777
aI608
aI2129
aI2402
aa(lp789
I2594
aI379
aI1909
aI1481
aI1635
aI1490
aI608
aI2566
aa(lp790
I2257
aI2179
aI1178
aI134
aI746
aI1378
aa(lp791
I363
aI344
aI1023
aI1591
aI1773
aI2762
aI576
aa(lp792
I3107
aI1305
aI608
aI555
aI1159
aI3130
aI621
aI1635
aI2484
aa(lp793
I1185
aI1178
aI3015
aI2124
aI1574
aI608
aI1154
aI1178
aa(lp794
I2999
aI608
aI2297
aI2290
aI1680
aI134
aI259
aI708
aa(lp795
I1603
aI188
aI576
aI2651
aI1505
aI2603
aI608
aI688
aa(lp796
I465
aI920
aI157
aI1501
aI188
aI1178
aI2651
aI2124
aa(lp797
I185
aI3056
aI1178
aI326
aI2129
aI3017
aI1023
aa(lp798
I1189
aI706
aI1066
aI2129
aI2947
aI134
aI183
aI586
aa(lp799
I2854
aI2996
aI2561
aI1549
aI2996
aI792
aI1778
aI1391
aa(lp800
I191
aI1635
aI2651
aI780
aI2528
aI792
aI188
aa(lp801
I2184
aI83
aI578
aI467
aI569
aI467
aI2790
aa(lp802
I1926
aI576
aI491
aI1735
aI385
aI2856
aI569
aI920
aI157
aa(lp803
I890
aI1237
aI621
aI2057
aI385
aI2057
aI1066
aI920
aI2994
aa(lp804
I453
aI424
aI13
aI80
aI569
aI920
aI1159
aa(lp805
I1274
aI35
aI1893
aI555
aI3098
aI2639
aI621
aa(lp806
I2276
aI621
aI576
aI2790
aI224
aI1178
aI75
aI737
aI920
aI2664
aa(lp807
I1305
aI157
aI1549
aI570
aI196
aI1635
aI1070
aI737
aI2994
aI1418
aa(lp808
I2484
aI555
aI2638
aI1438
aI576
aI2822
aI2950
aa(lp809
I296
aI2953
aI1505
aI3065
aI576
aI2802
aI2689
aI1482
aI1178
aa(lp810
I276
aI133
aI134
aI157
aI2132
aI1680
aI202
aa(lp811
I25
aI2689
aI1237
aI1635
aI944
aI1798
aI2709
aI2411
aI1159
aa(lp812
I27
aI1735
aI1505
aI569
aI2097
aI1610
aI1185
aI621
aa(lp813
I589
aI2547
aI2282
aI157
aI4
aI570
aI1418
aI1169
aa(lp814
I997
aI967
aI1735
aI792
aI2994
aI578
aI1066
aI145
aI1308
aI708
aa(lp815
I786
aI1798
aI908
aI1533
aI1178
aI137
aI1528
aI576
aI2178
aa(lp816
I1106
aI1670
aI1207
aI157
aI1755
aI1159
aa(lp817
I775
aI145
aI2657
aI1178
aI2596
aI157
aI389
aa(lp818
I675
aI2297
aI967
aI83
aI1588
aI349
aI461
aI145
aI1635
aa(lp819
I1165
aI2994
aI1725
aI1528
aI1127
aI1418
aI1176
aI1588
aI2950
aI688
aa(lp820
I1038
aI1224
aI532
aI1039
aI188
aI1528
aI1437
aI2709
aa(lp821
I25
aI1439
aI532
aI917
aI3169
aI621
aI2516
aI2765
aa(lp822
I1184
aI1976
aI2
aI1635
aI522
aI2061
aI532
aa(lp823
I2194
aI2994
aI2765
aI2018
aI621
aI1505
aI2558
aI576
aa(lp824
I873
aI122
aI181
aI532
aI576
aI1190
aI2902
aI532
aa(lp825
I1206
aI2098
aI638
aI2776
aI2409
aI1588
aI2467
aI2994
aI1127
aI1892
aa(lp826
I838
aI2363
aI2297
aI920
aI157
aI1066
aI2480
aa(lp827
I1237
aI543
aI1569
aI2950
aI649
aI157
aI1069
aa(lp828
I2297
aI842
aI1178
aI828
aI157
aI1989
aI1610
aI1892
aa(lp829
I1023
aI77
aI1178
aI2709
aI1039
aI235
aI1505
aI235
aI1635
aa(lp830
I1966
aI573
aI819
aI920
aI157
aI569
aI1966
aa(lp831
I872
aI28
aI1798
aI576
aI2367
aI1039
aa(lp832
I1457
aI395
aI1635
aI1440
aI157
aI124
aa(lp833
I1655
aI2668
aI97
aI1485
aI1118
aI235
aa(lp834
I1591
aI2046
aI1505
aI2023
aI621
aI576
aI1418
aa(lp835
I179
aI2725
aI621
aI1505
aI2751
aI2096
aI2994
aa(lp836
I2440
aI675
aI1764
aI969
aI188
aI1178
aa(lp837
I352
aI541
aI1178
aI680
aI1390
aI1505
aI2547
aI576
aa(lp838
I467
aI780
aI2141
aI1505
aI1158
aI621
aI576
aI224
aa(lp839
I1374
aI1505
aI1725
aI1505
aI2002
aI1505
aI1862
aI1505
aI599
aI1505
aa(lp840
I2468
aI2765
aI119
aI1574
aI673
aI2720
aI2096
aI2994
aa(lp841
I1067
aI325
aI1588
aI2950
aI188
aI1798
aI2709
aI60
aa(lp842
I963
aI3120
aI621
aI1069
aI2382
aI3101
aI362
aI1066
aa(lp843
I1313
aI1635
aI585
aI1501
aI1526
aI1458
aI1171
aI621
aI1505
aa(lp844
I2553
aI920
aI758
aI157
aI1505
aI1954
aI621
aI638
aI967
aa(lp845
I1751
aI1457
aI1798
aI1635
aI1033
aI2950
aI1979
aa(lp846
I1371
aI151
aI2689
aI4
aI1483
aI2697
aI621
aa(lp847
I1302
aI3101
aI2720
aI2387
aI2085
aI1187
aI621
aI1178
aa(lp848
I278
aI2522
aI744
aI1067
aI1585
aa(lp849
I2404
aI2845
aI1505
aI1494
aI464
aI2381
aI1178
aa(lp850
I337
aI1007
aI3158
aI1159
aI2848
aI621
aI576
aI3176
aa(lp851
I439
aI758
aI157
aI228
aI1635
aI2895
aI1066
aI4
aI2776
aa(lp852
I1803
aI1635
aI1067
aI1680
aI526
aI1635
aI75
aI3176
aa(lp853
I1239
aI682
aI608
aI1515
aI920
aI157
aI2068
aI1007
aI1159
aa(lp854
I1476
aI1286
aI3044
aI638
aI2790
aI911
aI2141
aI2017
aa(lp855
I1385
aI1645
aI621
aI2739
aI1189
aI2642
aI245
aI144
aI2994
aa(lp856
I1119
aI2994
aI362
aI2129
aI675
aI1118
aI675
aI792
aI2570
aa(lp857
I1072
aI461
aI608
aI1948
aI2994
aI1127
aI1418
aI2950
aI60
aa(lp858
I973
aI1505
aI2756
aI737
aI2994
aI1159
aI1189
aI83
aI708
aa(lp859
I1908
aI1635
aI348
aI157
aI2423
aI1840
aI385
aa(lp860
I1717
aI1999
aI157
aI2516
aI2994
aI1845
aI547
aI2950
aa(lp861
I2212
aI555
aI2073
aI608
aI576
aI2776
aI963
aI157
aI2516
aI2950
aa(lp862
I1697
aI2765
aI2994
aI578
aI920
aI1505
aI3066
aI157
aI569
aI1159
aa(lp863
I1578
aI1378
aI2994
aI1889
aI1159
aI2078
aI3044
aa(lp864
I447
aI1591
aI621
aI1549
aI1066
aI1591
aI621
aI1635
aI626
aa(lp865
I1258
aI157
aI688
aI905
aI2813
aI1999
aI157
aI1159
aI1023
aa(lp866
I1533
aI1178
aI84
aI1559
aI2765
aI2994
aI758
aI1262
aI1164
aa(lp867
I2855
aI621
aI1635
aI109
aI1798
aI1999
aI157
aI3135
aI1178
aa(lp868
I682
aI2013
aI569
aI1680
aI1238
aI2119
aI605
aI3101
aI362
aI437
aa(lp869
I75
aI2641
aI1505
aI2014
aI675
aI3135
aa(lp870
I2651
aI1501
aI790
aI2765
aI2994
aI1159
aI569
aI570
aI758
aI2013
aa(lp871
I72
aI1610
aI2308
aI2790
aI729
aI1178
aI351
aa(lp872
I1975
aI317
aI973
aI157
aI654
aI430
aI1364
aa(lp873
I920
aI1505
aI467
aI157
aI228
aI1334
aI1951
aI170
aI1178
aa(lp874
I2333
aI1462
aI1549
aI1588
aI429
aI933
aI157
aI688
aI708
aa(lp875
I1834
aI2787
aI157
aI1505
aI502
aI73
aI621
aa(lp876
I174
aI545
aI157
aI688
aI219
aI1066
aI868
aI1159
aa(lp877
I972
aI2143
aI1693
aI2776
aI2836
aI1693
aI1169
aa(lp878
I3122
aI1798
aI509
aI1072
aI157
aI1159
aI570
aI2569
aI2899
aa(lp879
I1503
aI569
aI490
aI157
aI2899
aI2958
aI1178
aa(lp880
I599
aI1545
aI621
aI3044
aI576
aI3053
aI570
aI1680
aI1635
aa(lp881
I406
aI1176
aI2994
aI3140
aI1178
aI224
aI145
aI500
aa(lp882
I1577
aI2807
aI591
aI555
aI500
aI1178
aI920
aI1528
aa(lp883
I1374
aI157
aI2983
aI2605
aI2510
aI2718
aI2776
aa(lp884
I506
aI1515
aI2997
aI145
aI1600
aI2783
aI2994
aI1110
aI1680
aI688
aa(lp885
I2599
aI1850
aI157
aI2674
aI157
aI1497
aI1588
aI1023
aa(lp886
I2644
aI144
aI2994
aI1178
aI1458
aI621
aI1610
aI157
aI2098
aI1588
aa(lp887
I3098
aI1528
aI2516
aI842
aI1178
aI2980
aI157
aI3038
aI1635
aa(lp888
I3062
aI1756
aI1635
aI2994
aI1069
aI145
aI1635
aI2172
aI1756
aa(lp889
I190
aI1515
aI674
aI2866
aI1515
aI979
aI399
aI157
aI1159
aa(lp890
I361
aI157
aI576
aI569
aI1725
aI362
aI1588
aI624
aI2994
aI1892
aa(lp891
I3088
aI2421
aI1635
aI145
aI2341
aI2776
aI1159
aI1178
aa(lp892
I1128
aI2165
aI569
aI1178
aI3119
aI2561
aI1961
aI555
aa(lp893
I2668
aI569
aI92
aI2790
aI816
aI1437
aa(lp894
I973
aI621
aI1635
aI3129
aI742
aI792
aI570
aI688
aa(lp895
I773
aI555
aI570
aI2776
aI2237
aI1515
aI1593
aI1505
aI2471
aI1505
aa(lp896
I1961
aI792
aI361
aI621
aI4
aI2479
aI874
aI2561
aI1505
aa(lp897
I554
aI555
aI570
aI1680
aI2575
aI2059
aI3101
aI2561
aI1069
aa(lp898
I1588
aI1549
aI290
aI1417
aI361
aI157
aI555
aI3139
aI1515
aa(lp899
I2053
aI2544
aI3127
aI1276
aI621
aI1278
aI2982
aa(lp900
I758
aI329
aI1725
aI362
aI1189
aI2994
aI2290
aI3139
aI1515
aa(lp901
I647
aI2544
aI570
aI255
aI920
aI1528
aI1159
aI1178
aa(lp902
I886
aI585
aI1178
aI1796
aI1505
aI586
aI1635
aa(lp903
I1801
aI1999
aI2141
aI1528
aI2950
aI1727
aI2709
aa(lp904
I467
aI2619
aI1798
aI2674
aI35
aI2118
aa(lp905
I1498
aI2579
aI2561
aI1635
aI2479
aI2950
aI1531
aI2950
aa(lp906
I2212
aI429
aI2598
aI2765
aI218
aI2994
aI1159
aI2596
aI1359
aa(lp907
I642
aI1588
aI920
aI1066
aI2691
aI2994
aI469
aI1159
aI1359
aI60
aa(lp908
I2793
aI1711
aI792
aI1215
aI2989
aI157
aI224
aI638
aa(lp909
I1216
aI695
aI1430
aI2826
aI348
aI1696
aI2013
aI157
aa(lp910
I3201
aI324
aI13
aI1591
aI3018
aI2790
aa(lp911
I1474
aI1505
aI2463
aI909
aI1178
aI2875
aI2167
aI576
aI686
aa(lp912
I1560
aI2328
aI621
aI1207
aI188
aI1787
aI3188
aa(lp913
I585
aI2455
aI1505
aI1036
aI621
aI1635
aI2901
aI1706
aI2777
aa(lp914
I2901
aI758
aI1505
aI2830
aI621
aI1635
aI1066
aI145
aI2480
aa(lp915
I920
aI1066
aI569
aI920
aI2380
aI2903
aa(lp916
I2135
aI2660
aI570
aI1418
aI2123
aI2776
aa(lp917
I2084
aI1635
aI1218
aI621
aI1549
aI1880
aI1515
aa(lp918
I1342
aI1582
aI1569
aI569
aI570
aI792
aI708
aa(lp919
I702
aI83
aI569
aI1178
aI499
aI1501
aI2615
aI1159
aa(lp920
I2101
aI1587
aI35
aI1635
aI3179
aI621
aI569
aI570
aa(lp921
I1733
aI2297
aI519
aI2561
aI3081
aI301
aI2589
aI13
aa(lp922
I1610
aI2443
aI2765
aI2994
aI1159
aI2960
aI145
aI2444
aa(lp923
I1604
aI2055
aI2487
aI1528
aI2826
aI2994
aI2205
aa(lp924
I736
aI1635
aI920
aI2613
aI1528
aI2983
aI256
aa(lp925
I2642
aI2308
aI2642
aI145
aI800
aI429
aI2448
aI1610
aI2334
aa(lp926
I2901
aI301
aI1549
aI533
aI1126
aI2765
aI2994
aI1159
aa(lp927
I674
aI1407
aI3101
aI1528
aI1591
aI1635
aI283
aI1178
aa(lp928
I1669
aI621
aI1610
aI1635
aI473
aI3121
aI2765
aI2994
aI1159
aa(lp929
I2283
aI1528
aI2516
aI2860
aI145
aI3067
aI2826
aI2776
aa(lp930
I2694
aI1735
aI9
aI2664
aI586
aI1635
aI2950
aI3044
aa(lp931
I1209
aI1223
aI2664
aI486
aI1291
aI530
aI1549
aa(lp932
I3039
aI550
aI2664
aI875
aI1635
aI2950
aa(lp933
I964
aI486
aI1418
aI1394
aI1692
aI1635
aI1920
aI486
aa(lp934
I610
aI3108
aI1528
aI1505
aI1696
aI1417
aI1023
aI60
aa(lp935
I14
aI157
aI2862
aI2994
aI868
aI2286
aI328
aI1635
aa(lp936
I1547
aI1505
aI1966
aI1798
aI1876
aI1623
aI1505
aI3173
aI1178
aa(lp937
I244
aI758
aI737
aI1533
aI1159
aI154
aI232
aI2297
aI1635
aa(lp938
I1254
aI1010
aI1505
aI2752
aI2994
aI2765
aI303
aI1680
aa(lp939
I2321
aI1824
aI2950
aI36
aI1263
aI2516
aI1388
aa(lp940
I2382
aI1635
aI2349
aI1178
aI2349
aI1635
aI2382
aI1552
aa(lp941
I2503
aI1635
aI1999
aI157
aI2467
aI2994
aI1418
aI698
aI1039
aa(lp942
I1277
aI973
aI157
aI4
aI390
aI1737
aI1680
aa(lp943
I83
aI1523
aI1023
aI1999
aI570
aI2998
aI4
aI570
aI2611
aa(lp944
I403
aI533
aI916
aI2720
aI1505
aI2668
aI1156
aI362
aI2765
aI3079
aa(lp945
I1083
aI475
aI2544
aI1505
aI2079
aI621
aI576
aa(lp946
I1067
aI145
aI1675
aI1247
aI2412
aI1176
aI1588
aI1159
aa(lp947
I1929
aI868
aI224
aI2994
aI2776
aI2888
aI1159
aI688
aI1178
aa(lp948
I915
aI2744
aI157
aI22
aI2994
aI144
aI1778
aa(lp949
I2735
aI2518
aI1515
aI1595
aI1176
aI3052
aI157
aI2780
aa(lp950
I702
aI1219
aI157
aI2308
aI1176
aI1588
aI578
aI688
aa(lp951
I1591
aI1505
aI1824
aI1798
aI1950
aI2041
aI623
aI2308
aI2994
aI2950
aa(lp952
I1733
aI435
aI792
aI2765
aI2616
aI1798
aI2994
aI1178
aa(lp953
I1253
aI1528
aI576
aI848
aI2994
aI2412
aI3079
aI2395
aI1635
aa(lp954
I2207
aI15
aI1169
aI15
aI2297
aI1635
aI219
aI1262
aa(lp955
I1417
aI1505
aI1913
aI509
aI2297
aI1635
aI1066
aI1418
aa(lp956
I79
aI1023
aI569
aI2776
aI3045
aI1809
aI626
aI621
aI1178
aa(lp957
I816
aI655
aI2308
aI2790
aI2125
aI2664
aI2308
aI1066
aa(lp958
I1156
aI2156
aI2756
aI655
aI2826
aI2793
aI688
aa(lp959
I1794
aI2051
aI157
aI1635
aI1284
aI936
aa(lp960
I90
aI707
aI2098
aI2793
aI2621
aI157
aI1501
aI1515
aa(lp961
I1850
aI1125
aI2994
aI1680
aI2674
aI3134
aI2925
aI2720
aI576
aI2776
aa(lp962
I2848
aI157
aI2321
aI2098
aI2242
aI608
aI667
aI608
aa(lp963
I943
aI2981
aI1549
aI1434
aI1696
aa(lp964
I1759
aI313
aI346
aI1159
aI72
aI2290
aI2776
aa(lp965
I803
aI1635
aI60
aI1012
aI1610
aI1887
aa(lp966
I973
aI1178
aI2848
aI2950
aI1134
aI1023
aI1947
aI621
aI2955
aI1515
aa(lp967
I784
aI1635
aI490
aI2308
aI1393
aI2765
aa(lp968
I1961
aI2561
aI1270
aI2291
aI53
aI1635
aI245
aI998
aa(lp969
I1891
aI2297
aI967
aI83
aI2873
aI608
aI228
aI1505
aa(lp970
I909
aI429
aI2994
aI1159
aI912
aI1066
aI394
aI2129
aI1591
aI792
aa(lp971
I1845
aI2347
aI1549
aI1278
aI1997
aI807
aI608
aa(lp972
I1841
aI2017
aI2944
aI2017
aI2098
aI145
aI1635
aa(lp973
I2283
aI1633
aI1798
aI1505
aI2886
aI2790
aI2098
aI233
aa(lp974
I2180
aI486
aI124
aI1178
aI1687
aI2098
aI1315
aI2664
aa(lp975
I675
aI569
aI1159
aI2358
aI2983
aI166
aI3017
aI2129
aI1680
aa(lp976
I664
aI2664
aI1635
aI681
aI225
aI586
aI1022
aI1178
aa(lp977
I78
aI225
aI981
aI2765
aI218
aI486
aI1159
aI1125
aI1169
aa(lp978
I2878
aI1505
aI553
aI621
aI2790
aI1176
aI920
aI682
aI157
aI578
aa(lp979
I768
aI2297
aI2770
aI1279
aI688
aI1845
aI570
aa(lp980
I11
aI2786
aI1635
aI1515
aI920
aI2786
aI1635
aI468
aI2950
aa(lp981
I2475
aI1168
aI1549
aI1168
aI1515
aI1861
aI1323
aI1861
aa(lp982
I503
aI2516
aI180
aI2026
aI737
aI570
aI792
aa(lp983
I2572
aI1069
aI1157
aI1825
aI576
aI1066
aI1548
aI570
aa(lp984
I2414
aI2498
aI1505
aI1431
aI621
aI22
aa(lp985
I1600
aI356
aI2664
aI1591
aI2265
aI591
aI2334
aa(lp986
I2908
aI621
aI684
aI2994
aI145
aI1635
aI2738
aI2729
aa(lp987
I517
aI2102
aI621
aI1401
aI157
aI1549
aa(lp988
I803
aI688
aI2827
aI2487
aI271
aI1515
aa(lp989
I1843
aI1515
aI2929
aI1169
aI1800
aI1735
aI1368
aI2776
aa(lp990
I893
aI1178
aI742
aI1501
aI1319
aI2194
aI1066
aI2994
aI2765
aa(lp991
I2304
aI536
aI326
aI1641
aI2308
aI1735
aI1178
aI1610
aI3051
aa(lp992
I223
aI3023
aI1484
aI2141
aI1419
aI688
aa(lp993
I363
aI2652
aI2720
aI576
aI3177
aI652
aa(lp994
I461
aI645
aI1066
aI737
aI1256
aI2404
aI675
aI621
aI576
aa(lp995
I1072
aI780
aI1066
aI684
aI570
aI1176
aI570
aI578
aI1515
aa(lp996
I2533
aI1282
aI780
aI1256
aI569
aI1067
aI2790
aa(lp997
I572
aI2770
aI1798
aI1549
aI837
aI188
aI1178
aa(lp998
I1490
aI1886
aI1501
aI1911
aI4
aI599
aI245
aI1892
aI688
aa(lp999
I786
aI428
aI2756
aI2006
aI1549
aI36
aI621
aI2289
aa(lp1000
I1962
aI131
aI792
aI1072
aI792
aI4
aI188
aI2141
aa(lp1001
I775
aI576
aI2173
aI1066
aI578
aI211
aI569
aI2790
aa(lp1002
I1052
aI123
aI123
aI157
aI2129
aI1418
aI3000
aI3079
aa(lp1003
I1139
aI1117
aI13
aI941
aI1523
aI1159
aI2983
aa(lp1004
I3198
aI2760
aI2129
aI1418
aI67
aI2141
aI608
aI1549
aa(lp1005
I844
aI3130
aI362
aI1159
aI253
aI2883
aI621
aa(lp1006
I3072
aI2477
aI1159
aI1197
aI1359
aI2819
aI2994
aI429
aa(lp1007
I599
aI608
aI1505
aI1833
aI1663
aI621
aI3008
aI1635
aa(lp1008
I1459
aI2539
aI1159
aI2826
aI2776
aI2281
aI1590
aI157
aI2611
aa(lp1009
I1511
aI821
aI228
aI2308
aI1902
aI2159
aI621
aI2955
aa(lp1010
I572
aI1505
aI2929
aI1798
aI576
aI439
aI1505
aI512
aI591
aa(lp1011
I2789
aI1713
aI998
aI1178
aI1713
aI576
aI2789
aI569
aa(lp1012
I1308
aI1505
aI1696
aI923
aI3089
aI1807
aI569
aa(lp1013
I524
aI1635
aI1066
aI3145
aI1791
aI2486
aI1673
aa(lp1014
I2179
aI730
aI2790
aI1062
aI792
aI414
aa(lp1015
I644
aI1062
aI792
aI1178
aI1863
aI1711
aI1668
aa(lp1016
I407
aI927
aI1798
aI2950
aI2245
aI1711
aI1668
aa(lp1017
I1011
aI699
aI621
aI586
aI1635
aI271
aI2217
aI1501
aa(lp1018
I1685
aI621
aI3044
aI2017
aI2098
aI1156
aI1865
aI157
aa(lp1019
I2678
aI2281
aI2689
aI1169
aI2678
aI1735
aI180
aI569
aI705
aa(lp1020
I3091
aI2098
aI2393
aI2689
aI224
aI2793
aI1151
aI2297
aI376
aI578
aa(lp1021
I740
aI2689
aI1501
aI1016
aI1392
aI1256
aI1392
aI2297
aI3097
aI578
aa(lp1022
I1151
aI1178
aI2678
aI2643
aI1586
aI2194
aI2765
aI2994
aa(lp1023
I2526
aI2689
aI576
aI2994
aI2096
aI1586
aI2709
aI792
aI2790
aa(lp1024
I600
aI1735
aI1533
aI569
aI1190
aI2278
aI576
aI1178
aa(lp1025
I625
aI291
aI157
aI2516
aI1159
aI1343
aI621
aI576
aI1169
aa(lp1026
I2092
aI2129
aI2950
aI1023
aI1395
aI2950
aI2092
aI2129
aa(lp1027
I3145
aI225
aI586
aI1579
aI2604
aI13
aI1359
aI2950
aa(lp1028
I973
aI450
aI682
aI157
aI1635
aI1914
aI2129
aI2997
aI688
aa(lp1029
I3195
aI2891
aI2013
aI1178
aI2725
aI621
aI2092
aI2129
aa(lp1030
I3175
aI228
aI1159
aI1189
aI2278
aI2310
aI1850
aI576
aI638
aa(lp1031
I1541
aI920
aI586
aI1635
aI1490
aI621
aI1066
aI4
aI786
aI608
aa(lp1032
I694
aI1023
aI2297
aI1066
aI1460
aI2994
aI148
aI233
aI1189
aI1635
aa(lp1033
I907
aI1999
aI157
aI1635
aI570
aI2578
aI2994
aI3081
aa(lp1034
I145
aI2655
aI2950
aI233
aI1178
aI920
aI2994
aI1156
aI1119
aa(lp1035
I504
aI1549
aI145
aI2764
aI973
aI608
aI2117
aa(lp1036
I2297
aI1200
aI945
aI1178
aI1256
aI1501
aI1911
aI2765
aa(lp1037
I1212
aI157
aI2983
aI2208
aI2530
aI1549
aI1096
aa(lp1038
I1657
aI1505
aI1685
aI1271
aI621
aI1066
aI1264
aI1178
aa(lp1039
I559
aI621
aI1505
aI2526
aI1973
aI621
aI2385
aI219
aa(lp1040
I60
aI621
aI576
aI2557
aI1159
aI3179
aI1696
aI1159
aI1069
aa(lp1041
I1340
aI318
aI621
aI1635
aI3138
aI1159
aI1065
aI555
aa(lp1042
I1541
aI1635
aI973
aI157
aI2495
aI1159
aI973
aI1159
aI3099
aa(lp1043
I145
aI1178
aI349
aI157
aI1154
aI570
aI587
aI1568
aI1159
aI688
aa(lp1044
I907
aI145
aI2436
aI1635
aI1542
aI1066
aI2189
aa(lp1045
I2297
aI144
aI349
aI87
aI157
aI240
aI1635
aI2978
aI2790
aa(lp1046
I1733
aI4
aI1725
aI3145
aI608
aI1999
aI157
aI2516
aI145
aa(lp1047
I2204
aI1704
aI3094
aI2129
aI1999
aI2519
aI157
aI1178
aa(lp1048
I2581
aI1567
aI2994
aI228
aI1178
aI1999
aI157
aI2078
aI1505
aa(lp1049
I2546
aI2297
aI1635
aI2960
aI2951
aI542
aI2764
aI1798
aa(lp1050
I1119
aI569
aI3133
aI1159
aI1183
aI2765
aI2994
aI1067
aI1023
aa(lp1051
I2952
aI608
aI1635
aI1972
aI1567
aI1999
aI157
aI2994
aI1178
aa(lp1052
I362
aI3025
aI1159
aI1023
aI1033
aI1664
aI1999
aI157
aa(lp1053
I1039
aI1782
aI157
aI2297
aI1635
aI3005
aI2947
aI2129
aa(lp1054
I284
aI2297
aI1066
aI2952
aI3133
aI1069
aI1066
aI2947
aI2129
aI2790
aa(lp1055
I1966
aI569
aI3133
aI1178
aI2210
aI2092
aI2129
aI688
aa(lp1056
I145
aI688
aI997
aI1635
aI2946
aI2790
aI754
aI3133
aa(lp1057
I2368
aI555
aI1562
aI2950
aI2078
aI1159
aI1445
aI1159
aI22
aa(lp1058
I2952
aI608
aI1704
aI2129
aI3140
aI2689
aI4
aI829
aa(lp1059
I523
aI576
aI254
aI1178
aI3168
aI1635
aI254
aI1178
aa(lp1060
I1039
aI228
aI845
aI1159
aI2994
aI1567
aI1542
aI1169
aI1735
aa(lp1061
I2960
aI2924
aI969
aI2952
aI2141
aI608
aI1635
aa(lp1062
I657
aI1178
aI263
aI569
aI2952
aI13
aI2129
aI2947
aa(lp1063
I1119
aI576
aI2952
aI157
aI63
aI1635
aI1656
aI2412
aI1066
aa(lp1064
I557
aI674
aI369
aI2482
aI576
aI2952
aI2290
aa(lp1065
I2309
aI2153
aI461
aI792
aI2952
aI157
aI576
aI1178
aa(lp1066
I563
aI1023
aI1313
aI2994
aI1159
aI228
aI1386
aI963
aI608
aI578
aa(lp1067
I254
aI608
aI737
aI2994
aI1159
aI963
aI1128
aI608
aI1635
aI2578
aa(lp1068
I1533
aI3048
aI569
aI1739
aI963
aI608
aI2952
aI1178
aa(lp1069
I1472
aI2141
aI1698
aI157
aI920
aI688
aI180
aI2960
aa(lp1070
I920
aI608
aI1505
aI1250
aI621
aI1472
aI2952
aI254
aa(lp1071
I235
aI2952
aI157
aI1178
aI2925
aI1549
aI1696
aI570
aI1577
aI1575
aa(lp1072
I932
aI486
aI1360
aI1549
aI1081
aI2487
aI1505
aI585
aI576
aa(lp1073
I1756
aI2427
aI569
aI235
aI1930
aI1798
aI1323
aa(lp1074
I1156
aI362
aI1635
aI2129
aI3017
aI1680
aI920
aI1372
aI1128
aI2129
aa(lp1075
I2096
aI233
aI1680
aI1066
aI2096
aI1178
aI3175
aI233
aI1159
aa(lp1076
I725
aI570
aI1274
aI2096
aI569
aI188
aI1680
aI3038
aI233
aa(lp1077
I2297
aI1635
aI1651
aI621
aI1204
aI569
aI467
aI621
aI1680
aI638
aa(lp1078
I2615
aI2433
aI2308
aI466
aI1156
aI578
aa(lp1079
I2545
aI487
aI1610
aI1274
aI2665
aI621
aI576
aI2634
aI2297
aa(lp1080
I2889
aI1622
aI2129
aI1704
aI1473
aI3143
aI1505
aI2793
aa(lp1081
I302
aI569
aI973
aI157
aI1505
aI2989
aI621
aI2334
aa(lp1082
I2651
aI1505
aI3135
aI569
aI2852
aI1159
aI635
aI920
aI157
aI1418
aa(lp1083
I725
aI2852
aI3038
aI2994
aI385
aI2689
aI1963
aI429
aI2994
aa(lp1084
I1975
aI308
aI2278
aI145
aI1125
aI1845
aI2852
aI1159
aa(lp1085
I161
aI2756
aI121
aI621
aI576
aI1738
aa(lp1086
I2428
aI145
aI1477
aI2852
aI1159
aI1435
aI2610
aI2960
aa(lp1087
I467
aI621
aI1668
aI2098
aI296
aI157
aI1739
aI2852
aI3081
aa(lp1088
I3098
aI2446
aI2689
aI99
aI2994
aI1712
aa(lp1089
I1441
aI2651
aI3023
aI569
aI2960
aI1535
aI2124
aI1501
aa(lp1090
I190
aI621
aI388
aI1635
aI145
aI1066
aI736
aI708
aa(lp1091
I973
aI157
aI2983
aI1305
aI1219
aI608
aI1159
aa(lp1092
I3098
aI608
aI1549
aI2790
aI1725
aI1119
aI1549
aI1066
aI145
aI587
aa(lp1093
I2092
aI2308
aI1066
aI145
aI1181
aI1178
aI1490
aI1549
aI1490
aI2514
aa(lp1094
I2283
aI157
aI576
aI2790
aI2340
aI794
aI2129
aI145
aI127
aa(lp1095
I1201
aI1725
aI1119
aI115
aI1635
aI1848
aI973
aI682
aa(lp1096
I1845
aI608
aI1418
aI1753
aI1549
aI587
aI2129
aI2534
aI1680
aa(lp1097
I772
aI967
aI1681
aI3010
aI157
aI1169
aI1735
aI569
aa(lp1098
I3040
aI1066
aI429
aI3145
aI2092
aI2129
aI2950
aI3136
aI2297
aa(lp1099
I504
aI536
aI326
aI1549
aI112
aI1290
aI157
aa(lp1100
I2068
aI2840
aI1178
aI2840
aI145
aI1481
aI2888
aI3004
aa(lp1101
I1212
aI2464
aI157
aI1505
aI364
aI621
aa(lp1102
I1176
aI570
aI219
aI2508
aI228
aI1912
aI1845
aI2994
aI578
aa(lp1103
I1023
aI145
aI127
aI1635
aI920
aI638
aI920
aI1635
aI1066
aI385
aa(lp1104
I563
aI2297
aI3152
aI2720
aI1418
aI487
aI3173
aI3031
aI2950
aa(lp1105
I3038
aI2957
aI2720
aI2516
aI1895
aI2790
aI497
aI792
aa(lp1106
I1156
aI362
aI1549
aI228
aI920
aI1066
aI429
aI2994
aI2310
aI576
aa(lp1107
I1202
aI390
aI1350
aI1798
aI228
aI576
aI233
aI688
aa(lp1108
I2038
aI233
aI1680
aI2746
aI1159
aI973
aI157
aI1262
aI2790
aa(lp1109
I552
aI1635
aI894
aI569
aI2855
aI1505
aI440
aI576
aI2783
aa(lp1110
I1063
aI1849
aI2250
aI608
aI1549
aI1104
aI362
aI2098
aI1069
aa(lp1111
I521
aI416
aI1909
aI1635
aI2125
aI1663
aI1069
aa(lp1112
I2898
aI2297
aI1635
aI664
aI802
aI1069
aI1563
aI1069
aa(lp1113
I907
aI228
aI1549
aI2647
aI1993
aI1196
aI1635
aa(lp1114
I11
aI956
aI682
aI608
aI1178
aI2582
aI157
aI569
aI920
aa(lp1115
I945
aI778
aI1501
aI2127
aI2582
aI157
aI1505
aI11
aa(lp1116
I2878
aI3101
aI1119
aI2129
aI1765
aI362
aI1549
aI2790
aI708
aa(lp1117
I1167
aI1066
aI2865
aI570
aI2049
aI394
aI2129
aI1178
aa(lp1118
I1119
aI1505
aI2281
aI1359
aI2516
aI1066
aI429
aI570
aI578
aI1515
aa(lp1119
I776
aI1363
aI2720
aI211
aI2765
aI1159
aa(lp1120
I362
aI2950
aI3000
aI2950
aI920
aI1505
aI2448
aI2756
aI1720
aI1178
aa(lp1121
I1939
aI2720
aI1505
aI156
aI2785
aI655
aI1349
aa(lp1122
I554
aI1635
aI444
aI782
aI1357
aI1798
aI2950
aI2626
aa(lp1123
I472
aI1748
aI1677
aI3006
aI2689
aI1505
aI235
aa(lp1124
I1330
aI2893
aI1610
aI2495
aI1178
aI2529
aI2689
aI724
aI3001
aa(lp1125
I3182
aI2765
aI119
aI2852
aI1118
aI621
aI1505
aI88
aI576
aa(lp1126
I2198
aI576
aI2689
aI2575
aI553
aI951
aI2689
aI2611
aa(lp1127
I1869
aI569
aI1110
aI1213
aI13
aI2689
aI554
aI1635
aI3013
aa(lp1128
I786
aI2689
aI218
aI2137
aI2776
aI1159
aI1624
aI1635
aa(lp1129
I2414
aI3027
aI1590
aI2689
aI277
aI1066
aa(lp1130
I710
aI1178
aI1782
aI1505
aI2765
aI2994
aI2746
aI1729
aa(lp1131
I1039
aI145
aI515
aI429
aI2103
aI1729
aI3044
aI2776
aa(lp1132
I461
aI674
aI1017
aI1798
aI569
aI1180
aI219
aI621
aa(lp1133
I506
aI1648
aI1642
aI1798
aI439
aI70
aI621
aa(lp1134
I289
aI2656
aI157
aI1824
aI1635
aI1818
aI145
aI2503
aI1635
aa(lp1135
I249
aI157
aI2516
aI1180
aI219
aI157
aI922
aa(lp1136
I2147
aI1798
aI2297
aI1635
aI1958
aI157
aI466
aI119
aI1178
aa(lp1137
I25
aI36
aI2689
aI1549
aI983
aI2561
aI580
aa(lp1138
I586
aI868
aI599
aI3101
aI946
aI1159
aI2281
aI1359
aa(lp1139
I2267
aI432
aI469
aI1159
aI377
aI621
aI276
aI401
aa(lp1140
I933
aI2689
aI688
aI2441
aI1159
aI145
aI1635
aa(lp1141
I2878
aI1744
aI157
aI2467
aI2852
aI1418
aI2790
aa(lp1142
I1313
aI2066
aI868
aI973
aI2689
aI576
aI2179
aa(lp1143
I2141
aI77
aI1159
aI3098
aI1159
aI2821
aa(lp1144
I1751
aI2762
aI2466
aI576
aI2211
aI737
aa(lp1145
I196
aI1635
aI770
aI2960
aI570
aI255
aI1178
aa(lp1146
I412
aI778
aI157
aI1505
aI2781
aI621
aI963
aI1590
aa(lp1147
I260
aI354
aI1107
aI1364
aI412
aI778
aI157
aa(lp1148
I3155
aI1826
aI1178
aI2321
aI897
aI2129
aI3017
aI2793
aa(lp1149
I2166
aI114
aI1023
aI1858
aI2102
aI608
aI2804
aa(lp1150
I1954
aI1798
aI1800
aI1023
aI2411
aI883
aI263
aI1023
aI2793
aa(lp1151
I2233
aI8
aI1992
aI608
aI2983
aI2129
aI3017
aa(lp1152
I1703
aI2544
aI1505
aI71
aI1617
aI2290
aa(lp1153
I1013
aI2745
aI608
aI2544
aI569
aI846
aI608
aI1278
aI3131
aa(lp1154
I1039
aI1959
aI1083
aI1798
aI2950
aI569
aI920
aI157
aa(lp1155
I2800
aI621
aI1638
aI820
aI2776
aI1159
aI688
aa(lp1156
I506
aI621
aI484
aI555
aI2776
aI1159
aI1501
aI14
aa(lp1157
I2105
aI1635
aI9
aI212
aI1074
aI591
aa(lp1158
I920
aI157
aI1635
aI558
aI621
aI1711
aI157
aa(lp1159
I607
aI1066
aI2098
aI901
aI2561
aI1159
aI935
aa(lp1160
I2134
aI1067
aI1179
aI2994
aI1178
aI145
aI624
aI4
aa(lp1161
I2144
aI868
aI2591
aI2776
aI2122
aI569
aI664
aa(lp1162
I740
aI157
aI576
aI1911
aI920
aI4
aI1156
aI1680
aI145
aI708
aa(lp1163
I2283
aI758
aI1549
aI1057
aI792
aI2765
aI2776
aa(lp1164
I3022
aI2989
aI157
aI569
aI1274
aI2765
aI233
aI578
aI1515
aa(lp1165
I2238
aI2096
aI233
aI1680
aI798
aI606
aI1159
aa(lp1166
I552
aI1156
aI2756
aI157
aI2623
aI461
aI2297
aI1159
aI578
aa(lp1167
I1023
aI1066
aI569
aI570
aI1189
aI1635
aI1458
aI621
aI2836
aI1680
aa(lp1168
I3156
aI2997
aI555
aI920
aI224
aI1066
aI2297
aI570
aI578
aa(lp1169
I792
aI1161
aI1610
aI2950
aI758
aI1023
aI1066
aI569
aI1725
aI946
aa(lp1170
I1066
aI228
aI920
aI2994
aI1189
aI3145
aI708
aI2129
aI2273
aa(lp1171
I1257
aI228
aI1549
aI1999
aI157
aI507
aI2994
aI1418
aa(lp1172
I256
aI2994
aI1418
aI228
aI1501
aI1125
aI1066
aI2994
aI429
aa(lp1173
I933
aI608
aI688
aI1006
aI1999
aI157
aI1505
aI1567
aa(lp1174
I349
aI157
aI736
aI429
aI2994
aI1159
aI228
aI1014
aI2783
aa(lp1175
I2983
aI0
aI429
aI2994
aI1159
aI2129
aI2225
aI2157
aI1501
aa(lp1176
I2233
aI1066
aI2994
aI429
aI145
aI1501
aI996
aI2129
aI578
aI2386
aa(lp1177
I1940
aI1636
aI1549
aI1999
aI157
aI2983
aI1700
aa(lp1178
I1845
aI2705
aI2544
aI2129
aI1704
aI1490
aI1680
aI2516
aI708
aa(lp1179
I26
aI1635
aI973
aI157
aI2536
aI1549
aa(lp1180
I2283
aI758
aI157
aI1635
aI2212
aI621
aI936
aI145
aI586
aI1635
aa(lp1181
I2642
aI621
aI1964
aI1066
aI555
aI239
aI1159
aI2578
aI1178
aa(lp1182
I506
aI585
aI1505
aI745
aI2544
aI2129
aI1704
aI1508
aa(lp1183
I1834
aI608
aI1505
aI1799
aI1645
aI621
aI576
aI1159
aa(lp1184
I3015
aI1505
aI1470
aI1178
aI374
aI2709
aI569
aI1533
aa(lp1185
I511
aI467
aI1610
aI1651
aI608
aI361
aI157
aI576
aI1159
aa(lp1186
I569
aI1678
aI1680
aI3038
aI1635
aI2428
aI326
aI569
aI920
aa(lp1187
I920
aI1505
aI681
aI569
aI1678
aI1066
aI1739
aI2783
aI638
aa(lp1188
I365
aI157
aI1066
aI1209
aI823
aI2762
aI224
aa(lp1189
I932
aI1999
aI2141
aI608
aI1309
aI157
aI1505
aI73
aI3004
aa(lp1190
I2060
aI429
aI2994
aI145
aI925
aI2129
aI688
aa(lp1191
I1606
aI2745
aI1478
aI157
aI1635
aI1961
aI1352
aI157
aa(lp1192
I1007
aI3133
aI1159
aI2472
aI157
aI127
aI555
aI963
aI157
aa(lp1193
I1711
aI456
aI792
aI1817
aI2979
aI920
aI576
aI47
aa(lp1194
I431
aI1567
aI2994
aI1914
aI2129
aI228
aI945
aI576
aa(lp1195
I107
aI920
aI145
aI1635
aI431
aI451
aI2092
aI2129
aI2790
aa(lp1196
I2915
aI2310
aI75
aI1178
aI1748
aI205
aI608
aI1512
aI576
aa(lp1197
I3150
aI920
aI75
aI189
aI11
aI75
aI2345
aI576
aa(lp1198
I228
aI2444
aI2994
aI429
aI1076
aI1530
aI1729
aI1505
aI2793
aI2790
aa(lp1199
I2013
aI1807
aI1567
aI2994
aI1922
aI230
aI2994
aI1418
aa(lp1200
I228
aI2531
aI1635
aI2790
aI408
aI2098
aI2875
aI157
aI1610
aI688
aa(lp1201
I3045
aI569
aI228
aI576
aI2310
aI1116
aI157
aI1610
aI1178
aa(lp1202
I1280
aI1509
aI1178
aI3122
aI2561
aI2308
aI271
aI421
aa(lp1203
I1876
aI854
aI2544
aI825
aI1505
aI1050
aI1798
aa(lp1204
I2750
aI3110
aI868
aI2168
aI3194
aI2561
aI1178
aa(lp1205
I1244
aI1159
aI1505
aI1446
aI1038
aI1798
aI576
aa(lp1206
I920
aI1505
aI2168
aI131
aI2544
aI2516
aI428
aI2776
aa(lp1207
I2116
aI1635
aI1039
aI751
aI1525
aI2885
aI1798
aa(lp1208
I932
aI487
aI638
aI2776
aI715
aI1085
aI1798
aI1967
aI1178
aa(lp1209
I622
aI732
aI1798
aI550
aI1841
aI507
aa(lp1210
I1280
aI2412
aI2035
aI3012
aI1145
aI621
aa(lp1211
I3122
aI272
aI2561
aI249
aI2561
aI2308
aI271
aa(lp1212
I2692
aI1635
aI545
aI2499
aI1405
aI1159
aI1859
aI1316
aI2611
aa(lp1213
I599
aI384
aI2689
aI576
aI2790
aI2308
aI2870
aI2408
aa(lp1214
I2168
aI1159
aI1278
aI333
aI857
aI2725
aI621
aa(lp1215
I2322
aI644
aI620
aI758
aI1505
aI2653
aI1316
aI2776
aa(lp1216
I664
aI181
aI1505
aI2933
aI621
aI1023
aI1178
aa(lp1217
I392
aI599
aI734
aI1798
aI2308
aI2869
aI737
aa.