(dp1
S'all'
p2
S'call'
p3
sS'hooks'
p4
S'looks'
p5
sS'lack'
p6
S'black'
p7
sS'swerving'
p8
S'deserving'
p9
sS'invent'
p10
S'argument'
p11
sS'unrest'
p12
S'expressed'
p13
sS'special-blest'
p14
S'chest'
p15
sS'go'
p16
S'know'
p17
sS'appetite'
p18
S'might'
p19
sS'ruminate'
p20
S'state'
p21
sS'hate'
p22
S'state'
p23
sS'flattery'
p24
S'alchemy'
p25
sS'content'
p26
S'spent'
p27
sS'feeding'
p28
S'needing'
p29
sS'depend'
p30
S'end'
p31
sS'uphold'
p32
S'cold'
p33
sS'young'
p34
S'tongue'
p35
sS'spirit'
p36
S'merit'
p37
sS'pride'
p38
S'side'
p39
sS'sway'
p40
S'day'
p41
sS'worth'
p42
S'forth'
p43
sS'subtleties'
p44
S'lies'
p45
sS'annoy'
p46
S'joy'
p47
sS'strumpeted'
p48
S'disabled'
p49
sS'worse'
p50
S'curse'
p51
sS'song'
p52
S'tongue'
p53
sS'dispense'
p54
S'sense'
p55
sS'desired'
p56
S'new-fired'
p57
sS'impart'
p58
S'desert'
p59
sS'rhyme'
p60
S'time'
p61
sS'inhearse'
p62
S'verse'
p63
sS'fall'
p64
S'call'
p65
sS'hems'
p66
S'gems'
p67
sS'difference'
p68
S'excellence'
p69
sS'perceived'
p70
S'deceived'
p71
sS'heaven'
p72
S'even'
p73
sS'level'
p74
S'bevel'
p75
sS'tear'
p76
S'appear'
p77
sS'die'
p78
S'dignity'
p79
sS'leave'
p80
S'deceive'
p81
sS'sang'
p82
S'hang'
p83
sS'race'
p84
S'pace'
p85
sS'excellence'
p86
g68
sS'red'
p87
S'head'
p88
sS'burned'
p89
S'turned'
p90
sS'mistaking'
p91
S'making'
p92
sS'wantonness'
p93
S'less'
p94
sS'graces'
p95
S'faces'
p96
sS'force'
p97
S'horse'
p98
sS'rents'
p99
S'ornaments'
p100
sS'tired'
p101
S'expired'
p102
sS'outworn'
p103
S'born'
p104
sS'past'
p105
S'haste'
p106
sS'amiss'
p107
S'is'
p108
sS'crave'
p109
S'slave'
p110
sS'pass'
p111
S'was'
p112
sS'leap'
p113
S'reap'
p114
sS'idolatry'
p115
S'be'
p116
sS'quill'
p117
S'still'
p118
sS'even'
p119
S'heaven'
p120
sS'compile'
p121
S'style'
p122
sS"fleet'st"
p123
S'sweets'
p124
sS'defence'
p125
S'offence'
p126
sS'hide'
p127
S'denied'
p128
sg77
S'where'
p129
sS'sun'
p130
S'dun'
p131
sS'sum'
p132
S'come'
p133
sS'favour'
p134
S'savour'
p135
sS'expressed'
p136
g12
sS'debate'
p137
S'hate'
p138
sS'prevailed'
p139
S'assailed'
p140
sS'rotten'
p141
S'forgotten'
p142
sS'suspect'
p143
S'defect'
p144
sS'above'
p145
S'love'
p146
sS'new'
p147
S'view'
p148
sS'womb'
p149
S'tomb'
p150
sS'melancholy'
p151
S'thee'
p152
sS'ranged'
p153
S'exchanged'
p154
sS'gathered'
p155
S'unfathered'
p156
sS'men'
p157
S'then'
p158
sS'here'
p159
S'uprear'
p160
sS'herd'
p161
S'beard'
p162
sS'hours'
p163
S'showers'
p164
sS'beck'
p165
S'check'
p166
sS'slow'
p167
S'show'
p168
sS'poverty'
p169
S'injury'
p170
sS'morrow'
p171
S'sorrow'
p172
sg92
g91
sS'alone'
p173
S'prone'
p174
sS'sing'
p175
S'prefiguring'
p176
sS'strong'
p177
S'long'
p178
sS'a-doting'
p179
S'nothing'
p180
sS'change'
p181
S'strange'
p182
sS'extreme'
p183
S'dream'
p184
sS'convert'
p185
S'art'
p186
sS'granting'
p187
S'wanting'
p188
sS'boast'
p189
S'costs'
p190
sS'reproving'
p191
S'loving'
p192
sS'enmity'
p193
S'posterity'
p194
sS"intermixed'"
p195
S'fixed'
p196
sS'leaves'
p197
S'sheaves'
p198
sS'reason'
p199
S'treason'
p200
sS'bow'
p201
S'now'
p202
sS'survey'
p203
S'decay'
p204
sS'smoke'
p205
S'cloak'
p206
sS'defeat'
p207
S'great'
p208
sS'breeds'
p209
S'deeds'
p210
sS'sweetness'
p211
S'meetness'
p212
sS'king'
p213
S'spring'
p214
sS'swearing'
p215
S'bearing'
p216
sS'stained'
p217
S'reigned'
p218
sS'love'
p219
S'prove'
p220
sS'accumulate'
p221
S'hate'
p222
sS'forbid'
p223
S'hid'
p224
sS'win'
p225
S'within'
p226
sS'impiety'
p227
S'society'
p228
sg206
g205
sS'brought'
p229
S'thought'
p230
sS'assemble'
p231
S'resemble'
p232
sS'wit'
p233
S'writ'
p234
sS'decrease'
p235
S'increase'
p236
sS'surmount'
p237
S'account'
p238
sS"o'erworn"
p239
S'morn'
p240
sS'use'
p241
S'abuse'
p242
sS'fee'
p243
S'me'
p244
sS'eye'
p245
S'history'
p246
sS'proceed'
p247
S'weed'
p248
sS'prove'
p249
S'love'
p250
sS'sake'
p251
S'partake'
p252
sS'contains'
p253
S'remains'
p254
sS'wrongs'
p255
S'belongs'
p256
sS'live'
p257
S'give'
p258
sS'doubt'
p259
S'out'
p260
sS'call'
p261
g64
sS'warmed'
p262
S'disarmed'
p263
sS'memory'
p264
S'eternity'
p265
sg188
g187
sS'scope'
p266
S'hope'
p267
sg170
S'liberty'
p268
sS'tell'
p269
S'hell'
p270
sS'more'
p271
S'abhor'
p272
sS'sort'
p273
S'report'
p274
sg140
g139
sS'knows'
p275
S'foes'
p276
sS'wary'
p277
S'chary'
p278
sS'fly'
p279
S'majesty'
p280
sS'brings'
p281
S'kings'
p282
sS'mad'
p283
S'bad'
p284
sS'foregone'
p285
S'moan'
p286
sS'heir'
p287
S'fair'
p288
sS'about'
p289
S'out'
p290
sS'reign'
p291
S'maintain'
p292
sS'grief'
p293
S'thief'
p294
sS'glass'
p295
S'was'
p296
sS'controlling'
p297
S'rolling'
p298
sS'excellent'
p299
g10
sS'gladly'
p300
S'sadly'
p301
sS'ward'
p302
S'guard'
p303
sS'doom'
p304
S'come'
p305
sS'glad'
p306
S'sad'
p307
sS'had'
p308
g283
sS'me'
p309
S'thee'
p310
sS'lust'
p311
S'trust'
p312
sg238
g237
sS'sheds'
p313
S'deeds'
p314
sS'room'
p315
g304
sS'hour'
p316
S'sour'
p317
sS'chide'
p318
S'provide'
p319
sS'this'
p320
S'kiss'
p321
sS'car'
p322
S'are'
p323
sS'ride'
p324
S'tied'
p325
sS'soul'
p326
S'control'
p327
sS'halt'
p328
S'fault'
p329
sS'purge'
p330
S'urge'
p331
sS'remain'
p332
S'brain'
p333
sg317
g316
sS'crossed'
p334
S'engrossed'
p335
sS'achieve'
p336
S'live'
p337
sS'praise'
p338
S'days'
p339
sS'growing'
p340
S'knowing'
p341
sS'meet'
p342
S'sweet'
p343
sS'befits'
p344
S'commits'
p345
sg246
S'eye'
p346
sS'control'
p347
S'soul'
p348
sS'heart'
p349
S'art'
p350
sS'compare'
p351
S'rare'
p352
sg29
g28
sS'bent'
p353
S'discontent'
p354
sS'grace'
p355
S'face'
p356
sS'give'
p357
S'live'
p358
sS'unjust'
p359
S'trust'
p360
sS'chase'
p361
S'face'
p362
sS'arise'
p363
S'eyes'
p364
sS'conspire'
p365
S'desire'
p366
sS"none'"
p367
S'one'
p368
sS'renewed'
p369
S'subdued'
p370
sS"grow'st"
p371
S"ow'st"
p372
sS'sense'
p373
g54
sS'sought'
p374
S'thought'
p375
sS'paws'
p376
S'jaws'
p377
sS'counterfeit'
p378
S'set'
p379
sS'end'
p380
S'spend'
p381
sS'sit'
p382
S'it'
p383
sg319
g318
sS'feature'
p384
S'creature'
p385
sS'write'
p386
S'quite'
p387
sS'how'
p388
S'now'
p389
sS'swear'
p390
S'bear'
p391
sg248
g247
sS'gate'
p392
S'state'
p393
sS'husbandry'
p394
S'posterity'
p395
sS'sin'
p396
S'begin'
p397
sS'dignified'
p398
S'dyed'
p399
sg385
g384
sS'simplicity'
p400
S'authority'
p401
sS'fever'
p402
S'never'
p403
sS'may'
p404
S'betray'
p405
sS'disgraced'
p406
S'misplaced'
p407
sg325
S'ride'
p408
sS'wights'
p409
S'knights'
p410
sS'wrong'
p411
S'tongue'
p412
sS'abuse'
p413
S'use'
p414
sS'blood'
p415
S'good'
p416
sS'date'
p417
S'invocate'
p418
sg252
S'sake'
p419
sS'tongue'
p420
S'wrong'
p421
sS'wronk'
p422
S'tongue'
p423
sS'man'
p424
S'can'
p425
sS'temperate'
p426
S'date'
p427
sS'short'
p428
S'report'
p429
sg232
g231
sS'untrimmed'
p430
S'dimmed'
p431
sS'light'
p432
S'might'
p433
sS'register'
p434
S'character'
p435
sS'greet'
p436
S'sweet'
p437
sS'think'
p438
S'drink'
p439
sS'defaced'
p440
S'down-rased'
p441
sS'chief'
p442
S'grief'
p443
sg292
S'reign'
p444
sS'writ'
p445
S'wit'
p446
sS'allow'
p447
S'brow'
p448
sS'pay'
p449
S'say'
p450
sS'pleasure'
p451
S'measure'
p452
sS'alack'
p453
S'back'
p454
sg184
g183
sS'wing'
p455
S'sing'
p456
sS'wind'
p457
S'find'
p458
sS'nearly'
p459
S'dearly'
p460
sS'determinate'
p461
S'estimate'
p462
sS'after-loss'
p463
S'cross'
p464
sS'receivest'
p465
S'deceivest'
p466
sS'indeed'
p467
S'read'
p468
sS'move'
p469
S'love'
p470
sS"o'erlook"
p471
S'book'
p472
sg335
g334
sg49
g48
sS'held'
p473
S'stelled'
p474
sS'fortify'
p475
S'memory'
p476
sg5
g4
sS"o'er-read"
p477
S'dead'
p478
sS'hell'
p479
S'tell'
p480
sS'cold'
p481
S'old'
p482
sS'still'
p483
S'ill'
p484
sS'wrought'
p485
S'thought'
p486
sS'before'
p487
S'more'
p488
sg441
g440
sS'refusest'
p489
S'usest'
p490
sS'discloses'
p491
S'roses'
p492
sS'derive'
p493
S'thrive'
p494
sS'decay'
p495
S'survey'
p496
sS'torn'
p497
S'forsworn'
p498
sg314
S'exceeds'
p499
sS'better'
p500
S'greater'
p501
sS'resort'
p502
S'sport'
p503
sS'dross'
p504
S'loss'
p505
sS'strange'
p506
S'change'
p507
sS'choose'
p508
S'lose'
p509
sS'fade'
p510
S'made'
p511
sS"play'st"
p512
S"sway'st"
p513
sS'weeks'
p514
S'cheeks'
p515
sS'main'
p516
S'gain'
p517
sS'bereft'
p518
S'left'
p519
sS"'greeing"
p520
S'seeing'
p521
sS'forbear'
p522
S'there'
p523
sg492
g491
sS'good'
p524
S'blood'
p525
sS'equipage'
p526
S'age'
p527
sS'thereby'
p528
S'die'
p529
sS'press'
p530
S'express'
p531
sS'thee'
p532
S'thee'
p533
sS'ye'
p534
S'me'
p535
sS'break'
p536
S'speak'
p537
sg124
g123
sS'endure'
p538
S'cure'
p539
sS'they'
p540
S'say'
p541
sS'weeds'
p542
S'deeds'
p543
sS'not'
p544
S'forgot'
p545
sS'now'
p546
S'bow'
p547
sS'complain'
p548
g291
sS'strive'
p549
S'alive'
p550
sS'name'
p551
S'shame'
p552
sS'feast'
p553
S'guest'
p554
sS'eloquence'
p555
S'recompense'
p556
sS'iniquity'
p557
S'antiquity'
p558
sS'slide'
p559
S'abide'
p560
sS'truth'
p561
S'youth'
p562
sS'wantonly'
p563
S'dye'
p564
sS'dulness'
p565
S'fulness'
p566
sS'side'
p567
S'pride'
p568
sS'luck'
p569
S'pluck'
p570
sS'devised'
p571
S'sympathized'
p572
sS'due'
p573
S'review'
p574
sg377
g376
sg397
g396
sS'oppressed'
p575
S'rest'
p576
sg228
g227
sS'decays'
p577
S'days'
p578
sS'year'
p579
S'everywhere'
p580
sS'array'
p581
S'gay'
p582
sS'spies'
p583
S'eyes'
p584
sS'out'
p585
g259
sS'contend'
p586
S'end'
p587
sS'respects'
p588
S'defects'
p589
sS'shown'
p590
S'own'
p591
sS'flower'
p592
S'power'
p593
sS'missed'
p594
S'subsist'
p595
sS"'"
S'kill'
p596
sS'open'
p597
S'broken'
p598
sg106
S'past'
p599
sS'sufficed'
p600
S'despised'
p601
sS'abide'
p602
g559
sS'increase'
p603
S'decease'
p604
sS'hill'
p605
g483
sS'mend'
p606
S'tend'
p607
sS'got'
p608
S'blot'
p609
sS'forth'
p610
S'worth'
p611
sg572
g571
sS'fled'
p612
S'head'
p613
sS'shows'
p614
S'foes'
p615
sS'afford'
p616
S'word'
p617
sS'asleep'
p618
S'keep'
p619
sg439
g438
sS'perish'
p620
S'cherish'
p621
sS'assured'
p622
S'cured'
p623
sS'belied'
p624
S'wide'
p625
sg216
g215
sS'commits'
p626
g344
sS'story'
p627
S'glory'
p628
sS'free'
p629
S'me'
p630
sS'quite'
p631
S'write'
p632
sS'gaol'
p633
S'bail'
p634
sS'qualify'
p635
S'lie'
p636
sS'plea'
p637
S'sea'
p638
sS'thrust'
p639
S'trust'
p640
sS'crowned'
p641
S'confound'
p642
sg462
g461
sS'yore'
p643
S'store'
p644
sS'knit'
p645
S'wit'
p646
sS"excuse'"
p647
g241
sS'care'
p648
S'are'
p649
sS'advance'
p650
S'ignorance'
p651
sg196
g195
sg623
S'assured'
p652
sS'embassage'
p653
S'vassalage'
p654
sS'created'
p655
S'defeated'
p656
sS'argument'
p657
S'spent'
p658
sS'attainted'
p659
S'acquainted'
p660
sg321
S'this'
p661
sS'days'
p662
S'praise'
p663
sS'keep'
p664
S'asleep'
p665
sS'thing'
p666
S'spring'
p667
sS'thine'
p668
S'mine'
p669
sS'place'
p670
S'face'
p671
sg556
g555
sS'hence'
p672
g125
sg71
g70
sS'ruinate'
p673
g22
sS'lay'
p674
S'say'
p675
sS'recite'
p676
S'quite'
p677
sS'seeming'
p678
S'esteeming'
p679
sS'feel'
p680
S'steel'
p681
sS'possessing'
p682
S'releasing'
p683
sS'earth'
p684
S'dearth'
p685
sS'one'
p686
S'none'
p687
sS'fits'
p688
S'hits'
p689
sS'enlarged'
p690
S'charged'
p691
sS'untrue'
p692
S'you'
p693
sS'done'
p694
S'sun'
p695
sg589
g588
sS'another'
p696
S'mother'
p697
sS'sounds'
p698
S'confounds'
p699
sg218
g217
sS'quality'
p700
S'astronomy'
p701
sS'affords'
p702
S'words'
p703
sS'fire'
p704
S'desire'
p705
sg286
S'upon'
p706
sS"love'"
p707
S'prove'
p708
sg301
g300
sg554
S'breast'
p709
sS'ordering'
p710
g175
sS'least'
p711
S'possessed'
p712
sS'grow'
p713
S'so'
p714
sS'too'
p715
S'do'
p716
sS'intelligence'
p717
S'thence'
p718
sS'dwell'
p719
S'tell'
p720
sS'white'
p721
S'delight'
p722
sS'jade'
p723
S'made'
p724
sS'store'
p725
S'more'
p726
sS'lease'
p727
S'excess'
p728
sS'hue'
p729
S'grew'
p730
sS'eyes'
p731
S'lies'
p732
sS'stars'
p733
S'bars'
p734
sS'cup'
p735
S'up'
p736
sS'took'
p737
S'look'
p738
sS'shore'
p739
S'store'
p740
sS'part'
p741
S'heart'
p742
sS'bower'
p743
S'power'
p744
sS'eyed'
p745
S'pride'
p746
sg176
S'sing'
p747
sS'flowers'
p748
g163
sS'commence'
p749
g373
sS'blind'
p750
S'mind'
p751
sg435
g434
sg681
g680
sS'wide'
p752
g624
sS'kind'
p753
S'behind'
p754
sS'grew'
p755
S'hue'
p756
sS"o'er"
p757
g487
sS'require'
p758
S'desire'
p759
sS'depends'
p760
S'amends'
p761
sS'bed'
p762
S'head'
p763
sS'youth'
p764
S'truth'
p765
sS'matter'
p766
S'flatter'
p767
sS'determined'
p768
S'impanelled'
p769
sS'thrall'
p770
S'perpetual'
p771
sS'friend'
p772
S'spend'
p773
sg9
g8
sS'lover'
p774
S'cover'
p775
sg410
g409
sg162
g161
sS'steep'
p776
g618
sS'expiate'
p777
S'date'
p778
sS'fashion'
p779
S'passion'
p780
sS'correction'
p781
S'infection'
p782
sS'mind'
p783
S'blind'
p784
sS'mine'
p785
S'thine'
p786
sg307
g306
sg57
g56
sS'threw'
p787
S"you'"
p788
sS'say'
p789
g674
sg122
g121
sS'buried'
p790
S'dead'
p791
sS'have'
p792
S'grave'
p793
sS're-survey'
p794
S'day'
p795
sS'need'
p796
S'exceed'
p797
sS'seen'
p798
S'green'
p799
sS'seem'
p800
S'esteem'
p801
sS'admire'
p802
S'desire'
p803
sS'pry'
p804
S'jealousy'
p805
sS'any'
p806
S'many'
p807
sS'contents'
p808
S'monuments'
p809
sS'sell'
p810
S'well'
p811
sS'lie'
p812
S'defy'
p813
sS'bough'
p814
S'now'
p815
sS'reeks'
p816
S'cheeks'
p817
sS'gravity'
p818
S'eye'
p819
sg771
g770
sS'note'
p820
S'dote'
p821
sS'sound'
p822
S'ground'
p823
sS'chest'
p824
g14
sS'edge'
p825
S'privilege'
p826
sS'take'
p827
S'sake'
p828
sS'green'
p829
S'seen'
p830
sg278
g277
sg331
g330
sS'play'
p831
S'away'
p832
sS'adieu'
p833
S'you'
p834
sS'pain'
p835
S'gain'
p836
sS'shade'
p837
S'made'
p838
sS'dearer'
p839
S'clearer'
p840
sg840
g839
sS'falls'
p841
S'calls'
p842
sS'most'
p843
S'lost'
p844
sS'said'
p845
S'allayed'
p846
sS'staineth'
p847
S'disdaineth'
p848
sS'amazeth'
p849
S'gazeth'
p850
sg180
g179
sS'gait'
p851
S'state'
p852
sg102
g101
sS'why'
p853
S'lie'
p854
sg793
g792
sg212
g211
sS'deny'
p855
S'lie'
p856
sS'cause'
p857
S'laws'
p858
sS'clear'
p859
S'where'
p860
sg509
g508
sg775
g774
sS'disease'
p861
S'please'
p862
sS'face'
p863
g361
sS'unbred'
p864
S'dead'
p865
sS'amis'
p866
S'is'
p867
sS'convertest'
p868
S'departest'
p869
sg691
g690
sg574
S'due'
p870
sS'fitted'
p871
S'committed'
p872
sg858
g857
sS'deface'
p873
g670
sS'discontent'
p874
g353
sS'despise'
p875
S'eyes'
p876
sS'bait'
p877
S'straight'
p878
sS'show'
p879
S'so'
p880
sg862
g861
sS'queen'
p881
S'seen'
p882
sg37
g36
sS'bring'
p883
S'sing'
p884
sS'bright'
p885
S'night'
p886
sg268
S'injury'
p887
sS'untold'
p888
S'hold'
p889
sS'fear'
p890
S'dear'
p891
sg634
g633
sS'find'
p892
S'blind'
p893
sS'viewest'
p894
S'renewest'
p895
sS'ground'
p896
S'found'
p897
sS'ear'
p898
S'bear'
p899
sS'deserts'
p900
S'parts'
p901
sS'spite'
p902
S'might'
p903
sS'treasure'
p904
S'pleasure'
p905
sS'state'
p906
S'hate'
p907
sS'enclose'
p908
S'rose'
p909
sS'crime'
p910
S'time'
p911
sS'tears'
p912
S'clears'
p913
sS'won'
p914
S'son'
p915
sS'black'
p916
S'lack'
p917
sS'betray'
p918
S'may'
p919
sS'fiend'
p920
S'end'
p921
sS'fuel'
p922
S'cruel'
p923
sS'stain'
p924
S'again'
p925
sS'hope'
p926
S'scope'
p927
sS'loved'
p928
S'proved'
p929
sg154
g153
sS'abused'
p930
S'used'
p931
sS'his'
p932
S'is'
p933
sg51
g50
sS'gains'
p934
S'veins'
p935
sS'forsworn'
p936
g497
sg809
g808
sS'compiled'
p937
S'filed'
p938
sg531
g530
sg899
g390
sS'scorn'
p939
S'forsworn'
p940
sS'remedy'
p941
S'by'
p942
sg224
g223
sS'breast'
p943
S'guest'
p944
sS'words'
p945
S'affords'
p946
sS'report'
p947
S'sort'
p948
sg564
g563
sS'chips'
p949
S'lips'
p950
sS'him'
p951
S'trim'
p952
sg867
S'amiss'
p953
sS'prime'
p954
S'time'
p955
sS'heretic'
p956
S'politic'
p957
sS'bar'
p958
S'war'
p959
sS'glory'
p960
S'story'
p961
sS'brain'
p962
S'remain'
p963
sS'cry'
p964
S'jollity'
p965
sg769
g768
sS'remove'
p966
S'love'
p967
sS'bad'
p968
S'mad'
p969
sg679
g678
sS'forsake'
p970
S'make'
p971
sS'contain'
p972
g962
sg761
g760
sS'kill'
p973
S"'"
sS'told'
p974
S'old'
p975
sS'where'
p976
S'appear'
p977
sS'anticipate'
p978
S'state'
p979
sS'view'
p980
S'true'
p981
sS'unprovident'
p982
S'evident'
p983
sg734
g733
sS'set'
p984
S'debt'
p985
sS'art'
p986
S'heart'
p987
sS'fair'
p988
S'despair'
p989
sS'declines'
p990
S'shines'
p991
sS'frame'
p992
S'same'
p993
sg872
g871
sS'deemed'
p994
S'esteemed'
p995
sS'transferred'
p996
S'erred'
p997
sS'see'
p998
S'constancy'
p999
sS'legacy'
p1000
g629
sS'dumb'
p1001
S'tomb'
p1002
sg323
S'care'
p1003
sg638
g637
sS'bark'
p1004
S'mark'
p1005
sS'sport'
p1006
g502
sS'plight'
p1007
S'night'
p1008
sS'best'
p1009
S'suppressed'
p1010
sg965
g964
sS"bestow'st"
p1011
g371
sS'away'
p1012
S'day'
p1013
sS'afloat'
p1014
S'boat'
p1015
sS'ornament'
p1016
g26
sg156
g155
sS'tend'
p1017
S'mend'
p1018
sS'wilful-slow'
p1019
S'go'
p1020
sS'mud'
p1021
S'bud'
p1022
sS'behind'
p1023
S'kind'
p1024
sg869
g868
sg989
S'fair'
p1025
sS'woe'
p1026
S'so'
p1027
sS'rite'
p1028
S'might'
p1029
sS'presage'
p1030
S'age'
p1031
sg494
g493
sS'lays'
p1032
S'days'
p1033
sg341
g340
sg403
g402
sg716
g715
sS'amen'
p1034
S'pen'
p1035
sg47
g46
sg172
g171
sS'were'
p1036
S'near'
p1037
sS'flow'
p1038
g1026
sg570
g569
sg651
g650
sS'blame'
p1039
S'shame'
p1040
sg848
g847
sS'wear'
p1041
S'bear'
p1042
sS'key'
p1043
g203
sg985
S'set'
p1044
sS'come'
p1045
S'doom'
p1046
sS'tyranny'
p1047
S'incertainty'
p1048
sg615
g275
sg689
g688
sS'latch'
p1049
S'catch'
p1050
sS'last'
p1051
S'taste'
p1052
sS'disdain'
p1053
S'pain'
p1054
sg807
g806
sS'ill'
p1055
S'skill'
p1056
sS'thence'
p1057
g717
sS'minds'
p1058
S'winds'
p1059
sS'anon'
p1060
S'alone'
p1061
sS'faces'
p1062
S'graces'
p1063
sg499
S'deeds'
p1064
sS'canopy'
p1065
S'eternity'
p1066
sS'expense'
p1067
g86
sS'approve'
p1068
S'love'
p1069
sS'finds'
p1070
g1058
sS'comment'
p1071
S'moment'
p1072
sg490
g489
sS'hold'
p1073
g888
sS'majesty'
p1074
g279
sS'bell'
p1075
S'dwell'
p1076
sg226
g225
sS'sweet'
p1077
g436
sS'loan'
p1078
g686
sg728
S'lease'
p1079
sS'smother'
p1080
S'other'
p1081
sS'dispatch'
p1082
S'catch'
p1083
sS'commend'
p1084
g606
sS'slain'
p1085
S'pain'
p1086
sS'beguiled'
p1087
S'child'
p1088
sg174
S'alone'
p1089
sS'respect'
p1090
S'defect'
p1091
sS'over-plus'
p1092
S'thus'
p1093
sg640
g359
sg1015
g1014
sg537
g536
sS'spacious'
p1094
S'gracious'
p1095
sS'devil'
p1096
S'evil'
p1097
sg895
g894
sg131
S'sun'
p1098
sS'deceive'
p1099
S'leave'
p1100
sS'alchemy'
p1101
g24
sS'been'
p1102
S'seen'
p1103
sg1005
g1004
sS'twain'
p1104
S'gain'
p1105
sS'devise'
p1106
S'eyes'
p1107
sg256
g255
sS'west'
p1108
S'east'
p1109
sS'interest'
p1110
S'arrest'
p1111
sg1048
g1047
sg826
g825
sS'waste'
p1112
S'taste'
p1113
sS'define'
p1114
S'mine'
p1115
sS'life'
p1116
S'knife'
p1117
sS'leisure'
p1118
S'pleasure'
p1119
sg997
g996
sS'painted'
p1120
S'acquainted'
p1121
sg90
g89
sg683
g682
sg208
g207
sg144
S'respect'
p1122
sS'accident'
p1123
g874
sS'awake'
p1124
g251
sg821
S'denote'
p1125
sg1088
g1087
sg1050
g1082
sS'masonry'
p1126
S'memory'
p1127
sS'overturn'
p1128
S'burn'
p1129
sg466
g465
sS'those'
p1130
S'grows'
p1131
sg1095
g1094
sS'case'
p1132
S'place'
p1133
sS'look'
p1134
S'book'
p1135
sg1029
S'sight'
p1136
sg878
g877
sg425
g424
sS'air'
p1137
S'fair'
p1138
sS'will'
p1139
S'still'
p1140
sg85
g84
sS'near'
p1141
S'were'
p1142
sg539
g538
sS'suppose'
p1143
g1130
sS'none'
p1144
S'one'
p1145
sg329
g328
sS'aid'
p1146
S'decayed'
p1147
sS'endured'
p1148
S'assured'
p1149
sS'invited'
p1150
S'delighted'
p1151
sS'rent'
p1152
S'spent'
p1153
sS'kindness'
p1154
S'blindness'
p1155
sg164
S'hours'
p1156
sS'recured'
p1157
g622
sS'brow'
p1158
S'allow'
p1159
sS'foiled'
p1160
S'toiled'
p1161
sg1093
g1092
sS'it'
p1162
S'sit'
p1163
sg656
g655
sS'confound'
p1164
S'crowned'
p1165
sS'shame'
p1166
g1039
sg98
g97
sS'sits'
p1167
g626
sS'fame'
p1168
S'name'
p1169
sg198
g197
sS'mute'
p1170
S'fruit'
p1171
sS'seek'
p1172
S'cheek'
p1173
sg971
S'sake'
p1174
sS'belong'
p1175
S'wrong'
p1176
sS'cross'
p1177
g463
sS'same'
p1178
S'name'
p1179
sS'proceeds'
p1180
S'deeds'
p1181
sS'beside'
p1182
S'pride'
p1183
sg901
S'hearts'
p1184
sg706
S'moan'
p1185
sS'distilled'
p1186
S'self-killed'
p1187
sS'esteemed'
p1188
S'deemed'
p1189
sg929
g928
sS'grows'
p1190
S'those'
p1191
sg931
g930
sg110
g109
sg813
S'lie'
p1192
sg142
g141
sg83
g82
sS'effect'
p1193
S'respect'
p1194
sg1097
g1096
sS'hand'
p1195
S'brand'
p1196
sS'delight'
p1197
S'white'
p1198
sS'kept'
p1199
S'except'
p1200
sg1072
g1071
sg1171
S'mute'
p1201
sS'moving'
p1202
S'loving'
p1203
sS'weep'
p1204
g664
sS'so'
p1205
S'no'
p1206
sS'score'
p1207
S'more'
p1208
sS'i'
S'be'
p1209
sg712
g711
sg1173
g1172
sS'well'
p1210
S'hell'
p1211
sS'spent'
p1212
g1152
sS'grind'
p1213
S'confined'
p1214
sg375
S'nought'
p1215
sS'brood'
p1216
g415
sS'cheer'
p1217
S'near'
p1218
sg190
S'boast'
p1219
sS'relief'
p1220
g293
sS'mother'
p1221
S'another'
p1222
sg913
S'tears'
p1223
sg1184
S'parts'
p1224
sg474
S'held'
p1225
sS'arising'
p1226
S'despising'
p1227
sS'spend'
p1228
S'friend'
p1229
sg519
g518
sS'things'
p1230
S'kings'
p1231
sS'stout'
p1232
g585
sg94
g93
sS'being'
p1233
S'seeing'
p1234
sS'fears'
p1235
g912
sg135
g134
sg460
g459
sS'forsaken'
p1236
S'taken'
p1237
sg576
S"'"
sS'aside'
p1238
S'bide'
p1239
sS'cries'
p1240
S'eyes'
p1241
sS'cease'
p1242
S'increase'
p1243
sS'disperse'
p1244
S'verse'
p1245
sS'aspect'
p1246
g1090
sS'prognosticate'
p1247
g417
sS'skill'
p1248
S'ill'
p1249
sS'keen'
p1250
S'unseen'
p1251
sS'speed'
p1252
g796
sS'injuries'
p1253
S'enemies'
p1254
sg67
g66
sS'blot'
p1255
g608
sg513
g512
sS'field'
p1256
g473
sg909
S'those'
p1257
sg1147
g1146
sg452
S'pleasure'
p1258
sS'sky'
p1259
S'memory'
p1260
sg1200
g1199
sg1059
S'minds'
p1261
sS'day'
p1262
g40
sg1111
g1110
sS'verse'
p1263
g62
sS'spread'
p1264
g790
sg1010
S'best'
p1265
sS'beloved'
p1266
S'removed'
p1267
sS'overthrow'
p1268
S'woe'
p1269
sg1109
S'west'
p1270
sS'frown'
p1271
S'down'
p1272
sS'fate'
p1273
g906
sg79
S'die'
p1274
sg468
g467
sS'offence'
p1275
S'defence'
p1276
sS'advocate'
p1277
S'hate'
p1278
sS'mow'
p1279
S'brow'
p1280
sS'redeem'
p1281
S'esteem'
p1282
sg566
g565
sS'know'
p1283
S'so'
p1284
sg1251
g1250
sS'pilgrimage'
p1285
S'age'
p1286
sS'confined'
p1287
g1213
sg160
g159
sg114
g113
sS'you'
p1288
S'true'
p1289
sg366
S'fire'
p1290
sS'loss'
p1291
g504
sg1121
g659
sg844
S'most'
p1292
sS'tendered'
p1293
S'remembered'
p1294
sg935
g934
sS"hate'"
p1295
S'state'
p1296
sS'clay'
p1297
S'decay'
p1298
sS'strife'
p1299
S'life'
p1300
sS'night'
p1301
S'bright'
p1302
sS'tribes'
p1303
S'subscribes'
p1304
sS'page'
p1305
S'age'
p1306
sS'fulfil'
p1307
S"'will'"
p1308
sS'decease'
p1309
S'increase'
p1310
sg797
S'need'
p1311
sS'right'
p1312
S'sight'
p1313
sS'old'
p1314
S'told'
p1315
sS'spring'
p1316
S'sing'
p1317
sS'thief'
p1318
S'grief'
p1319
sg791
S'bred'
p1320
sS'born'
p1321
g103
sg950
g949
sS'sight'
p1322
S'might'
p1323
sg282
g1230
sg891
S'there'
p1324
sS'divine'
p1325
S'thine'
p1326
sg1254
g1253
sg558
g557
sS'noon'
p1327
S'son'
p1328
sS'rehearse'
p1329
S'verse'
p1330
sS'confounds'
p1331
S'sounds'
p1332
sg780
g779
sg128
S'hide'
p1333
sS'knife'
p1334
S'life'
p1335
sS'be'
p1336
S'i'
sS'bold'
p1337
S'behold'
p1338
sg593
g743
sS'plot'
p1339
S'not'
p1340
sS'remembered'
p1341
g1293
sg617
g616
sg1129
g1128
sS'ruining'
p1342
S'honouring'
p1343
sg598
g597
sS'expire'
p1344
S'fire'
p1345
sS'found'
p1346
S'ground'
p1347
sg395
g193
sS'by'
p1348
S'remedy'
p1349
sS'shaken'
p1350
S'taken'
p1351
sS'stage'
p1352
S'rage'
p1353
sS'shine'
p1354
S'thine'
p1355
sS'on'
p1356
S'groan'
p1357
sS'stone'
p1358
g1144
sg370
g369
sS'rare'
p1359
S'compare'
p1360
sg501
g500
sS'indigest'
p1361
S'best'
p1362
sg254
g253
sS'her'
p1363
g1363
sg782
g781
sS'stand'
p1364
S'hand'
p1365
sg621
g620
sg150
S'dumb'
p1366
sS'book'
p1367
g471
sg407
g406
sS'repair'
p1368
S'fair'
p1369
sS'own'
p1370
S'shown'
p1371
sS'depart'
p1372
S'heart'
p1373
sS'owe'
p1374
S'show'
p1375
sg263
g262
sg1215
S'thought'
p1376
sg1151
g1150
sg1328
g914
sg1272
g1271
sS'lies'
p1377
S'eyes'
p1378
sg303
g302
sg1282
S'seem'
p1379
sg850
g849
sg1343
g1342
sg550
g549
sg601
g600
sS'prepare'
p1380
S'are'
p1381
sg1304
g1303
sS'there'
p1382
S'near'
p1383
sg805
g804
sS'unrespected'
p1384
S'directed'
p1385
sg178
S'song'
p1386
sS'fight'
p1387
S'light'
p1388
sg515
g816
sS'way'
p1389
S'say'
p1390
sg767
g766
sg240
g239
sS'translate'
p1391
S'state'
p1392
sg296
g111
sg959
g958
sS'carcanet'
p1393
g984
sg763
S'fled'
p1394
sS'elsewhere'
p1395
g1141
sg1357
S'alone'
p1396
sg999
S'see'
p1397
sg788
g787
sg1308
g1307
sS'brand'
p1398
S'hand'
p1399
sg418
S'date'
p1400
sg454
g453
sS'prophecies'
p1401
S'eyes'
p1402
sS'taken'
p1403
g1236
sg1105
S'pain'
p1404
sg938
g937
sS'astonished'
p1405
S'dead'
p1406
sg1155
g1154
sS'line'
p1407
S'mine'
p1408
sg1267
g1266
sS'true'
p1409
S'view'
p1410
sg1022
g1021
sS'usury'
p1411
S'thee'
p1412
sg1385
g1384
sg75
g74
sS'made'
p1413
S'fade'
p1414
sg983
g982
sS'rage'
p1415
S'age'
p1416
sg736
g735
sS'niggarding'
p1417
g1316
sg957
g956
sg923
S'jewel'
p1418
sS'impute'
p1419
g1170
sS'anew'
p1420
S'true'
p1421
sS'monument'
p1422
S'spent'
p1423
sg1239
S'aside'
p1424
sg1203
g191
sg654
g653
sg952
g951
sS'gone'
p1425
S'moan'
p1426
sS'intents'
p1427
S'accidents'
p1428
sS'bred'
p1429
S'dead'
p1430
sS'disgrace'
p1431
S'face'
p1432
sg100
g99
sS'bind'
p1433
S'kind'
p1434
sg1113
g1051
sS'stronger'
p1435
S'longer'
p1436
sg846
g845
sg685
g684
sg1125
S'dote'
p1437
sg1161
g1160
sS'deem'
p1438
g800
sg595
g594
sS'pen'
p1439
g1034
sg991
g990
sg1187
g1186
sg166
g165
sg401
g400
sS'fill'
p1440
S'ill'
p1441
sS'again'
p1442
g924
sS'gay'
p1443
g581
sg1206
S'so'
p1444
sS'excel'
p1445
g719
sg431
g430
sg158
S'men'
p1446
sg1227
g1226
sg1081
g1080
sg372
S"grow'st"
p1447
sS'behold'
p1448
S'bold'
p1449
sS'smell'
p1450
S'tell'
p1451
sS'eternity'
p1452
g1065
sS'aright'
p1453
S'sight'
p1454
sS'lend'
p1455
S'friend'
p1456
sg200
g199
sS'forgot'
p1457
S'not'
p1458
sS'decree'
p1459
S'be'
p1460
sS'stay'
p1461
S'away'
p1462
sS'muse'
p1463
S'use'
p1464
sg298
g297
sg701
g700
sg521
g1233
sS'desert'
p1465
g58
sS'ghost'
p1466
S'boast'
p1467
sS'land'
p1468
g1364
sg1436
g1435
sg842
g841
sS'wife'
p1469
g1116
sg1286
g1305
sg1418
S'cruel'
p1470
sg399
g398
sS'repay'
p1471
S'day'
p1472
sS'time'
p1473
S'crime'
p1474
sg580
S'there'
p1475
sg1428
g1427
sg272
S'more'
p1476
sS'unset'
p1477
g378
s.