(dp1
S'fawn'
p2
(lp3
I1
asS'pardon'
p4
(lp5
I2
asS'both'
p6
(lp7
I1
asS'yellow'
p8
(lp9
I2
asS'four'
p10
(lp11
I1
asS'hath'
p12
(lp13
I1
asS'sleep'
p14
(lp15
I1
asS"friend's"
p16
(lp17
I1
asS'hanging'
p18
(lp19
I2
asS'mansion'
p20
(lp21
I2
asS'appetite'
p22
(lp23
I3
asS'captain'
p24
(lp25
I2
asS'hate'
p26
(lp27
I1
asS'poorly'
p28
(lp29
I2
asS'whose'
p30
(lp31
I1
asS'feeding'
p32
(lp33
I2
asS'pointing'
p34
(lp35
I2
asS'granting'
p36
(lp37
I2
asS"wretch's"
p38
(lp39
I1
asS'sweetest'
p40
(lp41
I2
asS'presents'
p42
(lp43
I2
asS'whatsoever'
p44
(lp45
I4
asS'under'
p46
(lp47
I2
asS'lord'
p48
(lp49
I1
asS'sorry'
p50
(lp51
I2
asS'pride'
p52
(lp53
I1
asS'sway'
p54
(lp55
I1
asS'worth'
p56
(lp57
I1
asS'frowns'
p58
(lp59
I1
asS'discased'
p60
(lp61
I2
asS'dispense'
p62
(lp63
I2
asS'desired'
p64
(lp65
I3
asS'rise'
p66
(lp67
I1
asS'inhearse'
p68
(lp69
I2
asS"women's"
p70
(lp71
I2
asS'every'
p72
(lp73
I2
aI3
asS'foul'
p74
(lp75
I1
asS'nourished'
p76
(lp77
I2
asS'utmost'
p78
(lp79
I2
asS'prizing'
p80
(lp81
I2
asS'uttering'
p82
(lp83
I3
asS'prize'
p84
(lp85
I1
asS'sunk'
p86
(lp87
I1
asS'graced'
p88
(lp89
I1
asS'succession'
p90
(lp91
I3
asS'graces'
p92
(lp93
I2
asS'triumph'
p94
(lp95
I2
asS"consum'st"
p96
(lp97
I2
asS'enjoy'
p98
(lp99
I2
asS'charter'
p100
(lp101
I2
asS'force'
p102
(lp103
I1
asS'tired'
p104
(lp105
I2
asS'awake'
p106
(lp107
I2
asS'razed'
p108
(lp109
I1
asS'feathers'
p110
(lp111
I2
asS'tires'
p112
(lp113
I2
asS'crave'
p114
(lp115
I1
asS'persuade'
p116
(lp117
I2
asS'down-rased'
p118
(lp119
I2
asS'happies'
p120
(lp121
I2
asS'quill'
p122
(lp123
I1
asS'even'
p124
(lp125
I2
asS'beated'
p126
(lp127
I2
asS'evermore'
p128
(lp129
I3
asS'hide'
p130
(lp131
I1
asS"ne'er"
p132
(lp133
I1
asS'solemn'
p134
(lp135
I2
asS'thunder'
p136
(lp137
I2
asS'fingers'
p138
(lp139
I2
asS'liberty'
p140
(lp141
I3
asS"gild'st"
p142
(lp143
I1
asS'worser'
p144
(lp145
I2
asS'wakened'
p146
(lp147
I2
asS'above'
p148
(lp149
I2
asS'matcheth'
p150
(lp151
I2
asS'new'
p152
(lp153
I1
asS'increasing'
p154
(lp155
I3
asS'ever'
p156
(lp157
I2
asS'told'
p158
(lp159
I1
asS'deemed'
p160
(lp161
I1
asS'merchandized'
p162
(lp163
I3
asS'sinks'
p164
(lp165
I1
asS'never'
p166
(lp167
I2
asS'here'
p168
(lp169
I1
asS'herd'
p170
(lp171
I1
asS'beck'
p172
(lp173
I1
asS"sweet'st"
p174
(lp175
I1
asS'pursuit'
p176
(lp177
I2
asS'amazeth'
p178
(lp179
I3
asS'active'
p180
(lp181
I2
asS'spies'
p182
(lp183
I1
asS'a-doting'
p184
(lp185
I3
asS'effectually'
p186
(lp187
I4
asS'dry'
p188
(lp189
I1
asS'resty'
p190
(lp191
I2
asS'substance'
p192
(lp193
I2
asS'gaol'
p194
(lp195
I1
asS'leaves'
p196
(lp197
I1
asS'climbed'
p198
(lp199
I1
asS'credit'
p200
(lp201
I2
asS'smoke'
p202
(lp203
I1
asS'permit'
p204
(lp205
I2
asS'bettered'
p206
(lp207
I2
asS'weakens'
p208
(lp209
I2
asS'settled'
p210
(lp211
I2
asS'golden'
p212
(lp213
I2
asS'swearing'
p214
(lp215
I2
asS'divide'
p216
(lp217
I2
asS'blessed-fair'
p218
(lp219
I3
asS'sorrows'
p220
(lp221
I2
asS'patience'
p222
(lp223
I2
asS'stern'
p224
(lp225
I1
asS'glance'
p226
(lp227
I1
asS"light's"
p228
(lp229
I1
asS'plot'
p230
(lp231
I1
asS'would'
p232
(lp233
I1
asS'crowning'
p234
(lp235
I2
asS"world's"
p236
(lp237
I1
asS'junes'
p238
(lp239
I1
asS'music'
p240
(lp241
I2
asS'therefore'
p242
(lp243
I2
asS'survive'
p244
(lp245
I2
asS'gilding'
p246
(lp247
I2
asS'tell'
p248
(lp249
I1
asS'breathe'
p250
(lp251
I1
asS'leese'
p252
(lp253
I1
asS'posting'
p254
(lp255
I2
asS'holy'
p256
(lp257
I2
asS'wary'
p258
(lp259
I2
asS'brings'
p260
(lp261
I1
asS'muse'
p262
(lp263
I1
asS'hurt'
p264
(lp265
I1
asS'grief'
p266
(lp267
I1
asS'glass'
p268
(lp269
I1
asS'warm'
p270
(lp271
I1
asS'excellent'
p272
(lp273
I3
asS'robbing'
p274
(lp275
I2
asS'ward'
p276
(lp277
I1
asS'hold'
p278
(lp279
I1
asS'striving'
p280
(lp281
I2
asS'must'
p282
(lp283
I1
asS'me'
p284
(lp285
I1
asS'locked'
p286
(lp287
I1
asS'room'
p288
(lp289
I1
asS'err'
p290
(lp291
I1
asS'rights'
p292
(lp293
I1
asS'work'
p294
(lp295
I1
asS'eclipse'
p296
(lp297
I2
asS'roof'
p298
(lp299
I1
asS'meadows'
p300
(lp301
I2
asS'ere'
p302
(lp303
I1
asS"batt'ring"
p304
(lp305
I2
asS'leaped'
p306
(lp307
I1
asS'revenues'
p308
(lp309
I3
asS'my'
p310
(lp311
I1
asS'example'
p312
(lp313
I3
asS'shook'
p314
(lp315
I1
asS'fresher'
p316
(lp317
I2
asS'wane'
p318
(lp319
I1
asS'unjust'
p320
(lp321
I2
asS'honey'
p322
(lp323
I2
asS"wand'rest"
p324
(lp325
I2
asS'want'
p326
(lp327
I1
asS'story'
p328
(lp329
I2
asS'returned'
p330
(lp331
I2
asS'ceremony'
p332
(lp333
I4
asS'end'
p334
(lp335
I1
asS'thing'
p336
(lp337
I1
asS'provide'
p338
(lp339
I2
asS'dignifies'
p340
(lp341
I3
asS'travel'
p342
(lp343
I2
asS'song'
p344
(lp345
I1
asS'feature'
p346
(lp347
I2
asS'wights'
p348
(lp349
I1
asS'faults'
p350
(lp351
I1
asS'hot'
p352
(lp353
I1
asS'writers'
p354
(lp355
I2
asS'answer'
p356
(lp357
I2
asS'gate'
p358
(lp359
I1
asS'dignified'
p360
(lp361
I3
asS"o'er-snowed"
p362
(lp363
I3
asS'blanks'
p364
(lp365
I1
asS'beauty'
p366
(lp367
I2
asS'shorn'
p368
(lp369
I1
asS'after'
p370
(lp371
I2
asS'wrong'
p372
(lp373
I1
asS'lay'
p374
(lp375
I1
asS'lap'
p376
(lp377
I1
asS'wronk'
p378
(lp379
I1
asS"grow'st"
p380
(lp381
I1
asS'grant'
p382
(lp383
I1
asS'revolt'
p384
(lp385
I2
asS'greet'
p386
(lp387
I1
asS'purging'
p388
(lp389
I2
asS'wink'
p390
(lp391
I1
asS'maintain'
p392
(lp393
I2
asS'green'
p394
(lp395
I1
asS'keeps'
p396
(lp397
I1
asS'enjoyer'
p398
(lp399
I3
asS'alack'
p400
(lp401
I2
asS'masonry'
p402
(lp403
I3
asS'wing'
p404
(lp405
I1
asS'wind'
p406
(lp407
I1
asS'bed-vow'
p408
(lp409
I2
asS'determinate'
p410
(lp411
I4
asS'couplement'
p412
(lp413
I3
asS'untold'
p414
(lp415
I2
asS'office'
p416
(lp417
I2
asS'consent'
p418
(lp419
I2
asS'profaned'
p420
(lp421
I2
asS'sickly'
p422
(lp423
I2
asS'fortify'
p424
(lp425
I3
asS'ghastly'
p426
(lp427
I2
asS"o'er-read"
p428
(lp429
I3
asS'budding'
p430
(lp431
I2
asS"bestow'st"
p432
(lp433
I2
asS'wrought'
p434
(lp435
I1
asS'before'
p436
(lp437
I2
asS'thrust'
p438
(lp439
I1
asS'better'
p440
(lp441
I2
asS'fade'
p442
(lp443
I1
asS'carve'
p444
(lp445
I1
asS'hidden'
p446
(lp447
I2
asS'savour'
p448
(lp449
I2
asS'then'
p450
(lp451
I1
asS'them'
p452
(lp453
I1
asS'blots'
p454
(lp455
I1
asS'vouchsafe'
p456
(lp457
I2
asS'weakness'
p458
(lp459
I2
asS'thee'
p460
(lp461
I1
asS"truth's"
p462
(lp463
I1
asS'break'
p464
(lp465
I1
asS"winter's"
p466
(lp467
I2
asS'diseased'
p468
(lp469
I2
asS'they'
p470
(lp471
I1
asS'glazed'
p472
(lp473
I1
asS"lovers'"
p474
(lp475
I2
asS'silver'
p476
(lp477
I2
asS'shadows'
p478
(lp479
I2
asS'rhetoric'
p480
(lp481
I3
asS'brightness'
p482
(lp483
I2
asS'slavery'
p484
(lp485
I3
asS'rocks'
p486
(lp487
I1
asS'herald'
p488
(lp489
I2
asS'victories'
p490
(lp491
I2
aI3
asS'each'
p492
(lp493
I1
asS'wantonly'
p494
(lp495
I3
asS'dulness'
p496
(lp497
I2
asS'went'
p498
(lp499
I1
asS'side'
p500
(lp501
I1
asS'bond'
p502
(lp503
I1
asS'true-telling'
p504
(lp505
I2
asS'woes'
p506
(lp507
I1
asS'concord'
p508
(lp509
I2
asS"'will'"
p510
(lp511
I1
asS'taught'
p512
(lp513
I1
asS'forgot'
p514
(lp515
I2
asS'misprision'
p516
(lp517
I3
asS'whit'
p518
(lp519
I1
asS'truant'
p520
(lp521
I2
asS'sounds'
p522
(lp523
I1
asS'borne'
p524
(lp525
I1
asS'contend'
p526
(lp527
I2
asS'silvered'
p528
(lp529
I2
asS'decree'
p530
(lp531
I2
asS'god'
p532
(lp533
I1
asS'forty'
p534
(lp535
I2
asS'moiety'
p536
(lp537
I2
asS'content'
p538
(lp539
I2
asS'laid'
p540
(lp541
I1
asS'heart-inflaming'
p542
(lp543
I4
asS'heavenly'
p544
(lp545
I3
asS'got'
p546
(lp547
I1
asS'marigold'
p548
(lp549
I3
asS'forth'
p550
(lp551
I1
asS'assured'
p552
(lp553
I2
asS'fadeth'
p554
(lp555
I2
asS'tops'
p556
(lp557
I1
asS'eternal'
p558
(lp559
I3
asS'little'
p560
(lp561
I2
asS'free'
p562
(lp563
I1
asS'mourning'
p564
(lp565
I2
asS'small'
p566
(lp567
I1
asS'bestow'
p568
(lp569
I2
asS'whereupon'
p570
(lp571
I3
asS'rain'
p572
(lp573
I1
asS"t'"
p574
(lp575
I1
asS'rearward'
p576
(lp577
I2
asS'crowned'
p578
(lp579
I1
asS'mistress'
p580
(lp581
I2
asS'knit'
p582
(lp583
I1
asS'delves'
p584
(lp585
I1
asS'created'
p586
(lp587
I3
asS'days'
p588
(lp589
I1
asS'ordering'
p590
(lp591
I3
asS'renew'
p592
(lp593
I2
asS'tempting'
p594
(lp595
I2
asS'tied'
p596
(lp597
I1
asS'potions'
p598
(lp599
I2
asS'loud'
p600
(lp601
I1
asS'ruinate'
p602
(lp603
I3
asS'penury'
p604
(lp605
I3
asS'recite'
p606
(lp607
I2
asS'untutored'
p608
(lp609
I3
asS'already'
p610
(lp611
I3
asS'hearsay'
p612
(lp613
I2
asS"'greeing"
p614
(lp615
I1
asS'thereof'
p616
(lp617
I2
asS'hearing'
p618
(lp619
I2
asS'jealous'
p620
(lp621
I2
asS'featured'
p622
(lp623
I2
asS'another'
p624
(lp625
I3
asS'sober'
p626
(lp627
I2
asS'filching'
p628
(lp629
I2
asS'exchequer'
p630
(lp631
I3
asS'service'
p632
(lp633
I2
asS'their'
p634
(lp635
I1
asS'top'
p636
(lp637
I1
asS'hawks'
p638
(lp639
I1
asS'millioned'
p640
(lp641
I3
asS'master'
p642
(lp643
I2
asS'too'
p644
(lp645
I1
asS'outworn'
p646
(lp647
I2
asS'dwell'
p648
(lp649
I1
asS'bitter'
p650
(lp651
I2
asS'saith'
p652
(lp653
I1
asS'broils'
p654
(lp655
I1
asS'out-going'
p656
(lp657
I3
asS'griefs'
p658
(lp659
I1
asS'took'
p660
(lp661
I1
asS'wisdom'
p662
(lp663
I2
asS'wardrobe'
p664
(lp665
I2
asS"youth's"
p666
(lp667
I1
asS'begins'
p668
(lp669
I2
asS'distance'
p670
(lp671
I2
asS'coward'
p672
(lp673
I2
asS'singleness'
p674
(lp675
I3
asS'bitterness'
p676
(lp677
I3
asS'idly'
p678
(lp679
I2
asS'matter'
p680
(lp681
I2
asS'idle'
p682
(lp683
I2
asS"others'"
p684
(lp685
I2
asS'flame'
p686
(lp687
I1
asS'speaking'
p688
(lp689
I2
asS'deserving'
p690
(lp691
I3
asS'knights'
p692
(lp693
I1
asS'feeling'
p694
(lp695
I2
asS'powers'
p696
(lp697
I2
asS'swift-footed'
p698
(lp699
I3
asS'fashion'
p700
(lp701
I2
asS'sees'
p702
(lp703
I1
asS'gaudy'
p704
(lp705
I2
asS"mind's"
p706
(lp707
I1
asS'modern'
p708
(lp709
I2
asS'mind'
p710
(lp711
I1
asS'mine'
p712
(lp713
I1
asS'loathsome'
p714
(lp715
I2
asS'manner'
p716
(lp717
I2
asS'bewailed'
p718
(lp719
I2
asS"deserv'st"
p720
(lp721
I2
asS'seen'
p722
(lp723
I1
asS'seem'
p724
(lp725
I1
asS'seek'
p726
(lp727
I1
asS'tells'
p728
(lp729
I1
asS'contents'
p730
(lp731
I2
asS'praising'
p732
(lp733
I2
asS'strength'
p734
(lp735
I1
asS'shamefully'
p736
(lp737
I4
asS'snow'
p738
(lp739
I1
asS'chest'
p740
(lp741
I1
asS'subjects'
p742
(lp743
I2
asS'laughed'
p744
(lp745
I1
asS'pilgrimage'
p746
(lp747
I3
asS'rider'
p748
(lp749
I2
asS'maiden'
p750
(lp751
I2
asS'though'
p752
(lp753
I1
asS'object'
p754
(lp755
I2
asS'dial'
p756
(lp757
I1
aI2
asS'dulling'
p758
(lp759
I2
asS'errors'
p760
(lp761
I2
asS'disarmed'
p762
(lp763
I2
asS'grave'
p764
(lp765
I1
asS'shalt'
p766
(lp767
I1
asS'constancy'
p768
(lp769
I3
asS'foist'
p770
(lp771
I1
asS'flow'
p772
(lp773
I1
asS'breathes'
p774
(lp775
I1
asS'steeled'
p776
(lp777
I1
asS'points'
p778
(lp779
I1
asS'breathed'
p780
(lp781
I1
asS'sum'
p782
(lp783
I1
asS'fitted'
p784
(lp785
I2
asS'reserve'
p786
(lp787
I2
asS'saying'
p788
(lp789
I2
asS'bait'
p790
(lp791
I1
asS'random'
p792
(lp793
I2
asS'ending'
p794
(lp795
I2
asS'poison'
p796
(lp797
I2
asS'earth'
p798
(lp799
I1
asS'bail'
p800
(lp801
I1
asS'enjoyed'
p802
(lp803
I2
asS'touches'
p804
(lp805
I2
asS'busy'
p806
(lp807
I2
asS'just'
p808
(lp809
I1
asS'spite'
p810
(lp811
I1
asS'spites'
p812
(lp813
I2
asS'cupid'
p814
(lp815
I2
asS'bliss'
p816
(lp817
I1
asS'deepest'
p818
(lp819
I2
asS'rich'
p820
(lp821
I1
asS'pursuing'
p822
(lp823
I3
asS'mend'
p824
(lp825
I1
asS"'thou"
p826
(lp827
I1
asS'soundless'
p828
(lp829
I2
asS'borrowed'
p830
(lp831
I2
asS'do'
p832
(lp833
I1
asS'blenches'
p834
(lp835
I2
asS'forsworn'
p836
(lp837
I2
asS"'i"
p838
(lp839
I1
asS'stop'
p840
(lp841
I1
asS'perceive'
p842
(lp843
I2
asS'leisure'
p844
(lp845
I2
asS'unfair'
p846
(lp847
I2
asS'gored'
p848
(lp849
I1
asS'bootless'
p850
(lp851
I2
asS'despite'
p852
(lp853
I2
asS'report'
p854
(lp855
I2
asS'aught'
p856
(lp857
I1
asS'saturn'
p858
(lp859
I2
asS'nurse'
p860
(lp861
I1
asS'runs'
p862
(lp863
I1
asS'bar'
p864
(lp865
I1
asS'beseem'
p866
(lp867
I2
asS'thrusts'
p868
(lp869
I1
asS'public'
p870
(lp871
I2
asS'twice'
p872
(lp873
I1
asS'eyelids'
p874
(lp875
I2
asS'esteeming'
p876
(lp877
I3
asS'hasten'
p878
(lp879
I2
asS'steal'
p880
(lp881
I1
asS'farther'
p882
(lp883
I2
asS'fragrant'
p884
(lp885
I2
asS'penance'
p886
(lp887
I2
asS"wond'ring"
p888
(lp889
I2
asS'unrespected'
p890
(lp891
I4
asS'fair'
p892
(lp893
I1
asS'habit'
p894
(lp895
I2
asS'imitate'
p896
(lp897
I3
asS'tillage'
p898
(lp899
I2
asS'proclaims'
p900
(lp901
I2
asS'depends'
p902
(lp903
I2
asS'corrupt'
p904
(lp905
I2
asS'best'
p906
(lp907
I1
asS'subject'
p908
(lp909
I2
asS'said'
p910
(lp911
I1
asS'temptation'
p912
(lp913
I3
asS"bett'ring"
p914
(lp915
I2
asS'away'
p916
(lp917
I2
asS'afloat'
p918
(lp919
I2
asS'bier'
p920
(lp921
I1
asS'injuries'
p922
(lp923
I3
asS'wilful-slow'
p924
(lp925
I3
asS'mud'
p926
(lp927
I1
asS'score'
p928
(lp929
I1
asS'finger'
p930
(lp931
I2
asS'pebbled'
p932
(lp933
I1
asS'scorn'
p934
(lp935
I1
asS'drawn'
p936
(lp937
I1
asS'vices'
p938
(lp939
I2
asS'preserve'
p940
(lp941
I2
asS'warrior'
p942
(lp943
I2
aI3
asS'we'
p944
(lp945
I1
asS'men'
p946
(lp947
I1
asS'terms'
p948
(lp949
I1
asS'parallels'
p950
(lp951
I3
asS'nature'
p952
(lp953
I2
asS'lover'
p954
(lp955
I2
asS'weak'
p956
(lp957
I1
asS'ignorance'
p958
(lp959
I3
asS'authorizing'
p960
(lp961
I4
asS'devour'
p962
(lp963
I3
asS'wear'
p964
(lp965
I1
asS'diest'
p966
(lp967
I1
asS'news'
p968
(lp969
I1
asS'debt'
p970
(lp971
I1
asS'tempests'
p972
(lp973
I2
asS'pity'
p974
(lp975
I2
asS'foes'
p976
(lp977
I1
asS'goddess'
p978
(lp979
I2
asS'accident'
p980
(lp981
I3
asS'disdain'
p982
(lp983
I2
asS'fault'
p984
(lp985
I1
asS'ill'
p986
(lp987
I1
asS'against'
p988
(lp989
I2
asS'brag'
p990
(lp991
I1
asS'receives'
p992
(lp993
I2
asS'faces'
p994
(lp995
I2
asS'exceeds'
p996
(lp997
I2
asS'expense'
p998
(lp999
I2
asS'groans'
p1000
(lp1001
I1
asS'asked'
p1002
(lp1003
I1
asS'vexed'
p1004
(lp1005
I1
asS'honouring'
p1006
(lp1007
I3
asS'had'
p1008
(lp1009
I1
asS'height'
p1010
(lp1011
I1
asS'hers'
p1012
(lp1013
I1
asS'springs'
p1014
(lp1015
I1
aI2
asS'over-plus'
p1016
(lp1017
I3
asS'trust'
p1018
(lp1019
I1
asS'heals'
p1020
(lp1021
I1
asS'speak'
p1022
(lp1023
I1
asS'petty'
p1024
(lp1025
I2
asS'unhappily'
p1026
(lp1027
I4
asS'puts'
p1028
(lp1029
I1
asS'hues'
p1030
(lp1031
I1
asS'time-bettering'
p1032
(lp1033
I4
asS'three'
p1034
(lp1035
I1
asS'been'
p1036
(lp1037
I1
asS'particulars'
p1038
(lp1039
I4
asS'twain'
p1040
(lp1041
I1
asS'much'
p1042
(lp1043
I1
asS'interest'
p1044
(lp1045
I2
aI3
asS'incertainty'
p1046
(lp1047
I4
asS'privilege'
p1048
(lp1049
I2
aI3
asS'lovely'
p1050
(lp1051
I2
asS'burthen'
p1052
(lp1053
I2
asS'thrice'
p1054
(lp1055
I1
asS'idol'
p1056
(lp1057
I2
asS'threw'
p1058
(lp1059
I1
asS'life'
p1060
(lp1061
I1
asS'fleeting'
p1062
(lp1063
I2
asS'beloved'
p1064
(lp1065
I2
aI3
asS'drugs'
p1066
(lp1067
I1
asS'maladies'
p1068
(lp1069
I3
asS'decrepit'
p1070
(lp1071
I3
asS'dote'
p1072
(lp1073
I1
asS'child'
p1074
(lp1075
I1
asS'catch'
p1076
(lp1077
I1
asS"ne'er-cloying"
p1078
(lp1079
I3
asS'doth'
p1080
(lp1081
I1
asS'erst'
p1082
(lp1083
I1
asS'gracious'
p1084
(lp1085
I2
asS'physician'
p1086
(lp1087
I3
asS'save'
p1088
(lp1089
I1
asS'gentle'
p1090
(lp1091
I2
asS'air'
p1092
(lp1093
I1
asS'lesser'
p1094
(lp1095
I2
asS'ugly'
p1096
(lp1097
I2
asS'near'
p1098
(lp1099
I1
asS'suppose'
p1100
(lp1101
I2
asS'aid'
p1102
(lp1103
I1
asS'voice'
p1104
(lp1105
I1
asS'mistake'
p1106
(lp1107
I2
asS'played'
p1108
(lp1109
I1
asS'is'
p1110
(lp1111
I1
asS'it'
p1112
(lp1113
I1
asS'defeated'
p1114
(lp1115
I3
asS'shame'
p1116
(lp1117
I1
asS'to-morrow'
p1118
(lp1119
I3
asS'splendour'
p1120
(lp1121
I2
asS'watching'
p1122
(lp1123
I2
asS'in'
p1124
(lp1125
I1
asS'bounteous'
p1126
(lp1127
I3
asS'if'
p1128
(lp1129
I1
asS'grown'
p1130
(lp1131
I1
asS'wooing'
p1132
(lp1133
I2
asS'memorial'
p1134
(lp1135
I4
asS'awakes'
p1136
(lp1137
I3
asS'cools'
p1138
(lp1139
I1
asS'patent'
p1140
(lp1141
I2
asS'suggest'
p1142
(lp1143
I2
asS'make'
p1144
(lp1145
I1
asS'wound'
p1146
(lp1147
I1
asS"lords'"
p1148
(lp1149
I1
asS'beside'
p1150
(lp1151
I2
asS'bosoms'
p1152
(lp1153
I2
asS"th'"
p1154
(lp1155
I1
asS'several'
p1156
(lp1157
I2
aI3
asS'grows'
p1158
(lp1159
I1
asS'entitled'
p1160
(lp1161
I3
asS'lusty'
p1162
(lp1163
I2
asS'fairly'
p1164
(lp1165
I2
asS'hang'
p1166
(lp1167
I1
asS'evil'
p1168
(lp1169
I2
asS'hand'
p1170
(lp1171
I1
asS'delight'
p1172
(lp1173
I2
asS'supposing'
p1174
(lp1175
I3
asS'workings'
p1176
(lp1177
I2
asS'bequest'
p1178
(lp1179
I2
asS'blamed'
p1180
(lp1181
I1
asS'thoughts'
p1182
(lp1183
I1
asS'censures'
p1184
(lp1185
I3
asS'kept'
p1186
(lp1187
I1
asS'thy'
p1188
(lp1189
I1
asS"mother's"
p1190
(lp1191
I2
asS'askance'
p1192
(lp1193
I2
asS'possessed'
p1194
(lp1195
I2
asS'humble'
p1196
(lp1197
I2
asS'inherit'
p1198
(lp1199
I3
asS'ocean'
p1200
(lp1201
I2
asS'ragged'
p1202
(lp1203
I2
asS'fulness'
p1204
(lp1205
I2
asS'greatest'
p1206
(lp1207
I2
asS'incapable'
p1208
(lp1209
I4
asS'mother'
p1210
(lp1211
I2
asS'hearts'
p1212
(lp1213
I1
asS'the'
p1214
(lp1215
I1
asS'cure'
p1216
(lp1217
I1
asS'yours'
p1218
(lp1219
I1
asS'left'
p1220
(lp1221
I1
asS'proposed'
p1222
(lp1223
I2
asS'wasteful'
p1224
(lp1225
I2
asS'yea'
p1226
(lp1227
I1
asS"poet's"
p1228
(lp1229
I2
asS'forsaken'
p1230
(lp1231
I3
asS'repose'
p1232
(lp1233
I2
asS'verses'
p1234
(lp1235
I2
asS'maketh'
p1236
(lp1237
I2
asS'thanks'
p1238
(lp1239
I1
asS'swears'
p1240
(lp1241
I1
asS'prognosticate'
p1242
(lp1243
I4
asS'plight'
p1244
(lp1245
I1
asS'yet'
p1246
(lp1247
I1
asS'succeeding'
p1248
(lp1249
I3
asS'enlighten'
p1250
(lp1251
I3
asS'adding'
p1252
(lp1253
I2
asS'dearer'
p1254
(lp1255
I2
asS'compeers'
p1256
(lp1257
I2
asS'character'
p1258
(lp1259
I3
asS'presagers'
p1260
(lp1261
I3
asS'alchemy'
p1262
(lp1263
I3
asS'belongs'
p1264
(lp1265
I2
asS'easy'
p1266
(lp1267
I2
asS'prison'
p1268
(lp1269
I2
asS'hap'
p1270
(lp1271
I1
asS'pitiful'
p1272
(lp1273
I3
asS'east'
p1274
(lp1275
I1
asS'gave'
p1276
(lp1277
I1
asS'reviewest'
p1278
(lp1279
I3
asS'birth'
p1280
(lp1281
I1
asS'shadow'
p1282
(lp1283
I2
asS'dreams'
p1284
(lp1285
I1
asS"feed'st"
p1286
(lp1287
I2
asS'desire'
p1288
(lp1289
I3
asS'dignity'
p1290
(lp1291
I3
asS"picture's"
p1292
(lp1293
I2
asS'gift'
p1294
(lp1295
I1
asS'new-found'
p1296
(lp1297
I2
asS'vilest'
p1298
(lp1299
I2
asS'offices'
p1300
(lp1301
I3
asS'night'
p1302
(lp1303
I1
asS'hung'
p1304
(lp1305
I1
asS'antique'
p1306
(lp1307
I2
asS'right'
p1308
(lp1309
I1
asS'old'
p1310
(lp1311
I1
asS'flatter'
p1312
(lp1313
I2
asS'all-oblivious'
p1314
(lp1315
I5
asS'deaf'
p1316
(lp1317
I1
asS'short-numbered'
p1318
(lp1319
I3
asS'dead'
p1320
(lp1321
I1
asS'born'
p1322
(lp1323
I1
asS'kind-hearted'
p1324
(lp1325
I3
asS'dear'
p1326
(lp1327
I1
asS'pain'
p1328
(lp1329
I1
asS'bore'
p1330
(lp1331
I1
asS'creep'
p1332
(lp1333
I1
asS'enemies'
p1334
(lp1335
I3
asS'for'
p1336
(lp1337
I1
asS"bosom's"
p1338
(lp1339
I2
asS'rehearse'
p1340
(lp1341
I2
asS'comments'
p1342
(lp1343
I2
asS'foe'
p1344
(lp1345
I1
asS'denied'
p1346
(lp1347
I2
asS'bold'
p1348
(lp1349
I1
asS'burn'
p1350
(lp1351
I1
asS'translated'
p1352
(lp1353
I3
asS'shifting'
p1354
(lp1355
I2
asS'losing'
p1356
(lp1357
I2
asS'eye'
p1358
(lp1359
I1
asS'peep'
p1360
(lp1361
I1
asS'disdains'
p1362
(lp1363
I2
asS'shaken'
p1364
(lp1365
I2
asS'takes'
p1366
(lp1367
I1
asS'theirs'
p1368
(lp1369
I1
asS'coral'
p1370
(lp1371
I2
asS'haply'
p1372
(lp1373
I2
asS'frailer'
p1374
(lp1375
I2
asS'o'
(lp1376
I1
asS'despair'
p1377
(lp1378
I2
asS'cherish'
p1379
(lp1380
I2
asS'commit'
p1381
(lp1382
I2
asS'lacked'
p1383
(lp1384
I1
asS'raised'
p1385
(lp1386
I1
asS'contains'
p1387
(lp1388
I2
asS'presence'
p1389
(lp1390
I2
asS'civil'
p1391
(lp1392
I2
asS'pays'
p1393
(lp1394
I1
asS'tract'
p1395
(lp1396
I1
asS'bound'
p1397
(lp1398
I1
asS'bath'
p1399
(lp1400
I1
asS'down'
p1401
(lp1402
I1
asS'lies'
p1403
(lp1404
I1
asS'refined'
p1405
(lp1406
I2
asS"pour'st"
p1407
(lp1408
I1
asS'often'
p1409
(lp1410
I2
asS'strangely'
p1411
(lp1412
I2
asS'despised'
p1413
(lp1414
I2
asS'wombs'
p1415
(lp1416
I1
asS'jealousy'
p1417
(lp1418
I3
asS'sovereign'
p1419
(lp1420
I2
asS'fight'
p1421
(lp1422
I1
asS'virgin'
p1423
(lp1424
I2
asS'way'
p1425
(lp1426
I1
asS'call'
p1427
(lp1428
I1
asS'was'
p1429
(lp1430
I1
asS'war'
p1431
(lp1432
I1
asS'happy'
p1433
(lp1434
I2
asS'head'
p1435
(lp1436
I1
asS'perfumes'
p1437
(lp1438
I2
asS'form'
p1439
(lp1440
I1
asS'afresh'
p1441
(lp1442
I2
asS'crown'
p1443
(lp1444
I1
asS'becoming'
p1445
(lp1446
I3
asS'forgetful'
p1447
(lp1448
I3
asS'fore'
p1449
(lp1450
I1
asS'heinous'
p1451
(lp1452
I2
asS'pricked'
p1453
(lp1454
I1
asS'heat'
p1455
(lp1456
I1
asS'hear'
p1457
(lp1458
I1
asS'odours'
p1459
(lp1460
I2
asS'astonished'
p1461
(lp1462
I3
asS'blindness'
p1463
(lp1464
I2
asS'removed'
p1465
(lp1466
I2
asS'true'
p1467
(lp1468
I1
asS'absent'
p1469
(lp1470
I2
asS'lilies'
p1471
(lp1472
I2
asS'captive'
p1473
(lp1474
I2
asS'extremity'
p1475
(lp1476
I4
asS"for't"
p1477
(lp1478
I1
asS'bids'
p1479
(lp1480
I1
asS'ruined'
p1481
(lp1482
I2
asS'crystal'
p1483
(lp1484
I2
asS'unfathered'
p1485
(lp1486
I3
asS'adore'
p1487
(lp1488
I2
asS'anew'
p1489
(lp1490
I2
asS'engraft'
p1491
(lp1492
I2
asS'bide'
p1493
(lp1494
I1
asS'latch'
p1495
(lp1496
I1
asS'trim'
p1497
(lp1498
I1
asS'disgrace'
p1499
(lp1500
I2
asS'sight'
p1501
(lp1502
I1
asS'up'
p1503
(lp1504
I1
asS'fury'
p1505
(lp1506
I2
asS'sinful'
p1507
(lp1508
I2
asS'steep-up'
p1509
(lp1510
I2
asS"beauty's"
p1511
(lp1512
I2
asS'huswife'
p1513
(lp1514
I2
asS'sometime'
p1515
(lp1516
I2
asS'subsist'
p1517
(lp1518
I2
asS'shines'
p1519
(lp1520
I1
asS'face'
p1521
(lp1522
I1
asS'check'
p1523
(lp1524
I1
asS'unbless'
p1525
(lp1526
I2
asS'willingly'
p1527
(lp1528
I3
asS'pipe'
p1529
(lp1530
I1
asS'dying'
p1531
(lp1532
I2
asS'no'
p1533
(lp1534
I1
asS'gluttoning'
p1535
(lp1536
I3
asS'when'
p1537
(lp1538
I1
asS"lov'st"
p1539
(lp1540
I1
asS'actor'
p1541
(lp1542
I2
asS'thriftless'
p1543
(lp1544
I2
asS'despising'
p1545
(lp1546
I3
asS'falsely'
p1547
(lp1548
I2
asS'papers'
p1549
(lp1550
I2
asS'tie'
p1551
(lp1552
I1
asS'vanished'
p1553
(lp1554
I2
asS'smell'
p1555
(lp1556
I1
asS'eternity'
p1557
(lp1558
I4
asS'picture'
p1559
(lp1560
I2
asS'intend'
p1561
(lp1562
I2
asS'phoenix'
p1563
(lp1564
I2
asS'delivered'
p1565
(lp1566
I3
asS'dies'
p1567
(lp1568
I1
asS'felt'
p1569
(lp1570
I1
asS'first-born'
p1571
(lp1572
I2
asS'present-absent'
p1573
(lp1574
I4
asS'fell'
p1575
(lp1576
I1
asS'reign'
p1577
(lp1578
I1
asS'dateless'
p1579
(lp1580
I3
asS'rolling'
p1581
(lp1582
I2
asS'pierced'
p1583
(lp1584
I1
asS'died'
p1585
(lp1586
I1
asS'wrackful'
p1587
(lp1588
I2
asS'to-day'
p1589
(lp1590
I2
asS'faster'
p1591
(lp1592
I2
asS'blushing'
p1593
(lp1594
I2
asS'daily'
p1595
(lp1596
I2
asS'cheater'
p1597
(lp1598
I2
asS'time'
p1599
(lp1600
I1
asS"dian's"
p1601
(lp1602
I2
asS'backward'
p1603
(lp1604
I2
asS'restored'
p1605
(lp1606
I2
asS'songs'
p1607
(lp1608
I1
asS'ensconce'
p1609
(lp1610
I2
asS'whoever'
p1611
(lp1612
I3
asS"perceiv'st"
p1613
(lp1614
I2
asS'souls'
p1615
(lp1616
I1
asS'vermilion'
p1617
(lp1618
I3
asS'engrafted'
p1619
(lp1620
I3
asS'leads'
p1621
(lp1622
I1
asS'continual'
p1623
(lp1624
I4
asS'idolatry'
p1625
(lp1626
I4
asS'abundant'
p1627
(lp1628
I3
asS'retention'
p1629
(lp1630
I3
asS'doom'
p1631
(lp1632
I1
asS'praises'
p1633
(lp1634
I2
asS'april'
p1635
(lp1636
I2
asS'father'
p1637
(lp1638
I2
asS'pen'
p1639
(lp1640
I1
asS'vex'
p1641
(lp1642
I1
asS'charge'
p1643
(lp1644
I1
asS'praised'
p1645
(lp1646
I1
asS'suffered'
p1647
(lp1648
I2
asS'addeth'
p1649
(lp1650
I2
asS'furrows'
p1651
(lp1652
I2
asS'shoot'
p1653
(lp1654
I1
asS'strumpeted'
p1655
(lp1656
I3
asS'string'
p1657
(lp1658
I1
asS'advantage'
p1659
(lp1660
I3
asS'buriest'
p1661
(lp1662
I2
asS'nought'
p1663
(lp1664
I1
asS'drudge'
p1665
(lp1666
I1
asS'none'
p1667
(lp1668
I1
asS'votary'
p1669
(lp1670
I3
asS'mourn'
p1671
(lp1672
I1
asS'advised'
p1673
(lp1674
I2
asS'join'
p1675
(lp1676
I1
asS'trouble'
p1677
(lp1678
I2
asS'feeble'
p1679
(lp1680
I2
asS'cool'
p1681
(lp1682
I1
asS"soul's"
p1683
(lp1684
I1
asS'perceived'
p1685
(lp1686
I2
asS'clouds'
p1687
(lp1688
I1
asS'level'
p1689
(lp1690
I2
asS'did'
p1691
(lp1692
I1
asS'die'
p1693
(lp1694
I1
asS'dig'
p1695
(lp1696
I1
asS'equipage'
p1697
(lp1698
I4
asS'leave'
p1699
(lp1700
I1
asS'excellence'
p1701
(lp1702
I3
asS'quick'
p1703
(lp1704
I1
asS'prevent'
p1705
(lp1706
I2
asS'brave'
p1707
(lp1708
I1
asS'says'
p1709
(lp1710
I1
asS'fearing'
p1711
(lp1712
I2
asS"offender's"
p1713
(lp1714
I3
asS'double-vantage'
p1715
(lp1716
I3
asS'sigh'
p1717
(lp1718
I1
asS'wherefore'
p1719
(lp1720
I4
asS'cost'
p1721
(lp1722
I1
asS'run'
p1723
(lp1724
I1
asS'rough'
p1725
(lp1726
I1
asS'drinks'
p1727
(lp1728
I1
asS'hymn'
p1729
(lp1730
I1
asS'unswayed'
p1731
(lp1732
I2
asS'curse'
p1733
(lp1734
I1
asS'appear'
p1735
(lp1736
I2
asS'assistance'
p1737
(lp1738
I3
asS'contracted'
p1739
(lp1740
I3
asS'favour'
p1741
(lp1742
I2
asS'debate'
p1743
(lp1744
I2
asS'suspect'
p1745
(lp1746
I2
asS'goes'
p1747
(lp1748
I1
asS'view'
p1749
(lp1750
I1
asS'appeal'
p1751
(lp1752
I2
asS'filled'
p1753
(lp1754
I1
asS"april's"
p1755
(lp1756
I2
asS'prescriptions'
p1757
(lp1758
I3
asS'wail'
p1759
(lp1760
I1
asS'heavily'
p1761
(lp1762
I3
asS'honour'
p1763
(lp1764
I2
asS'clerk'
p1765
(lp1766
I1
asS'water'
p1767
(lp1768
I2
asS'entertain'
p1769
(lp1770
I3
asS'alone'
p1771
(lp1772
I2
asS'appears'
p1773
(lp1774
I2
asS'change'
p1775
(lp1776
I1
asS'blunter'
p1777
(lp1778
I2
asS'boy'
p1779
(lp1780
I1
asS'boast'
p1781
(lp1782
I1
asS'root'
p1783
(lp1784
I1
asS'guilty'
p1785
(lp1786
I2
asS'bow'
p1787
(lp1788
I1
asS'spheres'
p1789
(lp1790
I1
asS'recounting'
p1791
(lp1792
I3
asS'stained'
p1793
(lp1794
I1
asS'love'
p1795
(lp1796
I1
asS'humour'
p1797
(lp1798
I2
asS'tempteth'
p1799
(lp1800
I2
asS'bloody'
p1801
(lp1802
I2
asS'withal'
p1803
(lp1804
I2
asS'betraying'
p1805
(lp1806
I3
asS'surmount'
p1807
(lp1808
I2
asS'swallowed'
p1809
(lp1810
I2
asS"suff'ring"
p1811
(lp1812
I2
asS"o'erworn"
p1813
(lp1814
I3
asS'wealth'
p1815
(lp1816
I1
asS'prove'
p1817
(lp1818
I1
asS'sake'
p1819
(lp1820
I1
asS'confounded'
p1821
(lp1822
I3
asS'angry'
p1823
(lp1824
I2
asS'give'
p1825
(lp1826
I1
asS'tears'
p1827
(lp1828
I1
asS'by'
p1829
(lp1830
I1
asS'wrongs'
p1831
(lp1832
I1
asS'live'
p1833
(lp1834
I1
asS'wood'
p1835
(lp1836
I1
asS'prey'
p1837
(lp1838
I1
asS'memory'
p1839
(lp1840
I3
asS'scope'
p1841
(lp1842
I1
asS'loving'
p1843
(lp1844
I2
asS"love's"
p1845
(lp1846
I1
asS'love-god'
p1847
(lp1848
I2
asS'riot'
p1849
(lp1850
I2
asS'sessions'
p1851
(lp1852
I2
asS'towers'
p1853
(lp1854
I2
asS'share'
p1855
(lp1856
I1
asS'acceptable'
p1857
(lp1858
I4
asS"strength's"
p1859
(lp1860
I1
asS'fuel'
p1861
(lp1862
I1
aI2
asS'drown'
p1863
(lp1864
I1
asS'everywhere'
p1865
(lp1866
I3
asS'virtue'
p1867
(lp1868
I2
asS'robe'
p1869
(lp1870
I1
asS'epitaph'
p1871
(lp1872
I3
asS'fly'
p1873
(lp1874
I1
asS'impair'
p1875
(lp1876
I2
asS'sheds'
p1877
(lp1878
I1
asS'car'
p1879
(lp1880
I1
asS'soul'
p1881
(lp1882
I1
asS'purge'
p1883
(lp1884
I1
asS'hardest'
p1885
(lp1886
I2
asS'sour'
p1887
(lp1888
I1
aI2
asS'can'
p1889
(lp1890
I1
asS'believed'
p1891
(lp1892
I2
asS'making'
p1893
(lp1894
I2
asS"prevent'st"
p1895
(lp1896
I2
asS'deceased'
p1897
(lp1898
I2
asS'breeds'
p1899
(lp1900
I1
asS'heart'
p1901
(lp1902
I1
asS'dedicated'
p1903
(lp1904
I4
asS"servant's"
p1905
(lp1906
I2
asS'respose'
p1907
(lp1908
I2
asS'figure'
p1909
(lp1910
I2
asS'predict'
p1911
(lp1912
I2
asS'sense'
p1913
(lp1914
I1
asS'distillation'
p1915
(lp1916
I4
asS'heard'
p1917
(lp1918
I1
asS'critic'
p1919
(lp1920
I2
asS'purity'
p1921
(lp1922
I3
asS'hides'
p1923
(lp1924
I1
asS'sharp'
p1925
(lp1926
I1
asS'provoke'
p1927
(lp1928
I2
asS'stole'
p1929
(lp1930
I1
asS'churls'
p1931
(lp1932
I1
asS'winter'
p1933
(lp1934
I2
asS'allege'
p1935
(lp1936
I2
asS'divided'
p1937
(lp1938
I3
asS'bonds'
p1939
(lp1940
I1
asS'vainly'
p1941
(lp1942
I2
asS'pine'
p1943
(lp1944
I1
asS"lour'st"
p1945
(lp1946
I1
asS'write'
p1947
(lp1948
I1
asS'till'
p1949
(lp1950
I1
asS'sword'
p1951
(lp1952
I1
asS'dispraise'
p1953
(lp1954
I2
asS'husbandry'
p1955
(lp1956
I3
asS'sworn'
p1957
(lp1958
I1
asS"eye's"
p1959
(lp1960
I1
asS'map'
p1961
(lp1962
I1
asS'mar'
p1963
(lp1964
I1
asS'where-through'
p1965
(lp1966
I2
asS'all-tyrant'
p1967
(lp1968
I3
asS'may'
p1969
(lp1970
I1
asS'spot'
p1971
(lp1972
I1
asS'needs'
p1973
(lp1974
I1
asS'mad'
p1975
(lp1976
I1
asS'date'
p1977
(lp1978
I1
asS'such'
p1979
(lp1980
I1
asS'hateth'
p1981
(lp1982
I2
asS'flourish'
p1983
(lp1984
I2
asS'grow'
p1985
(lp1986
I1
asS'man'
p1987
(lp1988
I1
asS'temperate'
p1989
(lp1990
I2
aI3
asS'neck'
p1991
(lp1992
I1
asS'liquid'
p1993
(lp1994
I2
asS'candles'
p1995
(lp1996
I2
asS'needy'
p1997
(lp1998
I2
asS'so'
p1999
(lp2000
I1
asS'youthful'
p2001
(lp2002
I2
asS'deceive'
p2003
(lp2004
I2
asS'thorns'
p2005
(lp2006
I1
asS'tall'
p2007
(lp2008
I1
asS'augurs'
p2009
(lp2010
I2
asS'serving'
p2011
(lp2012
I2
asS'seeing'
p2013
(lp2014
I2
asS'food'
p2015
(lp2016
I1
asS'indeed'
p2017
(lp2018
I2
asS'forfeit'
p2019
(lp2020
I2
asS'wishing'
p2021
(lp2022
I2
asS'years'
p2023
(lp2024
I1
asS'brain'
p2025
(lp2026
I1
asS'pitch'
p2027
(lp2028
I1
asS'cold'
p2029
(lp2030
I1
asS'still'
p2031
(lp2032
I1
asS'birds'
p2033
(lp2034
I1
asS'trifle'
p2035
(lp2036
I2
asS'limbs'
p2037
(lp2038
I1
asS'derive'
p2039
(lp2040
I2
asS'odour'
p2041
(lp2042
I2
asS'thank'
p2043
(lp2044
I1
asS'acknowledge'
p2045
(lp2046
I3
asS'muses'
p2047
(lp2048
I2
asS'spur'
p2049
(lp2050
I1
asS'torn'
p2051
(lp2052
I1
asS'curls'
p2053
(lp2054
I1
asS"offence's"
p2055
(lp2056
I3
asS'maid'
p2057
(lp2058
I1
asS'spacious'
p2059
(lp2060
I2
asS"play'st"
p2061
(lp2062
I1
asS'policy'
p2063
(lp2064
I3
asS"stol'n"
p2065
(lp2066
I1
asS'main'
p2067
(lp2068
I1
asS'conquest'
p2069
(lp2070
I2
asS'correspondence'
p2071
(lp2072
I4
asS'closure'
p2073
(lp2074
I2
asS'truest'
p2075
(lp2076
I2
asS'halt'
p2077
(lp2078
I1
asS'thereby'
p2079
(lp2080
I2
asS'sooner'
p2081
(lp2082
I2
asS'delighted'
p2083
(lp2084
I3
asS'records'
p2085
(lp2086
I2
asS'half'
p2087
(lp2088
I1
asS'not'
p2089
(lp2090
I1
asS'son'
p2091
(lp2092
I1
asS'twilight'
p2093
(lp2094
I2
asS'nor'
p2095
(lp2096
I1
asS'wont'
p2097
(lp2098
I1
asS'term'
p2099
(lp2100
I1
asS'name'
p2101
(lp2102
I1
asS'servant'
p2103
(lp2104
I2
asS'times'
p2105
(lp2106
I1
asS'drop'
p2107
(lp2108
I1
asS'thievish'
p2109
(lp2110
I2
asS'veins'
p2111
(lp2112
I1
asS'orphans'
p2113
(lp2114
I2
asS'surfeit'
p2115
(lp2116
I2
asS"another's"
p2117
(lp2118
I3
asS'receipt'
p2119
(lp2120
I2
asS'richly'
p2121
(lp2122
I2
asS'fever'
p2123
(lp2124
I2
asS'farewell'
p2125
(lp2126
I2
asS'seeting'
p2127
(lp2128
I2
asS'year'
p2129
(lp2130
I1
asS'hymns'
p2131
(lp2132
I1
asS'living'
p2133
(lp2134
I2
asS'shown'
p2135
(lp2136
I1
asS'mouths'
p2137
(lp2138
I1
asS'space'
p2139
(lp2140
I1
asS'profit'
p2141
(lp2142
I2
asS'conceit'
p2143
(lp2144
I2
asS'haste'
p2145
(lp2146
I1
asS'abide'
p2147
(lp2148
I2
asS'increase'
p2149
(lp2150
I2
asS'boundless'
p2151
(lp2152
I2
asS'grecian'
p2153
(lp2154
I2
asS'receiving'
p2155
(lp2156
I3
asS'correct'
p2157
(lp2158
I2
asS'shows'
p2159
(lp2160
I1
asS'worthiness'
p2161
(lp2162
I3
asS'state'
p2163
(lp2164
I1
asS'siege'
p2165
(lp2166
I1
asS'cars'
p2167
(lp2168
I1
asS'sweet-seasoned'
p2169
(lp2170
I3
asS'quite'
p2171
(lp2172
I1
asS'rebel'
p2173
(lp2174
I2
asS'plea'
p2175
(lp2176
I1
asS"feel'st"
p2177
(lp2178
I1
asS'care'
p2179
(lp2180
I1
asS'advance'
p2181
(lp2182
I2
asS"age's"
p2183
(lp2184
I2
asS'embassage'
p2185
(lp2186
I3
asS'contented'
p2187
(lp2188
I3
asS'kingdoms'
p2189
(lp2190
I2
asS'honest'
p2191
(lp2192
I2
asS'motion'
p2193
(lp2194
I2
asS'gusts'
p2195
(lp2196
I1
asS'thine'
p2197
(lp2198
I1
asS'place'
p2199
(lp2200
I1
asS'recompense'
p2201
(lp2202
I3
asS'sufferance'
p2203
(lp2204
I3
asS'widow'
p2205
(lp2206
I2
asS'star'
p2207
(lp2208
I1
asS'think'
p2209
(lp2210
I1
asS'frequent'
p2211
(lp2212
I2
asS'first'
p2213
(lp2214
I1
asS'blind'
p2215
(lp2216
I1
asS'mayst'
p2217
(lp2218
I1
asS'coming'
p2219
(lp2220
I2
asS'one'
p2221
(lp2222
I1
asS'nativity'
p2223
(lp2224
I4
asS'consecrate'
p2225
(lp2226
I3
asS'chide'
p2227
(lp2228
I1
asS'directly'
p2229
(lp2230
I3
asS'habitation'
p2231
(lp2232
I4
asS'carry'
p2233
(lp2234
I2
asS'ill-used'
p2235
(lp2236
I2
asS'array'
p2237
(lp2238
I2
asS'tame'
p2239
(lp2240
I1
asS'open'
p2241
(lp2242
I2
asS'affords'
p2243
(lp2244
I2
asS'millions'
p2245
(lp2246
I2
asS'interchange'
p2247
(lp2248
I3
asS'given'
p2249
(lp2250
I2
asS'checked'
p2251
(lp2252
I1
asS'silent'
p2253
(lp2254
I2
asS'breed'
p2255
(lp2256
I1
asS'fiery'
p2257
(lp2258
I3
asS'bounty'
p2259
(lp2260
I2
asS'white'
p2261
(lp2262
I1
asS"tiger's"
p2263
(lp2264
I2
asS'friend'
p2265
(lp2266
I1
asS'gives'
p2267
(lp2268
I1
asS'hue'
p2269
(lp2270
I1
asS'eyes'
p2271
(lp2272
I1
asS'pomp'
p2273
(lp2274
I1
asS'blazon'
p2275
(lp2276
I2
asS'that'
p2277
(lp2278
I1
asS'brains'
p2279
(lp2280
I1
asS"men's"
p2281
(lp2282
I1
asS'proving'
p2283
(lp2284
I2
asS'alas'
p2285
(lp2286
I2
asS'eyed'
p2287
(lp2288
I1
asS'girded'
p2289
(lp2290
I2
asS'reproving'
p2291
(lp2292
I3
asS'copy'
p2293
(lp2294
I2
asS'than'
p2295
(lp2296
I1
asS"here's"
p2297
(lp2298
I1
asS'wide'
p2299
(lp2300
I1
asS'wert'
p2301
(lp2302
I1
asS'require'
p2303
(lp2304
I2
aI3
asS'folly'
p2305
(lp2306
I2
asS'transferred'
p2307
(lp2308
I2
asS'were'
p2309
(lp2310
I1
asS'carcanet'
p2311
(lp2312
I3
asS'and'
p2313
(lp2314
I1
asS'tenure'
p2315
(lp2316
I2
asS"rud'st"
p2317
(lp2318
I1
asS'desperate'
p2319
(lp2320
I2
aI3
asS'angel'
p2321
(lp2322
I2
asS'slay'
p2323
(lp2324
I1
asS'correction'
p2325
(lp2326
I3
asS'confessed'
p2327
(lp2328
I2
asS'turned'
p2329
(lp2330
I1
asS'argument'
p2331
(lp2332
I3
asS'jewels'
p2333
(lp2334
I1
aI2
asS'voices'
p2335
(lp2336
I2
asS'entombed'
p2337
(lp2338
I2
asS'say'
p2339
(lp2340
I1
asS'faring'
p2341
(lp2342
I2
asS'buried'
p2343
(lp2344
I2
asS'foiled'
p2345
(lp2346
I1
asS'anger'
p2347
(lp2348
I2
asS'sap'
p2349
(lp2350
I1
asS'pry'
p2351
(lp2352
I1
asS'any'
p2353
(lp2354
I2
asS'elsewhere'
p2355
(lp2356
I2
asS'defaced'
p2357
(lp2358
I2
asS'mourners'
p2359
(lp2360
I2
asS'aside'
p2361
(lp2362
I2
asS'purest'
p2363
(lp2364
I2
asS'note'
p2365
(lp2366
I1
asS'wretch'
p2367
(lp2368
I1
asS'take'
p2369
(lp2370
I1
asS'resembling'
p2371
(lp2372
I3
aI4
asS'wanting'
p2373
(lp2374
I2
asS'blunt'
p2375
(lp2376
I1
asS'flattered'
p2377
(lp2378
I2
asS'urge'
p2379
(lp2380
I1
asS'begin'
p2381
(lp2382
I2
asS'sure'
p2383
(lp2384
I1
asS'altered'
p2385
(lp2386
I2
asS'tallies'
p2387
(lp2388
I2
asS'knew'
p2389
(lp2390
I1
asS'clearer'
p2391
(lp2392
I2
asS'paid'
p2393
(lp2394
I1
asS'remover'
p2395
(lp2396
I3
asS'unkindness'
p2397
(lp2398
I3
asS'staineth'
p2399
(lp2400
I2
asS'flatterer'
p2401
(lp2402
I3
asS'successive'
p2403
(lp2404
I3
asS'winters'
p2405
(lp2406
I2
asS'garments'
p2407
(lp2408
I2
asS'proud'
p2409
(lp2410
I1
asS'hungry'
p2411
(lp2412
I2
asS'wouldst'
p2413
(lp2414
I1
asS"perfect'st"
p2415
(lp2416
I2
asS'sunset'
p2417
(lp2418
I2
asS'amis'
p2419
(lp2420
I2
asS'glutton'
p2421
(lp2422
I2
asS'perfumed'
p2423
(lp2424
I2
asS'sourest'
p2425
(lp2426
I2
asS'erred'
p2427
(lp2428
I1
asS'shop'
p2429
(lp2430
I1
asS'show'
p2431
(lp2432
I1
asS'cheap'
p2433
(lp2434
I1
asS'merit'
p2435
(lp2436
I2
asS'trespass'
p2437
(lp2438
I2
asS'bright'
p2439
(lp2440
I1
asS'after-loss'
p2441
(lp2442
I3
asS'tend'
p2443
(lp2444
I1
asS'ground'
p2445
(lp2446
I1
asS'slow'
p2447
(lp2448
I1
asS'woos'
p2449
(lp2450
I1
asS'unkind'
p2451
(lp2452
I2
asS'stormy'
p2453
(lp2454
I2
asS'title'
p2455
(lp2456
I2
asS'treasure'
p2457
(lp2458
I2
asS'robs'
p2459
(lp2460
I1
asS'cloak'
p2461
(lp2462
I1
asS'crime'
p2463
(lp2464
I1
asS'only'
p2465
(lp2466
I2
asS'going'
p2467
(lp2468
I2
asS'black'
p2469
(lp2470
I1
asS'compiled'
p2471
(lp2472
I2
asS'partake'
p2473
(lp2474
I2
asS'stain'
p2475
(lp2476
I1
asS'wilfully'
p2477
(lp2478
I3
asS'hindmost'
p2479
(lp2480
I2
asS'mouthed'
p2481
(lp2482
I1
asS"'tis"
p2483
(lp2484
I1
asS'limbecks'
p2485
(lp2486
I2
asS'truly'
p2487
(lp2488
I2
asS'cannot'
p2489
(lp2490
I2
asS'nearly'
p2491
(lp2492
I2
asS'dye'
p2493
(lp2494
I1
asS'prime'
p2495
(lp2496
I1
asS'seldom'
p2497
(lp2498
I2
asS'yield'
p2499
(lp2500
I1
asS'morning'
p2501
(lp2502
I2
asS'naked'
p2503
(lp2504
I2
asS'over-goes'
p2505
(lp2506
I4
asS'miles'
p2507
(lp2508
I1
aI2
asS'where'
p2509
(lp2510
I1
asS'husband'
p2511
(lp2512
I2
asS'signs'
p2513
(lp2514
I1
asS'sullied'
p2515
(lp2516
I2
asS"fortune's"
p2517
(lp2518
I2
asS'asleep'
p2519
(lp2520
I2
asS'expiate'
p2521
(lp2522
I3
asS'seal'
p2523
(lp2524
I1
asS'salutation'
p2525
(lp2526
I4
asS'sport'
p2527
(lp2528
I1
asS'strangle'
p2529
(lp2530
I2
asS'wonder'
p2531
(lp2532
I2
asS'invoked'
p2533
(lp2534
I2
asS'tongue-tied'
p2535
(lp2536
I2
asS'compounds'
p2537
(lp2538
I2
asS'crooked'
p2539
(lp2540
I2
asS'review'
p2541
(lp2542
I2
asS'abhor'
p2543
(lp2544
I2
asS'ornament'
p2545
(lp2546
I3
asS'enough'
p2547
(lp2548
I2
asS'departest'
p2549
(lp2550
I3
asS'complexion'
p2551
(lp2552
I3
asS'sable'
p2553
(lp2554
I2
asS'import'
p2555
(lp2556
I2
asS'enjoys'
p2557
(lp2558
I2
asS'presage'
p2559
(lp2560
I2
asS'untainted'
p2561
(lp2562
I3
asS'forsake'
p2563
(lp2564
I2
asS'lays'
p2565
(lp2566
I1
asS'style'
p2567
(lp2568
I1
asS'pluck'
p2569
(lp2570
I1
asS'blame'
p2571
(lp2572
I1
asS'countenance'
p2573
(lp2574
I3
asS'awards'
p2575
(lp2576
I2
asS'profitless'
p2577
(lp2578
I3
asS'come'
p2579
(lp2580
I1
asS'grieved'
p2581
(lp2582
I1
asS'dates'
p2583
(lp2584
I1
asS'many'
p2585
(lp2586
I2
asS'region'
p2587
(lp2588
I2
asS'quiet'
p2589
(lp2590
I2
asS'dwellers'
p2591
(lp2592
I2
asS'reigns'
p2593
(lp2594
I1
asS"sea's"
p2595
(lp2596
I1
asS'duty'
p2597
(lp2598
I2
asS'among'
p2599
(lp2600
I2
asS'impediments'
p2601
(lp2602
I4
asS'madness'
p2603
(lp2604
I2
asS'afterwards'
p2605
(lp2606
I3
asS'unthrifty'
p2607
(lp2608
I3
asS'swerving'
p2609
(lp2610
I2
asS'dispatch'
p2611
(lp2612
I2
asS'eisel'
p2613
(lp2614
I2
asS'slain'
p2615
(lp2616
I1
asS'stretched'
p2617
(lp2618
I1
asS'learning'
p2619
(lp2620
I2
asS'proved'
p2621
(lp2622
I1
asS'famished'
p2623
(lp2624
I2
asS'consider'
p2625
(lp2626
I3
asS'boat'
p2627
(lp2628
I1
asS'doctor-like'
p2629
(lp2630
I3
asS'arts'
p2631
(lp2632
I1
asS'self-doing'
p2633
(lp2634
I3
asS'west'
p2635
(lp2636
I1
asS'absence'
p2637
(lp2638
I2
asS'mark'
p2639
(lp2640
I1
asS'breath'
p2641
(lp2642
I1
asS'subscribes'
p2643
(lp2644
I2
asS"self's"
p2645
(lp2646
I1
asS'mars'
p2647
(lp2648
I1
asS'informer'
p2649
(lp2650
I3
asS'straying'
p2651
(lp2652
I2
asS'robbed'
p2653
(lp2654
I1
asS'thousand'
p2655
(lp2656
I2
asS'blessing'
p2657
(lp2658
I2
asS'nobler'
p2659
(lp2660
I2
asS'figured'
p2661
(lp2662
I2
asS'wake'
p2663
(lp2664
I1
asS'external'
p2665
(lp2666
I3
asS'frantic-mad'
p2667
(lp2668
I3
asS'extant'
p2669
(lp2670
I2
asS'careful'
p2671
(lp2672
I2
asS'former'
p2673
(lp2674
I2
asS'those'
p2675
(lp2676
I1
asS'sound'
p2677
(lp2678
I1
asS'profane'
p2679
(lp2680
I2
asS'rarities'
p2681
(lp2682
I3
asS'these'
p2683
(lp2684
I1
asS'sheaves'
p2685
(lp2686
I1
asS'compile'
p2687
(lp2688
I2
asS'cast'
p2689
(lp2690
I1
asS'self-substantial'
p2691
(lp2692
I5
asS'mightier'
p2693
(lp2694
I3
asS'graven'
p2695
(lp2696
I2
asS'cancelled'
p2697
(lp2698
I2
asS'situation'
p2699
(lp2700
I4
asS'endured'
p2701
(lp2702
I2
asS'anchored'
p2703
(lp2704
I2
asS'forbear'
p2705
(lp2706
I2
asS'endowed'
p2707
(lp2708
I2
asS'brow'
p2709
(lp2710
I1
asS'sleeping'
p2711
(lp2712
I2
asS'middle'
p2713
(lp2714
I2
asS'limping'
p2715
(lp2716
I2
asS'throned'
p2717
(lp2718
I1
asS'commanded'
p2719
(lp2720
I3
asS'fame'
p2721
(lp2722
I1
asS'different'
p2723
(lp2724
I2
aI3
asS'harsh'
p2725
(lp2726
I1
asS"tyrants'"
p2727
(lp2728
I2
asS'strains'
p2729
(lp2730
I1
asS'pay'
p2731
(lp2732
I1
asS'same'
p2733
(lp2734
I1
asS'injurious'
p2735
(lp2736
I4
asS'shifts'
p2737
(lp2738
I1
asS'enrich'
p2739
(lp2740
I2
asS'streams'
p2741
(lp2742
I1
asS"'truth"
p2743
(lp2744
I1
asS'wires'
p2745
(lp2746
I1
aI2
asS'sickness'
p2747
(lp2748
I2
asS'tyrannous'
p2749
(lp2750
I3
asS'defy'
p2751
(lp2752
I2
asS'weed'
p2753
(lp2754
I1
asS'fruit'
p2755
(lp2756
I1
asS'scorned'
p2757
(lp2758
I1
asS'extern'
p2759
(lp2760
I2
asS'changing'
p2761
(lp2762
I2
asS'weep'
p2763
(lp2764
I1
asS"slander's"
p2765
(lp2766
I2
asS'vowed'
p2767
(lp2768
I1
asS'vantage'
p2769
(lp2770
I2
asS'dear-purchased'
p2771
(lp2772
I3
asS'mortgaged'
p2773
(lp2774
I2
asS'vacant'
p2775
(lp2776
I2
asS'costs'
p2777
(lp2778
I1
asS'relief'
p2779
(lp2780
I2
asS'justify'
p2781
(lp2782
I3
asS'distills'
p2783
(lp2784
I2
asS'summer'
p2785
(lp2786
I2
asS'recured'
p2787
(lp2788
I2
asS'ransoms'
p2789
(lp2790
I2
asS'being'
p2791
(lp2792
I2
asS'excel'
p2793
(lp2794
I2
asS'weeds'
p2795
(lp2796
I1
asS'unthrifts'
p2797
(lp2798
I2
asS'rest'
p2799
(lp2800
I1
asS'imprint'
p2801
(lp2802
I2
asS'foot'
p2803
(lp2804
I1
asS'cease'
p2805
(lp2806
I1
asS'disperse'
p2807
(lp2808
I2
asS'aspect'
p2809
(lp2810
I2
asS'touch'
p2811
(lp2812
I1
asS'speed'
p2813
(lp2814
I1
asS'guides'
p2815
(lp2816
I1
asS'blow'
p2817
(lp2818
I1
asS'renewed'
p2819
(lp2820
I2
asS'grounded'
p2821
(lp2822
I2
asS'charactered'
p2823
(lp2824
I3
asS'thinking'
p2825
(lp2826
I2
asS'rose'
p2827
(lp2828
I1
asS'seems'
p2829
(lp2830
I1
asS"summer's"
p2831
(lp2832
I2
asS"summers'"
p2833
(lp2834
I2
asS'verse'
p2835
(lp2836
I1
asS'suppressed'
p2837
(lp2838
I2
asS'worthier'
p2839
(lp2840
I3
asS'yellowed'
p2841
(lp2842
I2
asS'overthrow'
p2843
(lp2844
I3
asS'valley-fountain'
p2845
(lp2846
I4
asS'struck'
p2847
(lp2848
I1
asS'kingdom'
p2849
(lp2850
I2
asS'frown'
p2851
(lp2852
I1
asS'kills'
p2853
(lp2854
I1
asS'read'
p2855
(lp2856
I1
asS'offence'
p2857
(lp2858
I2
asS'sums'
p2859
(lp2860
I1
asS'dart'
p2861
(lp2862
I1
asS'dark'
p2863
(lp2864
I1
asS'traffic'
p2865
(lp2866
I2
asS'beseechers'
p2867
(lp2868
I3
asS'confined'
p2869
(lp2870
I2
asS'world'
p2871
(lp2872
I1
asS'reap'
p2873
(lp2874
I1
asS'dare'
p2875
(lp2876
I1
asS'acquainted'
p2877
(lp2878
I3
asS'fortune'
p2879
(lp2880
I2
asS'achieve'
p2881
(lp2882
I2
asS'miracle'
p2883
(lp2884
I3
asS'benefit'
p2885
(lp2886
I3
asS'beguiled'
p2887
(lp2888
I2
asS'either'
p2889
(lp2890
I2
asS'robbery'
p2891
(lp2892
I3
asS'offenders'
p2893
(lp2894
I3
asS'warrantise'
p2895
(lp2896
I3
asS'tombed'
p2897
(lp2898
I2
asS'fulfil'
p2899
(lp2900
I2
asS'falsehood'
p2901
(lp2902
I2
asS'kings'
p2903
(lp2904
I1
asS'images'
p2905
(lp2906
I3
asS'divine'
p2907
(lp2908
I2
asS'thinks'
p2909
(lp2910
I1
asS'reasons'
p2911
(lp2912
I2
asS'gross'
p2913
(lp2914
I1
asS'courses'
p2915
(lp2916
I2
asS'noon'
p2917
(lp2918
I1
asS'besiege'
p2919
(lp2920
I2
asS'stops'
p2921
(lp2922
I1
asS'moon'
p2923
(lp2924
I1
asS'forgoing'
p2925
(lp2926
I3
asS'expressing'
p2927
(lp2928
I3
asS'self-loving'
p2929
(lp2930
I3
asS'knife'
p2931
(lp2932
I1
asS'destroys'
p2933
(lp2934
I2
asS'welcome'
p2935
(lp2936
I2
asS'power'
p2937
(lp2938
I2
asS'seconds'
p2939
(lp2940
I2
asS'strained'
p2941
(lp2942
I1
asS'olives'
p2943
(lp2944
I2
asS'forgetfulness'
p2945
(lp2946
I4
asS'broken'
p2947
(lp2948
I2
asS"o'er-green"
p2949
(lp2950
I3
asS'assemble'
p2951
(lp2952
I3
asS'feeds'
p2953
(lp2954
I1
asS'death-bed'
p2955
(lp2956
I2
asS'on'
p2957
(lp2958
I1
asS'stone'
p2959
(lp2960
I1
asS'subdued'
p2961
(lp2962
I2
asS'basest'
p2963
(lp2964
I2
asS'zealous'
p2965
(lp2966
I2
asS'of'
p2967
(lp2968
I1
asS'choirs'
p2969
(lp2970
I1
asS'feil'
p2971
(lp2972
I1
asS'fearful'
p2973
(lp2974
I2
asS'whence'
p2975
(lp2976
I1
asS'journey'
p2977
(lp2978
I2
asS'wolf'
p2979
(lp2980
I1
asS'stand'
p2981
(lp2982
I1
asS'act'
p2983
(lp2984
I1
asS'mixed'
p2985
(lp2986
I1
asS'luck'
p2987
(lp2988
I1
asS'or'
p2989
(lp2990
I1
asS'imitated'
p2991
(lp2992
I4
asS'ladies'
p2993
(lp2994
I2
asS'long-lived'
p2995
(lp2996
I2
asS'burning'
p2997
(lp2998
I2
asS"put'st"
p2999
(lp3000
I1
asS'distempered'
p3001
(lp3002
I3
asS'image'
p3003
(lp3004
I2
asS'blessed'
p3005
(lp3006
I1
asS'rising'
p3007
(lp3008
I2
asS'lively'
p3009
(lp3010
I2
asS'dreaming'
p3011
(lp3012
I2
asS'blesses'
p3013
(lp3014
I2
asS'your'
p3015
(lp3016
I1
asS'buds'
p3017
(lp3018
I1
asS"oaths'"
p3019
(lp3020
I1
asS'fast'
p3021
(lp3022
I1
asS'prepare'
p3023
(lp3024
I2
asS'there'
p3025
(lp3026
I1
asS'disposed'
p3027
(lp3028
I2
asS'desert'
p3029
(lp3030
I2
asS'stealth'
p3031
(lp3032
I1
asS"whate'er"
p3033
(lp3034
I2
asS'low'
p3035
(lp3036
I1
asS'stars'
p3037
(lp3038
I1
asS'house'
p3039
(lp3040
I1
asS'groan'
p3041
(lp3042
I1
asS'wits'
p3043
(lp3044
I1
asS"you'"
p3045
(lp3046
I1
asS"dyer's"
p3047
(lp3048
I2
asS'strikes'
p3049
(lp3050
I1
asS'meetness'
p3051
(lp3052
I2
asS'land'
p3053
(lp3054
I1
asS'with'
p3055
(lp3056
I1
asS'longer'
p3057
(lp3058
I2
asS'abused'
p3059
(lp3060
I2
asS'applying'
p3061
(lp3062
I3
asS'naming'
p3063
(lp3064
I2
asS'rage'
p3065
(lp3066
I1
asS'niggarding'
p3067
(lp3068
I3
asS'self-same'
p3069
(lp3070
I2
asS'impute'
p3071
(lp3072
I2
asS'abuses'
p3073
(lp3074
I3
asS'strongly'
p3075
(lp3076
I2
asS'gone'
p3077
(lp3078
I1
asS'intents'
p3079
(lp3080
I2
asS'palate'
p3081
(lp3082
I2
asS'surly'
p3083
(lp3084
I2
asS'taste'
p3085
(lp3086
I1
asS'ah'
p3087
(lp3088
I1
asS'accents'
p3089
(lp3090
I2
asS'stealing'
p3091
(lp3092
I2
asS'am'
p3093
(lp3094
I1
aI2
asS'deep'
p3095
(lp3096
I1
asS'an'
p3097
(lp3098
I1
asS'toiled'
p3099
(lp3100
I1
asS'excusing'
p3101
(lp3102
I3
asS'deem'
p3103
(lp3104
I1
asS'carved'
p3105
(lp3106
I1
asS'walks'
p3107
(lp3108
I1
asS'ay'
p3109
(lp3110
I1
asS'horse'
p3111
(lp3112
I1
asS'spends'
p3113
(lp3114
I1
asS'fill'
p3115
(lp3116
I1
asS'again'
p3117
(lp3118
I2
asS'proudly'
p3119
(lp3120
I2
asS"judgment's"
p3121
(lp3122
I2
asS'deserve'
p3123
(lp3124
I2
asS'ever-fixed'
p3125
(lp3126
I3
asS"helen's"
p3127
(lp3128
I2
asS'repent'
p3129
(lp3130
I2
asS'incertainties'
p3131
(lp3132
I4
asS'roses'
p3133
(lp3134
I2
asS"wand'ring"
p3135
(lp3136
I2
asS'you'
p3137
(lp3138
I1
asS'abysm'
p3139
(lp3140
I3
asS'poor'
p3141
(lp3142
I1
asS'teeth'
p3143
(lp3144
I1
asS'gifts'
p3145
(lp3146
I1
asS'lovers'
p3147
(lp3148
I2
asS'highmost'
p3149
(lp3150
I2
asS'suited'
p3151
(lp3152
I2
asS'brass'
p3153
(lp3154
I1
asS'sequent'
p3155
(lp3156
I2
asS'building'
p3157
(lp3158
I2
asS'remote'
p3159
(lp3160
I2
asS'calls'
p3161
(lp3162
I1
asS'wife'
p3163
(lp3164
I1
asS"life's"
p3165
(lp3166
I1
asS'dyed'
p3167
(lp3168
I1
asS'repay'
p3169
(lp3170
I2
asS'hugely'
p3171
(lp3172
I2
asS'treason'
p3173
(lp3174
I2
asS'apparel'
p3175
(lp3176
I3
asS'tanned'
p3177
(lp3178
I1
asS'unset'
p3179
(lp3180
I2
asS'maturity'
p3181
(lp3182
I4
asS'all'
p3183
(lp3184
I1
asS'lace'
p3185
(lp3186
I1
asS'vile'
p3187
(lp3188
I1
asS'suns'
p3189
(lp3190
I1
asS'forbidden'
p3191
(lp3192
I3
asS'lack'
p3193
(lp3194
I1
asS'neigh'
p3195
(lp3196
I1
asS'worms'
p3197
(lp3198
I1
asS'importune'
p3199
(lp3200
I3
asS'seals'
p3201
(lp3202
I1
asS'unrest'
p3203
(lp3204
I2
asS"'gainst"
p3205
(lp3206
I1
asS'forged'
p3207
(lp3208
I1
asS'welfare'
p3209
(lp3210
I2
asS'follow'
p3211
(lp3212
I2
asS'meditation'
p3213
(lp3214
I4
asS'religious'
p3215
(lp3216
I3
asS'children'
p3217
(lp3218
I2
asS'oaths'
p3219
(lp3220
I1
asS'wanton'
p3221
(lp3222
I2
asS'homage'
p3223
(lp3224
I2
asS'sparkling'
p3225
(lp3226
I2
aI3
asS'spirit'
p3227
(lp3228
I2
asS"keep'st"
p3229
(lp3230
I1
asS'to'
p3231
(lp3232
I1
asS'painter'
p3233
(lp3234
I2
asS'dressing'
p3235
(lp3236
I2
asS"is't"
p3237
(lp3238
I1
asS'nurseth'
p3239
(lp3240
I2
asS'hideous'
p3241
(lp3242
I3
asS'subtleties'
p3243
(lp3244
I3
asS'case'
p3245
(lp3246
I1
asS'woman'
p3247
(lp3248
I2
asS'worse'
p3249
(lp3250
I1
asS'laws'
p3251
(lp3252
I1
asS'very'
p3253
(lp3254
I2
asS"'will"
p3255
(lp3256
I1
asS'saved'
p3257
(lp3258
I1
asS'coloured'
p3259
(lp3260
I2
asS'oblation'
p3261
(lp3262
I3
asS'medicine'
p3263
(lp3264
I3
asS'worst'
p3265
(lp3266
I1
asS'minded'
p3267
(lp3268
I2
asS'fall'
p3269
(lp3270
I1
asS'hems'
p3271
(lp3272
I1
asS'difference'
p3273
(lp3274
I2
aI3
asS'darling'
p3275
(lp3276
I2
asS'themes'
p3277
(lp3278
I1
asS'heaven'
p3279
(lp3280
I2
asS'list'
p3281
(lp3282
I1
asS'large'
p3283
(lp3284
I1
asS'sang'
p3285
(lp3286
I1
asS'plain'
p3287
(lp3288
I1
asS'mistaking'
p3289
(lp3290
I3
asS'tear'
p3291
(lp3292
I1
asS'wantonness'
p3293
(lp3294
I3
asS"i'll"
p3295
(lp3296
I1
asS'quicker'
p3297
(lp3298
I2
asS'ten'
p3299
(lp3300
I1
asS'appearance'
p3301
(lp3302
I3
asS'past'
p3303
(lp3304
I1
asS'winds'
p3305
(lp3306
I1
asS'invention'
p3307
(lp3308
I3
asS'perspective'
p3309
(lp3310
I3
asS'pass'
p3311
(lp3312
I1
asS'affable'
p3313
(lp3314
I3
asS'befriends'
p3315
(lp3316
I2
asS'crests'
p3317
(lp3318
I1
asS'creatures'
p3319
(lp3320
I2
asS'conscience'
p3321
(lp3322
I2
asS'gazers'
p3323
(lp3324
I2
asS'what'
p3325
(lp3326
I1
asS'defence'
p3327
(lp3328
I2
asS'darkness'
p3329
(lp3330
I2
asS'sweetly'
p3331
(lp3332
I2
asS'clock'
p3333
(lp3334
I1
asS'sun'
p3335
(lp3336
I1
asS'wrecked'
p3337
(lp3338
I1
asS'gardens'
p3339
(lp3340
I2
asS'brief'
p3341
(lp3342
I1
asS'prevailed'
p3343
(lp3344
I2
asS'foison'
p3345
(lp3346
I2
asS'unseen'
p3347
(lp3348
I2
asS'ill-wresting'
p3349
(lp3350
I3
asS'learned'
p3351
(lp3352
I1
aI2
asS'doting'
p3353
(lp3354
I2
asS'womb'
p3355
(lp3356
I1
asS'quenched'
p3357
(lp3358
I1
asS'full'
p3359
(lp3360
I1
asS'ranged'
p3361
(lp3362
I1
asS'love-suit'
p3363
(lp3364
I3
asS'answers'
p3365
(lp3366
I2
asS'revenge'
p3367
(lp3368
I2
asS'hours'
p3369
(lp3370
I1
aI2
asS'dregs'
p3371
(lp3372
I1
asS'excess'
p3373
(lp3374
I2
asS'hast'
p3375
(lp3376
I1
asS'depend'
p3377
(lp3378
I2
asS'strong'
p3379
(lp3380
I1
asS'respect'
p3381
(lp3382
I2
asS'enmity'
p3383
(lp3384
I3
asS'losses'
p3385
(lp3386
I2
asS'dearths'
p3387
(lp3388
I1
asS'qualify'
p3389
(lp3390
I3
asS'action'
p3391
(lp3392
I2
asS'steepy'
p3393
(lp3394
I2
asS'sweetness'
p3395
(lp3396
I2
asS"day's"
p3397
(lp3398
I1
asS'followed'
p3399
(lp3400
I2
asS'impiety'
p3401
(lp3402
I3
asS'seemly'
p3403
(lp3404
I2
asS'tendered'
p3405
(lp3406
I2
asS"lion's"
p3407
(lp3408
I2
asS'estimate'
p3409
(lp3410
I3
asS'unthrift'
p3411
(lp3412
I2
asS'self-love'
p3413
(lp3414
I2
asS'taker'
p3415
(lp3416
I2
asS'proceed'
p3417
(lp3418
I2
asS'cherubins'
p3419
(lp3420
I3
asS'faint'
p3421
(lp3422
I1
asS'two'
p3423
(lp3424
I1
asS'pearl'
p3425
(lp3426
I1
asS'morn'
p3427
(lp3428
I1
asS'soil'
p3429
(lp3430
I1
asS'taken'
p3431
(lp3432
I2
asS'undivided'
p3433
(lp3434
I4
asS'injury'
p3435
(lp3436
I3
asS'more'
p3437
(lp3438
I1
asS'horses'
p3439
(lp3440
I2
asS'wretched'
p3441
(lp3442
I2
asS'unlearned'
p3443
(lp3444
I2
asS'knows'
p3445
(lp3446
I1
asS"receiv'st"
p3447
(lp3448
I2
asS"ow'st"
p3449
(lp3450
I1
asS'foregone'
p3451
(lp3452
I2
asS'spoils'
p3453
(lp3454
I1
asS'excuse'
p3455
(lp3456
I2
asS'lameness'
p3457
(lp3458
I3
asS'controlling'
p3459
(lp3460
I3
asS'broke'
p3461
(lp3462
I1
asS'varying'
p3463
(lp3464
I3
asS'known'
p3465
(lp3466
I1
asS'mounted'
p3467
(lp3468
I2
asS'glad'
p3469
(lp3470
I1
asS'cunning'
p3471
(lp3472
I2
asS'lascivious'
p3473
(lp3474
I4
asS'fleece'
p3475
(lp3476
I1
asS'hour'
p3477
(lp3478
I1
aI2
asS'besides'
p3479
(lp3480
I2
asS'remain'
p3481
(lp3482
I2
asS'nine'
p3483
(lp3484
I1
asS'learn'
p3485
(lp3486
I1
asS'marble'
p3487
(lp3488
I2
asS'history'
p3489
(lp3490
I2
aI3
asS'beautiful'
p3491
(lp3492
I3
asS'compare'
p3493
(lp3494
I2
asS"woman's"
p3495
(lp3496
I2
asS'visage'
p3497
(lp3498
I2
asS'neglected'
p3499
(lp3500
I3
asS'conspire'
p3501
(lp3502
I3
asS'autumn'
p3503
(lp3504
I2
asS'well-seeing'
p3505
(lp3506
I2
asS'numbers'
p3507
(lp3508
I2
asS'arise'
p3509
(lp3510
I2
asS'phrase'
p3511
(lp3512
I1
asS'dress'
p3513
(lp3514
I1
asS'huge'
p3515
(lp3516
I1
asS'siren'
p3517
(lp3518
I2
asS'drained'
p3519
(lp3520
I1
asS'rather'
p3521
(lp3522
I2
asS"'thus"
p3523
(lp3524
I1
asS'comfort'
p3525
(lp3526
I2
asS'chopt'
p3527
(lp3528
I1
asS"adder's"
p3529
(lp3530
I2
asS'glowing'
p3531
(lp3532
I2
asS"heart's"
p3533
(lp3534
I1
asS'sacred'
p3535
(lp3536
I2
asS'new-fangled'
p3537
(lp3538
I2
asS'creature'
p3539
(lp3540
I2
asS'simplicity'
p3541
(lp3542
I4
asS'rude'
p3543
(lp3544
I1
asS'disgraced'
p3545
(lp3546
I2
asS'mended'
p3547
(lp3548
I2
asS'blood'
p3549
(lp3550
I1
asS'faculty'
p3551
(lp3552
I3
asS'replete'
p3553
(lp3554
I2
asS'a'
(lp3555
I1
asS'refuse'
p3556
(lp3557
I2
asS'short'
p3558
(lp3559
I1
asS'resemble'
p3560
(lp3561
I3
asS'shady'
p3562
(lp3563
I2
asS'register'
p3564
(lp3565
I3
asS"present'st"
p3566
(lp3567
I2
asS'shore'
p3568
(lp3569
I1
asS'shade'
p3570
(lp3571
I1
asS'perjured'
p3572
(lp3573
I2
asS'banks'
p3574
(lp3575
I1
asS'pleasure'
p3576
(lp3577
I2
asS"gav'st"
p3578
(lp3579
I1
asS'lasting'
p3580
(lp3581
I2
asS'dream'
p3582
(lp3583
I1
asS"that's"
p3584
(lp3585
I1
asS'separable'
p3586
(lp3587
I4
asS'help'
p3588
(lp3589
I1
asS'winged'
p3590
(lp3591
I1
asS'flowers'
p3592
(lp3593
I2
asS'stays'
p3594
(lp3595
I1
asS'soon'
p3596
(lp3597
I1
asS'disabled'
p3598
(lp3599
I3
asS'held'
p3600
(lp3601
I1
asS'paper'
p3602
(lp3603
I2
asS'through'
p3604
(lp3605
I1
asS'committed'
p3606
(lp3607
I3
asS'hell'
p3608
(lp3609
I1
asS'smiling'
p3610
(lp3611
I2
asS'suffer'
p3612
(lp3613
I2
asS'saucy'
p3614
(lp3615
I2
asS'discloses'
p3616
(lp3617
I3
asS'pent'
p3618
(lp3619
I1
asS'render'
p3620
(lp3621
I2
asS'termed'
p3622
(lp3623
I1
asS'pray'
p3624
(lp3625
I1
asS'inward'
p3626
(lp3627
I2
asS'deeds'
p3628
(lp3629
I1
asS'bosom'
p3630
(lp3631
I2
asS'teeming'
p3632
(lp3633
I2
asS'hounds'
p3634
(lp3635
I1
asS'late'
p3636
(lp3637
I1
asS'resort'
p3638
(lp3639
I2
asS'dross'
p3640
(lp3641
I1
asS'parts'
p3642
(lp3643
I1
asS'threescore'
p3644
(lp3645
I3
asS'ruining'
p3646
(lp3647
I3
asS'self-willed'
p3648
(lp3649
I2
asS'bereft'
p3650
(lp3651
I2
asS'alter'
p3652
(lp3653
I2
asS'crawls'
p3654
(lp3655
I1
asS'fool'
p3656
(lp3657
I1
asS'good'
p3658
(lp3659
I1
asS'return'
p3660
(lp3661
I2
asS'freezings'
p3662
(lp3663
I2
asS'seeking'
p3664
(lp3665
I2
asS'motley'
p3666
(lp3667
I2
asS'distilled'
p3668
(lp3669
I2
asS'ye'
p3670
(lp3671
I1
asS'storm-beaten'
p3672
(lp3673
I3
asS'speechless'
p3674
(lp3675
I2
asS'walls'
p3676
(lp3677
I1
asS'nymphs'
p3678
(lp3679
I1
asS'rank'
p3680
(lp3681
I1
asS'compound'
p3682
(lp3683
I2
asS'accumulate'
p3684
(lp3685
I4
asS'hunted'
p3686
(lp3687
I2
asS'breathers'
p3688
(lp3689
I2
asS"mistress'"
p3690
(lp3691
I2
asS'complain'
p3692
(lp3693
I2
asS'likeness'
p3694
(lp3695
I2
asS'imprisoned'
p3696
(lp3697
I3
asS'always'
p3698
(lp3699
I2
asS'truths'
p3700
(lp3701
I1
asS'eloquence'
p3702
(lp3703
I3
asS'ashes'
p3704
(lp3705
I2
asS'stopped'
p3706
(lp3707
I1
asS'blest'
p3708
(lp3709
I1
asS'found'
p3710
(lp3711
I1
asS'heavy'
p3712
(lp3713
I2
asS'weighs'
p3714
(lp3715
I1
asS'proud-pied'
p3716
(lp3717
I2
asS'bends'
p3718
(lp3719
I1
asS'weight'
p3720
(lp3721
I1
asS'jaws'
p3722
(lp3723
I1
asS'hard'
p3724
(lp3725
I1
asS'oppressed'
p3726
(lp3727
I2
asS'fist'
p3728
(lp3729
I1
asS"nature's"
p3730
(lp3731
I2
asS'beyond'
p3732
(lp3733
I2
asS'orient'
p3734
(lp3735
I3
asS'travels'
p3736
(lp3737
I2
asS'flower'
p3738
(lp3739
I2
asS'missed'
p3740
(lp3741
I1
asS'since'
p3742
(lp3743
I1
asS'publish'
p3744
(lp3745
I2
asS'health'
p3746
(lp3747
I1
asS'hill'
p3748
(lp3749
I1
asS'print'
p3750
(lp3751
I1
asS'get'
p3752
(lp3753
I1
asS'issue'
p3754
(lp3755
I2
asS'sympathized'
p3756
(lp3757
I3
asS'stewards'
p3758
(lp3759
I2
asS'boldness'
p3760
(lp3761
I2
asS'belied'
p3762
(lp3763
I2
asS'commits'
p3764
(lp3765
I2
asS'fore-bemoaned'
p3766
(lp3767
I3
asS'forgive'
p3768
(lp3769
I2
asS'pleasant'
p3770
(lp3771
I2
asS'reason'
p3772
(lp3773
I2
asS'base'
p3774
(lp3775
I1
asS'impeached'
p3776
(lp3777
I2
asS'put'
p3778
(lp3779
I1
asS'teach'
p3780
(lp3781
I1
asS'reproach'
p3782
(lp3783
I2
asS"know'st"
p3784
(lp3785
I1
asS'nightly'
p3786
(lp3787
I2
asS'owners'
p3788
(lp3789
I2
asS'usurer'
p3790
(lp3791
I3
asS'needing'
p3792
(lp3793
I2
asS'rack'
p3794
(lp3795
I1
asS'sicken'
p3796
(lp3797
I2
asS'corrupting'
p3798
(lp3799
I3
asS'feed'
p3800
(lp3801
I1
asS'gazed'
p3802
(lp3803
I1
asS'seeming'
p3804
(lp3805
I2
asS'forwards'
p3806
(lp3807
I2
asS'blush'
p3808
(lp3809
I1
asS'feel'
p3810
(lp3811
I1
asS'number'
p3812
(lp3813
I2
asS'antiquity'
p3814
(lp3815
I4
asS'elder'
p3816
(lp3817
I2
asS'enlarged'
p3818
(lp3819
I2
asS'revolution'
p3820
(lp3821
I4
asS'done'
p3822
(lp3823
I1
asS'defects'
p3824
(lp3825
I2
asS'rents'
p3826
(lp3827
I1
asS'moan'
p3828
(lp3829
I1
asS'guess'
p3830
(lp3831
I1
asS'guest'
p3832
(lp3833
I1
asS'unperfect'
p3834
(lp3835
I3
asS'twenty'
p3836
(lp3837
I2
asS'slanderers'
p3838
(lp3839
I3
asS'least'
p3840
(lp3841
I1
asS'hallowed'
p3842
(lp3843
I2
asS'steals'
p3844
(lp3845
I1
asS'passed'
p3846
(lp3847
I1
asS'essays'
p3848
(lp3849
I2
asS'hundred'
p3850
(lp3851
I2
asS'store'
p3852
(lp3853
I1
asS'lease'
p3854
(lp3855
I1
asS'youngly'
p3856
(lp3857
I2
asS'selling'
p3858
(lp3859
I2
asS'imperfect'
p3860
(lp3861
I3
asS'saint'
p3862
(lp3863
I1
asS'behind'
p3864
(lp3865
I2
asS'adonis'
p3866
(lp3867
I3
asS'part'
p3868
(lp3869
I1
asS'bower'
p3870
(lp3871
I2
asS'deceivest'
p3872
(lp3873
I3
asS'believe'
p3874
(lp3875
I2
asS'grace'
p3876
(lp3877
I1
asS'king'
p3878
(lp3879
I1
asS'kind'
p3880
(lp3881
I1
asS'grew'
p3882
(lp3883
I1
asS'mortality'
p3884
(lp3885
I4
asS'vial'
p3886
(lp3887
I2
asS'double'
p3888
(lp3889
I2
asS'anticipate'
p3890
(lp3891
I4
asS'grey'
p3892
(lp3893
I1
asS'shallowest'
p3894
(lp3895
I3
asS'youth'
p3896
(lp3897
I1
asS'determined'
p3898
(lp3899
I3
asS'contrary'
p3900
(lp3901
I3
asS'supposed'
p3902
(lp3903
I2
asS'toward'
p3904
(lp3905
I1
aI2
asS'restful'
p3906
(lp3907
I2
asS'tongues'
p3908
(lp3909
I1
asS'trifles'
p3910
(lp3911
I2
asS'ages'
p3912
(lp3913
I2
asS'defect'
p3914
(lp3915
I2
asS'livery'
p3916
(lp3917
I3
asS'new-fired'
p3918
(lp3919
I2
asS'alike'
p3920
(lp3921
I2
asS'showers'
p3922
(lp3923
I2
asS'travail'
p3924
(lp3925
I2
asS'fading'
p3926
(lp3927
I2
asS'sensual'
p3928
(lp3929
I3
asS'sell'
p3930
(lp3931
I1
asS'mountain'
p3932
(lp3933
I2
asS'nights'
p3934
(lp3935
I1
asS'built'
p3936
(lp3937
I1
asS'dancing'
p3938
(lp3939
I2
asS'self'
p3940
(lp3941
I1
asS"hate's"
p3942
(lp3943
I2
asS'onset'
p3944
(lp3945
I2
asS'without'
p3946
(lp3947
I2
asS'lip'
p3948
(lp3949
I1
asS'finding'
p3950
(lp3951
I2
asS'chary'
p3952
(lp3953
I2
asS"art's"
p3954
(lp3955
I1
asS'play'
p3956
(lp3957
I1
asS'towards'
p3958
(lp3959
I1
aI2
asS'reckon'
p3960
(lp3961
I2
asS'sets'
p3962
(lp3963
I1
asS"fleet'st"
p3964
(lp3965
I1
asS'unused'
p3966
(lp3967
I2
asS'most'
p3968
(lp3969
I1
asS'offences'
p3970
(lp3971
I3
asS'blunting'
p3972
(lp3973
I2
asS'nothing'
p3974
(lp3975
I2
asS'seasons'
p3976
(lp3977
I2
asS"o'ercharged"
p3978
(lp3979
I3
asS'wastes'
p3980
(lp3981
I1
asS'measured'
p3982
(lp3983
I2
asS'stands'
p3984
(lp3985
I1
asS'chronicle'
p3986
(lp3987
I3
asS'feasting'
p3988
(lp3989
I2
asS'windows'
p3990
(lp3991
I2
asS'builded'
p3992
(lp3993
I3
asS'clear'
p3994
(lp3995
I1
asS'sometimes'
p3996
(lp3997
I2
asS'cover'
p3998
(lp3999
I2
asS'unbred'
p4000
(lp4001
I1
asS'clean'
p4002
(lp4003
I1
asS'barren'
p4004
(lp4005
I2
asS'weigh'
p4006
(lp4007
I1
asS'charged'
p4008
(lp4009
I1
asS'lying'
p4010
(lp4011
I2
asS'stones'
p4012
(lp4013
I1
asS'lest'
p4014
(lp4015
I1
asS'despise'
p4016
(lp4017
I2
asS'gold'
p4018
(lp4019
I1
asS'gates'
p4020
(lp4021
I1
asS"y'have"
p4022
(lp4023
I1
asS'wailing'
p4024
(lp4025
I2
asS'fond'
p4026
(lp4027
I1
asS'page'
p4028
(lp4029
I1
asS'rhymers'
p4030
(lp4031
I2
asS'wasted'
p4032
(lp4033
I2
asS'registers'
p4034
(lp4035
I3
asS'fine'
p4036
(lp4037
I1
asS'find'
p4038
(lp4039
I1
asS'viewest'
p4040
(lp4041
I2
asS'sportive'
p4042
(lp4043
I2
asS'gilded'
p4044
(lp4045
I2
asS'aggravate'
p4046
(lp4047
I3
asS'shouldst'
p4048
(lp4049
I1
asS'deserts'
p4050
(lp4051
I2
asS'ruin'
p4052
(lp4053
I2
asS'hope'
p4054
(lp4055
I1
asS'rotten'
p4056
(lp4057
I2
asS'vision'
p4058
(lp4059
I2
asS'betray'
p4060
(lp4061
I2
asS'pretty'
p4062
(lp4063
I2
asS'fiend'
p4064
(lp4065
I1
asS"painter's"
p4066
(lp4067
I2
asS'his'
p4068
(lp4069
I1
asS'dust'
p4070
(lp4071
I1
asS'gains'
p4072
(lp4073
I1
asS'mercy'
p4074
(lp4075
I2
asS'beams'
p4076
(lp4077
I1
asS'express'
p4078
(lp4079
I2
asS'impregnable'
p4080
(lp4081
I4
asS'trees'
p4082
(lp4083
I1
asS'remedy'
p4084
(lp4085
I3
asS'hid'
p4086
(lp4087
I1
asS'breast'
p4088
(lp4089
I1
asS'compass'
p4090
(lp4091
I2
asS'swart-complexioned'
p4092
(lp4093
I5
asS'sepulchres'
p4094
(lp4095
I3
asS"send'st"
p4096
(lp4097
I1
asS'him'
p4098
(lp4099
I1
asS'distraction'
p4100
(lp4101
I3
asS'grievances'
p4102
(lp4103
I3
asS'bareness'
p4104
(lp4105
I3
asS'pleasures'
p4106
(lp4107
I2
asS'cry'
p4108
(lp4109
I1
asS'alteration'
p4110
(lp4111
I4
asS'remove'
p4112
(lp4113
I2
asS'common'
p4114
(lp4115
I2
asS'kill'
p4116
(lp4117
I1
asS'poisoned'
p4118
(lp4119
I2
asS'wrongfully'
p4120
(lp4121
I3
asS'bars'
p4122
(lp4123
I1
asS'set'
p4124
(lp4125
I1
asS'art'
p4126
(lp4127
I1
asS'declines'
p4128
(lp4129
I2
asS'jade'
p4130
(lp4131
I1
asS"o'ersways"
p4132
(lp4133
I3
asS'see'
p4134
(lp4135
I1
asS'bare'
p4136
(lp4137
I1
asS'are'
p4138
(lp4139
I1
asS'sea'
p4140
(lp4141
I1
asS'tender'
p4142
(lp4143
I2
asS'bark'
p4144
(lp4145
I1
asS'outward'
p4146
(lp4147
I2
asS'spirits'
p4148
(lp4149
I2
asS'forlorn'
p4150
(lp4151
I2
asS'please'
p4152
(lp4153
I1
asS'drooping'
p4154
(lp4155
I2
asS'unions'
p4156
(lp4157
I2
asS'won'
p4158
(lp4159
I1
asS'dost'
p4160
(lp4161
I1
asS'affairs'
p4162
(lp4163
I2
asS'woe'
p4164
(lp4165
I1
asS'guilt'
p4166
(lp4167
I1
asS'burned'
p4168
(lp4169
I1
asS'monsters'
p4170
(lp4171
I2
asS'thrive'
p4172
(lp4173
I1
asS'endure'
p4174
(lp4175
I2
asS'knowing'
p4176
(lp4177
I2
asS'creating'
p4178
(lp4179
I3
asS'sold'
p4180
(lp4181
I1
asS'sole'
p4182
(lp4183
I1
asS'vanishing'
p4184
(lp4185
I3
asS'death'
p4186
(lp4187
I1
asS'alters'
p4188
(lp4189
I2
asS'hoisted'
p4190
(lp4191
I2
asS'last'
p4192
(lp4193
I1
asS'unwooed'
p4194
(lp4195
I2
asS'nimble'
p4196
(lp4197
I2
asS'thou'
p4198
(lp4199
I1
asS'anon'
p4200
(lp4201
I2
asS'forgotten'
p4202
(lp4203
I3
asS'let'
p4204
(lp4205
I1
asS'possesseth'
p4206
(lp4207
I3
asS'afar'
p4208
(lp4209
I2
asS'finds'
p4210
(lp4211
I1
asS'league'
p4212
(lp4213
I1
asS'usest'
p4214
(lp4215
I2
asS'flies'
p4216
(lp4217
I1
asS'onward'
p4218
(lp4219
I2
asS'majesty'
p4220
(lp4221
I3
asS'point'
p4222
(lp4223
I1
asS'simple'
p4224
(lp4225
I2
asS'sweet'
p4226
(lp4227
I1
asS'loan'
p4228
(lp4229
I1
asS'manners'
p4230
(lp4231
I2
asS'except'
p4232
(lp4233
I2
asS'key'
p4234
(lp4235
I1
asS'simply'
p4236
(lp4237
I2
asS'worthless'
p4238
(lp4239
I2
asS'devil'
p4240
(lp4241
I2
asS'unworthiness'
p4242
(lp4243
I4
asS'dun'
p4244
(lp4245
I1
asS'stamp'
p4246
(lp4247
I1
asS'devouring'
p4248
(lp4249
I4
asS'acceptance'
p4250
(lp4251
I3
asS'satire'
p4252
(lp4253
I3
asS'due'
p4254
(lp4255
I1
asS'miser'
p4256
(lp4257
I2
asS'whom'
p4258
(lp4259
I1
asS'secret'
p4260
(lp4261
I2
asS"wood's"
p4262
(lp4263
I1
asS'wait'
p4264
(lp4265
I1
asS'delights'
p4266
(lp4267
I2
asS'rosy'
p4268
(lp4269
I2
asS'firm'
p4270
(lp4271
I1
asS'lived'
p4272
(lp4273
I1
asS'partly'
p4274
(lp4275
I2
asS'gay'
p4276
(lp4277
I1
asS"'twixt"
p4278
(lp4279
I1
asS'fire'
p4280
(lp4281
I1
aI2
asS"what's"
p4282
(lp4283
I1
asS'dully'
p4284
(lp4285
I2
asS'great'
p4286
(lp4287
I1
asS'else'
p4288
(lp4289
I1
asS'lives'
p4290
(lp4291
I1
asS'mournful'
p4292
(lp4293
I2
asS'plants'
p4294
(lp4295
I1
asS'uncertain'
p4296
(lp4297
I3
asS'look'
p4298
(lp4299
I1
asS'straight'
p4300
(lp4301
I1
asS'hadst'
p4302
(lp4303
I1
asS'admire'
p4304
(lp4305
I2
asS'pace'
p4306
(lp4307
I1
asS'while'
p4308
(lp4309
I1
asS'rigour'
p4310
(lp4311
I2
asS'error'
p4312
(lp4313
I2
asS'kissing'
p4314
(lp4315
I2
asS'eclipses'
p4316
(lp4317
I3
asS'costly'
p4318
(lp4319
I2
asS'wherever'
p4320
(lp4321
I3
asS'herein'
p4322
(lp4323
I2
asS'confound'
p4324
(lp4325
I2
asS'vow'
p4326
(lp4327
I1
asS'lodged'
p4328
(lp4329
I1
asS'owes'
p4330
(lp4331
I1
asS'churl'
p4332
(lp4333
I1
asS'rid'
p4334
(lp4335
I1
asS'seest'
p4336
(lp4337
I1
asS'fairer'
p4338
(lp4339
I2
asS'chase'
p4340
(lp4341
I1
asS'twofold'
p4342
(lp4343
I2
asS'trial'
p4344
(lp4345
I1
aI2
asS'lengths'
p4346
(lp4347
I1
asS'bristly'
p4348
(lp4349
I2
asS'belong'
p4350
(lp4351
I2
asS'engrossed'
p4352
(lp4353
I2
asS'wherein'
p4354
(lp4355
I2
asS'discourse'
p4356
(lp4357
I2
asS'esteemed'
p4358
(lp4359
I2
asS'ruth'
p4360
(lp4361
I1
asS'miscalled'
p4362
(lp4363
I2
asS'composition'
p4364
(lp4365
I4
asS'covetous'
p4366
(lp4367
I3
asS'used'
p4368
(lp4369
I1
asS'forced'
p4370
(lp4371
I1
asS'mow'
p4372
(lp4373
I1
asS'moment'
p4374
(lp4375
I2
asS'flown'
p4376
(lp4377
I1
asS'moving'
p4378
(lp4379
I2
asS'user'
p4380
(lp4381
I2
asS'wretchcd'
p4382
(lp4383
I1
asS'early'
p4384
(lp4385
I2
asS'task'
p4386
(lp4387
I1
asS'older'
p4388
(lp4389
I2
asS'cheek'
p4390
(lp4391
I1
asS'spent'
p4392
(lp4393
I1
asS"frown'st"
p4394
(lp4395
I1
asS'grind'
p4396
(lp4397
I1
asS'morrow'
p4398
(lp4399
I2
asS'cheer'
p4400
(lp4401
I1
asS'edge'
p4402
(lp4403
I1
asS'starved'
p4404
(lp4405
I1
asS'clears'
p4406
(lp4407
I1
asS'stelled'
p4408
(lp4409
I1
asS'spend'
p4410
(lp4411
I1
asS'things'
p4412
(lp4413
I1
asS'plagues'
p4414
(lp4415
I1
asS'bearer'
p4416
(lp4417
I2
asS'salve'
p4418
(lp4419
I1
asS'shape'
p4420
(lp4421
I1
asS'aright'
p4422
(lp4423
I2
asS'madding'
p4424
(lp4425
I2
asS'unto'
p4426
(lp4427
I2
asS'gems'
p4428
(lp4429
I1
asS'tables'
p4430
(lp4431
I2
asS'cut'
p4432
(lp4433
I1
asS'cup'
p4434
(lp4435
I1
asS'hated'
p4436
(lp4437
I2
asS'decayed'
p4438
(lp4439
I2
asS'sire'
p4440
(lp4441
I2
asS'eager'
p4442
(lp4443
I2
asS'lifts'
p4444
(lp4445
I1
asS'crying'
p4446
(lp4447
I2
asS"either's"
p4448
(lp4449
I2
asS"tongue's"
p4450
(lp4451
I2
asS'march'
p4452
(lp4453
I1
asS'lacking'
p4454
(lp4455
I2
asS'big'
p4456
(lp4457
I1
asS'showing'
p4458
(lp4459
I2
asS'advocate'
p4460
(lp4461
I3
asS'rondure'
p4462
(lp4463
I3
asS'judgement'
p4464
(lp4465
I2
asS'redeem'
p4466
(lp4467
I2
asS'quest'
p4468
(lp4469
I1
asS'private'
p4470
(lp4471
I2
asS'dearly'
p4472
(lp4473
I2
asS'sharpened'
p4474
(lp4475
I2
asS"garments'"
p4476
(lp4477
I2
asS'outright'
p4478
(lp4479
I2
asS'lost'
p4480
(lp4481
I1
asS'follows'
p4482
(lp4483
I2
asS"hate'"
p4484
(lp4485
I1
asS'strife'
p4486
(lp4487
I1
asS'shapes'
p4488
(lp4489
I1
asS'divining'
p4490
(lp4491
I3
asS'tribes'
p4492
(lp4493
I1
asS'foolish'
p4494
(lp4495
I2
asS'canst'
p4496
(lp4497
I1
asS'methods'
p4498
(lp4499
I2
asS'sue'
p4500
(lp4501
I1
asS'spring'
p4502
(lp4503
I1
aI2
asS'creation'
p4504
(lp4505
I3
asS'some'
p4506
(lp4507
I1
asS'back'
p4508
(lp4509
I1
asS'rich-proud'
p4510
(lp4511
I2
asS'sighs'
p4512
(lp4513
I1
asS'lips'
p4514
(lp4515
I1
asS'added'
p4516
(lp4517
I2
asS'ornaments'
p4518
(lp4519
I3
asS'curious'
p4520
(lp4521
I3
asS'pale'
p4522
(lp4523
I1
asS'sauces'
p4524
(lp4525
I2
asS'savage'
p4526
(lp4527
I2
asS'acquaintance'
p4528
(lp4529
I3
asS'fairing'
p4530
(lp4531
I2
asS'shall'
p4532
(lp4533
I1
asS'oblivion'
p4534
(lp4535
I4
asS'balmy'
p4536
(lp4537
I2
asS'confounds'
p4538
(lp4539
I2
asS'barrenly'
p4540
(lp4541
I3
asS'lark'
p4542
(lp4543
I1
asS'be'
p4544
(lp4545
I1
asS'patient'
p4546
(lp4547
I2
asS'remembered'
p4548
(lp4549
I3
asS'word'
p4550
(lp4551
I1
asS'clay'
p4552
(lp4553
I1
asS'use'
p4554
(lp4555
I1
asS"'this"
p4556
(lp4557
I1
asS'aloft'
p4558
(lp4559
I2
asS'rent'
p4560
(lp4561
I1
asS'cheered'
p4562
(lp4563
I1
asS'concealed'
p4564
(lp4565
I2
asS'nerves'
p4566
(lp4567
I1
asS'tripping'
p4568
(lp4569
I2
asS'shine'
p4570
(lp4571
I1
asS'faith'
p4572
(lp4573
I1
asS'deserved'
p4574
(lp4575
I2
asS'wrinkles'
p4576
(lp4577
I2
asS'deserves'
p4578
(lp4579
I2
asS'ambush'
p4580
(lp4581
I2
asS'together'
p4582
(lp4583
I3
asS'hatred'
p4584
(lp4585
I2
asS'behaviour'
p4586
(lp4587
I4
asS'tenants'
p4588
(lp4589
I2
asS'silence'
p4590
(lp4591
I2
asS'misplaced'
p4592
(lp4593
I2
asS'repair'
p4594
(lp4595
I2
asS'into'
p4596
(lp4597
I2
asS'within'
p4598
(lp4599
I2
asS'exceed'
p4600
(lp4601
I2
asS'debateth'
p4602
(lp4603
I3
asS'services'
p4604
(lp4605
I3
asS'inconstant'
p4606
(lp4607
I3
asS'remembrance'
p4608
(lp4609
I3
asS'lesson'
p4610
(lp4611
I2
asS'next'
p4612
(lp4613
I1
asS"sharp'st"
p4614
(lp4615
I1
asS'sad'
p4616
(lp4617
I1
asS'featureless'
p4618
(lp4619
I3
asS'spending'
p4620
(lp4621
I2
asS'question'
p4622
(lp4623
I2
asS'long'
p4624
(lp4625
I1
asS'whereto'
p4626
(lp4627
I3
asS'suit'
p4628
(lp4629
I1
asS'translate'
p4630
(lp4631
I2
asS'himself'
p4632
(lp4633
I2
asS'jacks'
p4634
(lp4635
I1
asS'governs'
p4636
(lp4637
I2
asS'graciously'
p4638
(lp4639
I3
asS'healthful'
p4640
(lp4641
I2
asS'frost'
p4642
(lp4643
I1
asS'vowing'
p4644
(lp4645
I2
asS'alive'
p4646
(lp4647
I2
asS'newer'
p4648
(lp4649
I2
asS'filed'
p4650
(lp4651
I1
asS'hopes'
p4652
(lp4653
I1
asS'line'
p4654
(lp4655
I1
asS'dull'
p4656
(lp4657
I1
asS'usury'
p4658
(lp4659
I3
asS'directed'
p4660
(lp4661
I3
asS'bevel'
p4662
(lp4663
I2
asS'immured'
p4664
(lp4665
I2
asS"lover's"
p4666
(lp4667
I2
asS"monarch's"
p4668
(lp4669
I2
asS'us'
p4670
(lp4671
I1
aI2
asS'lords'
p4672
(lp4673
I1
asS'politic'
p4674
(lp4675
I3
asS'slander'
p4676
(lp4677
I2
asS'hied'
p4678
(lp4679
I1
asS'cheeks'
p4680
(lp4681
I1
asS'proves'
p4682
(lp4683
I1
asS'called'
p4684
(lp4685
I1
asS'vassalage'
p4686
(lp4687
I3
asS'possession'
p4688
(lp4689
I3
asS'constant'
p4690
(lp4691
I2
asS'goodly'
p4692
(lp4693
I2
asS'allayed'
p4694
(lp4695
I2
asS'influence'
p4696
(lp4697
I3
asS'scarlet'
p4698
(lp4699
I2
asS'single'
p4700
(lp4701
I2
asS'warning'
p4702
(lp4703
I2
asS'babe'
p4704
(lp4705
I1
asS'surmise'
p4706
(lp4707
I2
asS'rainy'
p4708
(lp4709
I2
asS'sullen'
p4710
(lp4711
I2
asS'sunken'
p4712
(lp4713
I2
asS'peace'
p4714
(lp4715
I1
asS'fears'
p4716
(lp4717
I1
asS'dimmed'
p4718
(lp4719
I1
asS'afford'
p4720
(lp4721
I2
asS'confine'
p4722
(lp4723
I2
asS'mock'
p4724
(lp4725
I1
asS'perusal'
p4726
(lp4727
I3
asS'draw'
p4728
(lp4729
I1
asS'elements'
p4730
(lp4731
I3
asS'titles'
p4732
(lp4733
I2
asS'reeleth'
p4734
(lp4735
I2
asS'lend'
p4736
(lp4737
I1
asS'breasts'
p4738
(lp4739
I1
asS'nay'
p4740
(lp4741
I1
asS'convertest'
p4742
(lp4743
I3
asS'makeless'
p4744
(lp4745
I3
asS'wrinkle'
p4746
(lp4747
I2
asS'sides'
p4748
(lp4749
I1
asS'bases'
p4750
(lp4751
I2
asS'suffers'
p4752
(lp4753
I2
asS'happier'
p4754
(lp4755
I3
asS"excuse'"
p4756
(lp4757
I2
asS"spend'st"
p4758
(lp4759
I1
asS'vice'
p4760
(lp4761
I1
asS'age'
p4762
(lp4763
I1
asS'wards'
p4764
(lp4765
I1
asS'admiring'
p4766
(lp4767
I3
asS'heats'
p4768
(lp4769
I1
asS'came'
p4770
(lp4771
I1
asS'far'
p4772
(lp4773
I1
asS'fresh'
p4774
(lp4775
I1
asS'marvel'
p4776
(lp4777
I2
asS'having'
p4778
(lp4779
I2
asS'once'
p4780
(lp4781
I1
asS'wilfulness'
p4782
(lp4783
I3
asS'discontent'
p4784
(lp4785
I3
asS'hooks'
p4786
(lp4787
I1
asS'tombs'
p4788
(lp4789
I1
asS"deformed'st"
p4790
(lp4791
I3
asS'alien'
p4792
(lp4793
I3
asS'windy'
p4794
(lp4795
I2
asS'special-blest'
p4796
(lp4797
I4
asS'amiss'
p4798
(lp4799
I2
asS'ruminate'
p4800
(lp4801
I3
asS'seemed'
p4802
(lp4803
I1
asS'graves'
p4804
(lp4805
I1
asS'tincture'
p4806
(lp4807
I2
asS'uphold'
p4808
(lp4809
I2
asS'reckoned'
p4810
(lp4811
I2
asS'young'
p4812
(lp4813
I1
asS'send'
p4814
(lp4815
I1
asS'breach'
p4816
(lp4817
I1
asS'pleasing'
p4818
(lp4819
I2
asS'virtuous'
p4820
(lp4821
I3
asS'over-partial'
p4822
(lp4823
I5
asS'queen'
p4824
(lp4825
I1
asS'wished'
p4826
(lp4827
I1
asS'torture'
p4828
(lp4829
I2
asS"'now"
p4830
(lp4831
I1
asS"'not"
p4832
(lp4833
I1
asS'confounding'
p4834
(lp4835
I3
asS'rhyme'
p4836
(lp4837
I1
asS'languished'
p4838
(lp4839
I2
asS'blot'
p4840
(lp4841
I1
asS'rebuked'
p4842
(lp4843
I2
asS'scanted'
p4844
(lp4845
I2
asS'accuse'
p4846
(lp4847
I2
asS'telling'
p4848
(lp4849
I2
asS'false-speaking'
p4850
(lp4851
I3
asS'iniquity'
p4852
(lp4853
I4
asS'try'
p4854
(lp4855
I1
asS"eve's"
p4856
(lp4857
I2
asS'race'
p4858
(lp4859
I1
asS'verdict'
p4860
(lp4861
I2
asS'betwixt'
p4862
(lp4863
I2
asS'noted'
p4864
(lp4865
I2
asS"alt'ring"
p4866
(lp4867
I2
asS'teachest'
p4868
(lp4869
I2
asS'crow'
p4870
(lp4871
I1
asS"work's"
p4872
(lp4873
I1
asS'poets'
p4874
(lp4875
I2
asS'waking'
p4876
(lp4877
I2
asS'jump'
p4878
(lp4879
I1
asS'issueless'
p4880
(lp4881
I3
asS'go'
p4882
(lp4883
I1
asS'plead'
p4884
(lp4885
I1
asS'decrees'
p4886
(lp4887
I2
asS'pity-wanting'
p4888
(lp4889
I4
asS'victor'
p4890
(lp4891
I2
asS'giving'
p4892
(lp4893
I2
asS'saw'
p4894
(lp4895
I1
asS'expressed'
p4896
(lp4897
I2
asS"man's"
p4898
(lp4899
I1
asS'paying'
p4900
(lp4901
I2
asS'waiting'
p4902
(lp4903
I2
asS"seasons'"
p4904
(lp4905
I2
asS'famoused'
p4906
(lp4907
I2
asS'bird'
p4908
(lp4909
I1
asS'body'
p4910
(lp4911
I2
asS'melancholy'
p4912
(lp4913
I4
asS'chose'
p4914
(lp4915
I1
asS'gathered'
p4916
(lp4917
I2
asS"shadow's"
p4918
(lp4919
I2
asS'sins'
p4920
(lp4921
I1
asS'growing'
p4922
(lp4923
I2
asS'scythe'
p4924
(lp4925
I1
asS'objects'
p4926
(lp4927
I2
asS'poverty'
p4928
(lp4929
I3
asS'separation'
p4930
(lp4931
I4
asS'others'
p4932
(lp4933
I2
asS'dissuade'
p4934
(lp4935
I2
asS'sing'
p4936
(lp4937
I1
asS'adulterate'
p4938
(lp4939
I4
asS'extreme'
p4940
(lp4941
I2
asS'convert'
p4942
(lp4943
I2
asS'burthens'
p4944
(lp4945
I2
asS'receive'
p4946
(lp4947
I2
asS'until'
p4948
(lp4949
I2
asS'metre'
p4950
(lp4951
I2
asS'leaving'
p4952
(lp4953
I2
asS'survey'
p4954
(lp4955
I2
asS'defeat'
p4956
(lp4957
I2
asS'vaunt'
p4958
(lp4959
I1
asS'makes'
p4960
(lp4961
I1
asS'writes'
p4962
(lp4963
I1
asS'composed'
p4964
(lp4965
I2
asS'thralled'
p4966
(lp4967
I1
asS'chaste'
p4968
(lp4969
I1
asS'apple'
p4970
(lp4971
I2
asS'admired'
p4972
(lp4973
I3
asS'forbid'
p4974
(lp4975
I2
asS'win'
p4976
(lp4977
I1
asS"whoe'er"
p4978
(lp4979
I2
asS'messengers'
p4980
(lp4981
I3
asS'uprear'
p4982
(lp4983
I2
asS'posterity'
p4984
(lp4985
I4
asS'wit'
p4986
(lp4987
I1
asS'decrease'
p4988
(lp4989
I2
asS'scandal'
p4990
(lp4991
I2
asS'cloud'
p4992
(lp4993
I1
asS'desiring'
p4994
(lp4995
I4
asS'fed'
p4996
(lp4997
I1
asS'fee'
p4998
(lp4999
I1
asS'from'
p5000
(lp5001
I1
asS'remains'
p5002
(lp5003
I2
asS'hammered'
p5004
(lp5005
I2
asS'throw'
p5006
(lp5007
I1
asS'few'
p5008
(lp5009
I1
asS'doubt'
p5010
(lp5011
I1
asS'themselves'
p5012
(lp5013
I2
asS'stage'
p5014
(lp5015
I1
asS"sun's"
p5016
(lp5017
I1
asS'defendant'
p5018
(lp5019
I3
asS'touched'
p5020
(lp5021
I1
asS'sort'
p5022
(lp5023
I1
asS'pencil'
p5024
(lp5025
I2
asS'assailed'
p5026
(lp5027
I2
asS'beauteous'
p5028
(lp5029
I2
asS'becomes'
p5030
(lp5031
I2
asS'freedom'
p5032
(lp5033
I2
asS'heir'
p5034
(lp5035
I1
asS"need'st"
p5036
(lp5037
I2
asS'infection'
p5038
(lp5039
I3
asS'fools'
p5040
(lp5041
I1
asS'meant'
p5042
(lp5043
I1
asS'insufficiency'
p5044
(lp5045
I5
asS'tattered'
p5046
(lp5047
I2
asS'gladly'
p5048
(lp5049
I2
asS'harvest'
p5050
(lp5051
I2
asS'annoy'
p5052
(lp5053
I2
asS"none'"
p5054
(lp5055
I1
asS'account'
p5056
(lp5057
I2
asS'salving'
p5058
(lp5059
I2
asS'this'
p5060
(lp5061
I1
asS'ride'
p5062
(lp5063
I1
asS'crossed'
p5064
(lp5065
I1
asS'praise'
p5066
(lp5067
I1
asS'executor'
p5068
(lp5069
I4
asS'meet'
p5070
(lp5071
I1
asS'drops'
p5072
(lp5073
I1
asS'befits'
p5074
(lp5075
I2
asS'proof'
p5076
(lp5077
I1
asS'control'
p5078
(lp5079
I2
asS'unswept'
p5080
(lp5081
I2
asS'bent'
p5082
(lp5083
I1
asS'ushers'
p5084
(lp5085
I2
asS'process'
p5086
(lp5087
I2
asS"mak'st"
p5088
(lp5089
I1
asS'high'
p5090
(lp5091
I1
asS'bones'
p5092
(lp5093
I1
asS'niggard'
p5094
(lp5095
I2
asS'something'
p5096
(lp5097
I2
asS'sought'
p5098
(lp5099
I1
asS'darkening'
p5100
(lp5101
I2
aI3
asS'paws'
p5102
(lp5103
I1
asS'tan'
p5104
(lp5105
I1
asS'counterfeit'
p5106
(lp5107
I3
asS'lamb'
p5108
(lp5109
I1
asS'counting'
p5110
(lp5111
I2
asS'compounded'
p5112
(lp5113
I3
asS'falls'
p5114
(lp5115
I1
asS'sit'
p5116
(lp5117
I1
asS"sickle's"
p5118
(lp5119
I2
asS'purpose'
p5120
(lp5121
I2
asS'holds'
p5122
(lp5123
I1
asS'thrall'
p5124
(lp5125
I1
asS'moods'
p5126
(lp5127
I1
asS'blessings'
p5128
(lp5129
I2
asS'slandering'
p5130
(lp5131
I3
asS'mightst'
p5132
(lp5133
I1
asS'sin'
p5134
(lp5135
I1
asS'watery'
p5136
(lp5137
I3
asS'attend'
p5138
(lp5139
I2
asS'watch'
p5140
(lp5141
I1
asS'canker'
p5142
(lp5143
I2
asS'abuse'
p5144
(lp5145
I2
asS'fits'
p5146
(lp5147
I1
asS'raiment'
p5148
(lp5149
I2
asS"worth's"
p5150
(lp5151
I1
asS'tongue'
p5152
(lp5153
I1
asS'physic'
p5154
(lp5155
I2
asS'bankrupt'
p5156
(lp5157
I2
asS"bear'st"
p5158
(lp5159
I1
asS'untrimmed'
p5160
(lp5161
I2
asS'light'
p5162
(lp5163
I1
asS'lame'
p5164
(lp5165
I1
asS'lines'
p5166
(lp5167
I1
asS'chief'
p5168
(lp5169
I1
asS'writ'
p5170
(lp5171
I1
asS'allow'
p5172
(lp5173
I2
asS'pyramids'
p5174
(lp5175
I3
asS'favourites'
p5176
(lp5177
I4
asS'looking'
p5178
(lp5179
I2
asS'counted'
p5180
(lp5181
I2
asS'neglect'
p5182
(lp5183
I2
asS'beauties'
p5184
(lp5185
I2
asS'stamped'
p5186
(lp5187
I1
asS'transfix'
p5188
(lp5189
I2
asS'move'
p5190
(lp5191
I1
asS'widowed'
p5192
(lp5193
I2
asS"o'erlook"
p5194
(lp5195
I3
asS'whilst'
p5196
(lp5197
I1
asS'beguile'
p5198
(lp5199
I2
asS'dearest'
p5200
(lp5201
I2
asS'enclose'
p5202
(lp5203
I2
asS'looks'
p5204
(lp5205
I1
asS'tyrant'
p5206
(lp5207
I2
asS'thyself'
p5208
(lp5209
I2
asS'badges'
p5210
(lp5211
I2
asS'perfect'
p5212
(lp5213
I2
asS'refusest'
p5214
(lp5215
I3
asS'frailties'
p5216
(lp5217
I2
asS'brood'
p5218
(lp5219
I1
asS'whereon'
p5220
(lp5221
I2
asS'unstained'
p5222
(lp5223
I2
asS'decay'
p5224
(lp5225
I2
asS'receivest'
p5226
(lp5227
I3
asS'lo'
p5228
(lp5229
I1
asS'whereof'
p5230
(lp5231
I2
asS'banquet'
p5232
(lp5233
I2
asS'willing'
p5234
(lp5235
I2
asS'choose'
p5236
(lp5237
I1
asS'tickled'
p5238
(lp5239
I2
asS'pure'
p5240
(lp5241
I1
asS'flattery'
p5242
(lp5243
I3
asS'sweets'
p5244
(lp5245
I1
asS'stout'
p5246
(lp5247
I1
asS'hands'
p5248
(lp5249
I1
asS'front'
p5250
(lp5251
I1
asS"owner's"
p5252
(lp5253
I2
asS'kindness'
p5254
(lp5255
I2
asS'affections'
p5256
(lp5257
I3
asS'day'
p5258
(lp5259
I1
asS'damasked'
p5260
(lp5261
I2
asS'strive'
p5262
(lp5263
I1
asS'profound'
p5264
(lp5265
I2
asS'eased'
p5266
(lp5267
I1
asS'feast'
p5268
(lp5269
I1
asS'trimmed'
p5270
(lp5271
I1
asS'slide'
p5272
(lp5273
I1
asS'truth'
p5274
(lp5275
I1
asS'presenteth'
p5276
(lp5277
I3
asS'gazing'
p5278
(lp5279
I2
asS'legions'
p5280
(lp5281
I2
asS'esteem'
p5282
(lp5283
I2
asS'lie'
p5284
(lp5285
I1
asS'pitying'
p5286
(lp5287
I3
asS'debarred'
p5288
(lp5289
I2
asS'doing'
p5290
(lp5291
I2
asS"princes'"
p5292
(lp5293
I2
asS'ills'
p5294
(lp5295
I1
asS'impanelled'
p5296
(lp5297
I3
asS'society'
p5298
(lp5299
I4
asS'decays'
p5300
(lp5301
I2
asS'exceeded'
p5302
(lp5303
I3
asS'our'
p5304
(lp5305
I1
aI2
asS'bay'
p5306
(lp5307
I1
asS'tenth'
p5308
(lp5309
I1
asS'witness'
p5310
(lp5311
I2
asS'might'
p5312
(lp5313
I1
asS'respects'
p5314
(lp5315
I2
asS"children's"
p5316
(lp5317
I2
asS'plods'
p5318
(lp5319
I1
asS'confess'
p5320
(lp5321
I2
asS'sufficed'
p5322
(lp5323
I2
asS'bad'
p5324
(lp5325
I1
asS'wondrous'
p5326
(lp5327
I2
asS'impart'
p5328
(lp5329
I2
asS'cause'
p5330
(lp5331
I1
asS'red'
p5332
(lp5333
I1
asS'perish'
p5334
(lp5335
I2
asS'frank'
p5336
(lp5337
I1
asS'darkly'
p5338
(lp5339
I2
asS'embassy'
p5340
(lp5341
I3
asS'attending'
p5342
(lp5343
I3
asS'tresses'
p5344
(lp5345
I2
asS'shun'
p5346
(lp5347
I1
asS'yore'
p5348
(lp5349
I1
asS'cured'
p5350
(lp5351
I1
asS'her'
p5352
(lp5353
I1
asS'misuse'
p5354
(lp5355
I2
asS'could'
p5356
(lp5357
I1
asS'keep'
p5358
(lp5359
I1
asS'counterpart'
p5360
(lp5361
I3
asS'keen'
p5362
(lp5363
I1
asS'length'
p5364
(lp5365
I1
asS'cures'
p5366
(lp5367
I1
asS'mortal'
p5368
(lp5369
I2
asS'hence'
p5370
(lp5371
I1
asS'ears'
p5372
(lp5373
I1
asS'rudely'
p5374
(lp5375
I2
asS'new-appearing'
p5376
(lp5377
I4
asS'unprovident'
p5378
(lp5379
I4
asS'pitied'
p5380
(lp5381
I2
asS'possessing'
p5382
(lp5383
I3
asS'powerful'
p5384
(lp5385
I3
asS'loveliness'
p5386
(lp5387
I4
asS'feasts'
p5388
(lp5389
I1
asS"learned's"
p5390
(lp5391
I1
asS'watchman'
p5392
(lp5393
I2
asS'quality'
p5394
(lp5395
I3
asS"run'st"
p5396
(lp5397
I1
asS'uneared'
p5398
(lp5399
I2
asS"love'"
p5400
(lp5401
I1
asS'sadly'
p5402
(lp5403
I2
asS'bears'
p5404
(lp5405
I1
asS'unknown'
p5406
(lp5407
I2
asS'vulgar'
p5408
(lp5409
I2
asS'seat'
p5410
(lp5411
I1
asS'comes'
p5412
(lp5413
I1
asS'intelligence'
p5414
(lp5415
I4
asS'prouder'
p5416
(lp5417
I2
asS'travelled'
p5418
(lp5419
I2
asS'badness'
p5420
(lp5421
I2
asS'fairest'
p5422
(lp5423
I2
asS'painful'
p5424
(lp5425
I2
asS'prone'
p5426
(lp5427
I1
asS'sealed'
p5428
(lp5429
I1
asS"were't"
p5430
(lp5431
I2
asS'perforce'
p5432
(lp5433
I2
asS'prefiguring'
p5434
(lp5435
I4
asS'herself'
p5436
(lp5437
I2
asS'commence'
p5438
(lp5439
I2
asS'remember'
p5440
(lp5441
I3
asS'steel'
p5442
(lp5443
I1
asS'loved'
p5444
(lp5445
I1
asS'unlooked'
p5446
(lp5447
I2
asS'bid'
p5448
(lp5449
I1
asS"o'er"
p5450
(lp5451
I2
asS'riches'
p5452
(lp5453
I2
asS'richer'
p5454
(lp5455
I2
asS'bed'
p5456
(lp5457
I1
asS'jollity'
p5458
(lp5459
I3
asS'transgression'
p5460
(lp5461
I3
asS"body's"
p5462
(lp5463
I2
asS'loves'
p5464
(lp5465
I1
asS'bind'
p5466
(lp5467
I1
asS'dumb'
p5468
(lp5469
I1
asS'steep'
p5470
(lp5471
I1
asS'descriptions'
p5472
(lp5473
I3
asS'drunk'
p5474
(lp5475
I1
asS'accusing'
p5476
(lp5477
I3
asS'enforced'
p5478
(lp5479
I2
asS'beggared'
p5480
(lp5481
I2
asS'false'
p5482
(lp5483
I1
asS"forget'st"
p5484
(lp5485
I2
asS'beggar'
p5486
(lp5487
I2
asS'labouring'
p5488
(lp5489
I3
asS'gently'
p5490
(lp5491
I2
asS'refigured'
p5492
(lp5493
I3
asS"lily's"
p5494
(lp5495
I2
asS'prophetic'
p5496
(lp5497
I3
asS'torment'
p5498
(lp5499
I2
asS'have'
p5500
(lp5501
I1
asS're-survey'
p5502
(lp5503
I2
asS'need'
p5504
(lp5505
I1
asS'turn'
p5506
(lp5507
I1
asS'sings'
p5508
(lp5509
I1
asS'bastard'
p5510
(lp5511
I2
asS'bough'
p5512
(lp5513
I1
asS'reeks'
p5514
(lp5515
I1
asS'able'
p5516
(lp5517
I2
asS'gravity'
p5518
(lp5519
I3
asS'adjunct'
p5520
(lp5521
I2
asS'which'
p5522
(lp5523
I1
asS'divert'
p5524
(lp5525
I2
asS'adieu'
p5526
(lp5527
I2
asS'unless'
p5528
(lp5529
I2
asS'centre'
p5530
(lp5531
I2
asS'senses'
p5532
(lp5533
I2
asS'who'
p5534
(lp5535
I1
asS'privilage'
p5536
(lp5537
I3
asS"beds'"
p5538
(lp5539
I1
asS"time's"
p5540
(lp5541
I1
asS'harmful'
p5542
(lp5543
I2
asS'offend'
p5544
(lp5545
I2
asS'but'
p5546
(lp5547
I1
asS'prisoner'
p5548
(lp5549
I2
aI3
asS'expired'
p5550
(lp5551
I2
asS'why'
p5552
(lp5553
I1
asS"husband's"
p5554
(lp5555
I2
asS'statute'
p5556
(lp5557
I2
asS'deny'
p5558
(lp5559
I2
asS'wherewith'
p5560
(lp5561
I3
asS'bred'
p5562
(lp5563
I1
asS'stronger'
p5564
(lp5565
I2
asS'disease'
p5566
(lp5567
I2
asS'brought'
p5568
(lp5569
I1
asS"widow's"
p5570
(lp5571
I2
asS'looked'
p5572
(lp5573
I1
asS'wounded'
p5574
(lp5575
I2
asS'sail'
p5576
(lp5577
I1
asS'painting'
p5578
(lp5579
I2
asS'outlive'
p5580
(lp5581
I2
asS'deface'
p5582
(lp5583
I2
asS'impression'
p5584
(lp5585
I3
asS'slandered'
p5586
(lp5587
I2
asS'wilful'
p5588
(lp5589
I2
asS'couldst'
p5590
(lp5591
I1
asS'burden'
p5592
(lp5593
I2
asS'poesy'
p5594
(lp5595
I3
asS'bring'
p5596
(lp5597
I1
asS"many's"
p5598
(lp5599
I2
asS'fear'
p5600
(lp5601
I1
asS'obsequious'
p5602
(lp5603
I4
asS'pleased'
p5604
(lp5605
I1
asS'spurring'
p5606
(lp5607
I2
asS'envy'
p5608
(lp5609
I2
asS'knowledge'
p5610
(lp5611
I2
asS'chiding'
p5612
(lp5613
I2
asS'philomel'
p5614
(lp5615
I3
asS'mute'
p5616
(lp5617
I1
asS'woo'
p5618
(lp5619
I1
asS'world-without-end'
p5620
(lp5621
I4
asS'should'
p5622
(lp5623
I1
asS"there's"
p5624
(lp5625
I1
asS'preposterously'
p5626
(lp5627
I5
asS'tune'
p5628
(lp5629
I1
asS'marriage'
p5630
(lp5631
I2
asS'inhabit'
p5632
(lp5633
I3
asS'inferior'
p5634
(lp5635
I4
asS'exchanged'
p5636
(lp5637
I2
asS'accessary'
p5638
(lp5639
I4
asS'doubting'
p5640
(lp5641
I2
asS'monuments'
p5642
(lp5643
I3
asS'familiar'
p5644
(lp5645
I3
asS'bear'
p5646
(lp5647
I1
asS'sightless'
p5648
(lp5649
I2
asS'abundance'
p5650
(lp5651
I3
asS'perfection'
p5652
(lp5653
I3
asS'words'
p5654
(lp5655
I1
asS'durst'
p5656
(lp5657
I1
asS'leases'
p5658
(lp5659
I2
asS'chips'
p5660
(lp5661
I1
asS'rite'
p5662
(lp5663
I1
asS'endless'
p5664
(lp5665
I2
asS'heretic'
p5666
(lp5667
I3
asS"stick'st"
p5668
(lp5669
I1
asS'glory'
p5670
(lp5671
I2
asS'course'
p5672
(lp5673
I1
asS'gust'
p5674
(lp5675
I1
asS'married'
p5676
(lp5677
I2
asS'summon'
p5678
(lp5679
I2
asS'she'
p5680
(lp5681
I1
asS'contain'
p5682
(lp5683
I2
asS'fixed'
p5684
(lp5685
I1
asS'deceived'
p5686
(lp5687
I2
asS'strengthened'
p5688
(lp5689
I2
asS'sluttish'
p5690
(lp5691
I2
asS'untrue'
p5692
(lp5693
I2
asS'outbraves'
p5694
(lp5695
I3
asS'farthest'
p5696
(lp5697
I2
asS'prayers'
p5698
(lp5699
I1
aI2
asS'frame'
p5700
(lp5701
I1
asS'shake'
p5702
(lp5703
I1
asS'legacy'
p5704
(lp5705
I3
asS'merits'
p5706
(lp5707
I2
asS'changes'
p5708
(lp5709
I2
asS'enfeebled'
p5710
(lp5711
I3
asS'violet'
p5712
(lp5713
I2
aI3
asS'overturn'
p5714
(lp5715
I3
asS"intermixed'"
p5716
(lp5717
I3
asS'closet'
p5718
(lp5719
I2
asS'placed'
p5720
(lp5721
I1
asS'pattern'
p5722
(lp5723
I2
asS'vows'
p5724
(lp5725
I1
asS'unseeing'
p5726
(lp5727
I2
asS'worship'
p5728
(lp5729
I2
asS'written'
p5730
(lp5731
I2
asS'boughs'
p5732
(lp5733
I1
asS'progress'
p5734
(lp5735
I2
asS'neither'
p5736
(lp5737
I2
asS'besmeared'
p5738
(lp5739
I2
asS'wiry'
p5740
(lp5741
I2
asS'dreading'
p5742
(lp5743
I2
asS'amen'
p5744
(lp5745
I2
asS'dressings'
p5746
(lp5747
I2
asS'joy'
p5748
(lp5749
I1
asS'sorrow'
p5750
(lp5751
I2
asS'beweep'
p5752
(lp5753
I2
asS'never-resting'
p5754
(lp5755
I4
asS'spoil'
p5756
(lp5757
I1
asS'precious'
p5758
(lp5759
I2
asS'weary'
p5760
(lp5761
I2
asS'swift'
p5762
(lp5763
I1
asS'purposed'
p5764
(lp5765
I2
asS'hits'
p5766
(lp5767
I1
asS'weeks'
p5768
(lp5769
I1
asS'instant'
p5770
(lp5771
I2
asS'limits'
p5772
(lp5773
I2
asS'invited'
p5774
(lp5775
I3
asS'thence'
p5776
(lp5777
I1
asS'equal'
p5778
(lp5779
I2
asS'minds'
p5780
(lp5781
I1
asS'assure'
p5782
(lp5783
I2
asS'admit'
p5784
(lp5785
I2
asS'disdaineth'
p5786
(lp5787
I3
asS'figures'
p5788
(lp5789
I2
asS"store's"
p5790
(lp5791
I1
asS'conquered'
p5792
(lp5793
I2
asS'canopy'
p5794
(lp5795
I3
asS'lofty'
p5796
(lp5797
I2
asS'glorious'
p5798
(lp5799
I3
asS'aye'
p5800
(lp5801
I1
asS'comment'
p5802
(lp5803
I2
asS'fester'
p5804
(lp5805
I2
asS'statues'
p5806
(lp5807
I2
asS'bearing'
p5808
(lp5809
I2
asS'walk'
p5810
(lp5811
I1
asS'commend'
p5812
(lp5813
I2
asS'celestial'
p5814
(lp5815
I3
asS'table'
p5816
(lp5817
I2
asS'tyrants'
p5818
(lp5819
I2
asS'renewest'
p5820
(lp5821
I3
asS'second'
p5822
(lp5823
I2
asS'addition'
p5824
(lp5825
I3
asS'wills'
p5826
(lp5827
I1
asS'gaze'
p5828
(lp5829
I1
asS'certain'
p5830
(lp5831
I2
asS'poet'
p5832
(lp5833
I2
asS'waste'
p5834
(lp5835
I1
asS'define'
p5836
(lp5837
I2
asS'tyranny'
p5838
(lp5839
I3
asS'describe'
p5840
(lp5841
I2
asS'inheritors'
p5842
(lp5843
I4
asS'proudest'
p5844
(lp5845
I2
asS"war's"
p5846
(lp5847
I1
asS'painted'
p5848
(lp5849
I2
asS'releasing'
p5850
(lp5851
I3
asS"hear'st"
p5852
(lp5853
I1
asS'lets'
p5854
(lp5855
I1
asS'unmoved'
p5856
(lp5857
I2
asS'general'
p5858
(lp5859
I2
aI3
asS'present'
p5860
(lp5861
I2
asS'debtor'
p5862
(lp5863
I2
asS'novel'
p5864
(lp5865
I2
asS'sourly'
p5866
(lp5867
I2
asS'surety-like'
p5868
(lp5869
I4
asS'wilt'
p5870
(lp5871
I1
asS'slept'
p5872
(lp5873
I1
asS'means'
p5874
(lp5875
I1
asS'harder'
p5876
(lp5877
I2
asS'as'
p5878
(lp5879
I1
asS'three-fold'
p5880
(lp5881
I1
asS'will'
p5882
(lp5883
I1
asS'riper'
p5884
(lp5885
I2
asS'wild'
p5886
(lp5887
I1
asS'at'
p5888
(lp5889
I1
asS'ripe'
p5890
(lp5891
I1
asS'physicians'
p5892
(lp5893
I3
asS'almost'
p5894
(lp5895
I2
asS'up-locked'
p5896
(lp5897
I2
asS'thus'
p5898
(lp5899
I1
asS'lust'
p5900
(lp5901
I1
asS'turns'
p5902
(lp5903
I1
asS'lambs'
p5904
(lp5905
I1
asS'sits'
p5906
(lp5907
I1
asS'greater'
p5908
(lp5909
I2
asS'ransom'
p5910
(lp5911
I2
asS'all-eating'
p5912
(lp5913
I3
asS'perhaps'
p5914
(lp5915
I2
asS'cross'
p5916
(lp5917
I1
asS'largess'
p5918
(lp5919
I2
asS'adverse'
p5920
(lp5921
I2
asS'strange'
p5922
(lp5923
I1
asS'duteous'
p5924
(lp5925
I2
asS'kingly'
p5926
(lp5927
I2
asS'party'
p5928
(lp5929
I2
asS'well-contented'
p5930
(lp5931
I4
asS'blooms'
p5932
(lp5933
I1
asS'slave'
p5934
(lp5935
I1
asS'toil'
p5936
(lp5937
I1
asS'flesh'
p5938
(lp5939
I1
asS'shames'
p5940
(lp5941
I1
asS'drink'
p5942
(lp5943
I1
asS'upon'
p5944
(lp5945
I2
asS'effect'
p5946
(lp5947
I2
asS'outcast'
p5948
(lp5949
I2
asS'beast'
p5950
(lp5951
I1
asS"december's"
p5952
(lp5953
I3
asS'fierce'
p5954
(lp5955
I1
asS'judgment'
p5956
(lp5957
I2
asS'shamed'
p5958
(lp5959
I1
asS'audit'
p5960
(lp5961
I2
asS'scarcely'
p5962
(lp5963
I2
asS'off'
p5964
(lp5965
I1
asS'i'
(lp5966
I1
asS'approve'
p5967
(lp5968
I2
asS'colour'
p5969
(lp5970
I2
asS'well'
p5971
(lp5972
I1
asS'thought'
p5973
(lp5974
I1
asS'amends'
p5975
(lp5976
I2
asS'oft'
p5977
(lp5978
I1
asS'drowns'
p5979
(lp5980
I1
asS'tibey'
p5981
(lp5982
I2
asS'arising'
p5983
(lp5984
I3
asS'twire'
p5985
(lp5986
I2
asS'bending'
p5987
(lp5988
I2
asS'restore'
p5989
(lp5990
I2
asS'feathered'
p5991
(lp5992
I2
asS'stores'
p5993
(lp5994
I1
asS'kiss'
p5995
(lp5996
I1
asS'liker'
p5997
(lp5998
I2
asS'less'
p5999
(lp6000
I1
asS"o'erpressed"
p6001
(lp6002
I3
asS'gulls'
p6003
(lp6004
I1
asS'cries'
p6005
(lp6006
I1
asS'interim'
p6007
(lp6008
I2
aI3
asS'skill'
p6009
(lp6010
I1
asS'thither'
p6011
(lp6012
I2
asS'gentlest'
p6013
(lp6014
I3
asS'now'
p6015
(lp6016
I1
asS'field'
p6017
(lp6018
I1
asS'bell'
p6019
(lp6020
I1
asS'sky'
p6021
(lp6022
I1
asS'fled'
p6023
(lp6024
I1
asS'arrest'
p6025
(lp6026
I2
asS'add'
p6027
(lp6028
I1
asS'book'
p6029
(lp6030
I1
asS'wet'
p6031
(lp6032
I1
asS"infant's"
p6033
(lp6034
I2
asS'raven'
p6035
(lp6036
I2
asS'wooed'
p6037
(lp6038
I1
asS'fate'
p6039
(lp6040
I1
asS'testy'
p6041
(lp6042
I2
asS'devised'
p6043
(lp6044
I2
asS'famine'
p6045
(lp6046
I2
asS"who's"
p6047
(lp6048
I1
asS'crushed'
p6049
(lp6050
I1
asS'smother'
p6051
(lp6052
I2
asS'five'
p6053
(lp6054
I1
asS'know'
p6055
(lp6056
I1
asS'presume'
p6057
(lp6058
I2
asS'press'
p6059
(lp6060
I1
asS'woeful'
p6061
(lp6062
I2
asS'loss'
p6063
(lp6064
I1
asS'necessary'
p6065
(lp6066
I4
asS'like'
p6067
(lp6068
I1
asS'inviting'
p6069
(lp6070
I3
asS'perpetual'
p6071
(lp6072
I4
asS"'had"
p6073
(lp6074
I1
asS'admitted'
p6075
(lp6076
I3
asS'dove'
p6077
(lp6078
I1
asS'heed'
p6079
(lp6080
I1
asS'lose'
p6081
(lp6082
I1
asS'become'
p6083
(lp6084
I2
asS'works'
p6085
(lp6086
I1
asS'indigest'
p6087
(lp6088
I3
asS'lends'
p6089
(lp6090
I1
asS'therein'
p6091
(lp6092
I2
asS'decease'
p6093
(lp6094
I2
asS'warmed'
p6095
(lp6096
I1
asS'because'
p6097
(lp6098
I2
asS'thief'
p6099
(lp6100
I1
asS'authority'
p6101
(lp6102
I4
asS'immortal'
p6103
(lp6104
I3
asS'hush'
p6105
(lp6106
I1
asS'growth'
p6107
(lp6108
I1
asS'home'
p6109
(lp6110
I1
asS'transport'
p6111
(lp6112
I2
asS"heaven's"
p6113
(lp6114
I2
asS'lead'
p6115
(lp6116
I1
asS'broad'
p6117
(lp6118
I1
asS'lean'
p6119
(lp6120
I1
asS'whole'
p6121
(lp6122
I1
asS'leap'
p6123
(lp6124
I1
asS'passion'
p6125
(lp6126
I2
asS'masked'
p6127
(lp6128
I1
asS"o'ertake"
p6129
(lp6130
I3
asS'thinly'
p6131
(lp6132
I2
asS'slight'
p6133
(lp6134
I1
asS"death's"
p6135
(lp6136
I1
asS'how'
p6137
(lp6138
I1
asS'expire'
p6139
(lp6140
I2
asS'although'
p6141
(lp6142
I2
asS'worthy'
p6143
(lp6144
I2
asS'instinct'
p6145
(lp6146
I2
asS'imaginary'
p6147
(lp6148
I5
asS'stay'
p6149
(lp6150
I1
asS"travel's"
p6151
(lp6152
I2
asS'worths'
p6153
(lp6154
I1
asS'hiding'
p6155
(lp6156
I2
asS'about'
p6157
(lp6158
I2
asS"murd'rous"
p6159
(lp6160
I2
asS'rare'
p6161
(lp6162
I1
asS"'scaped"
p6163
(lp6164
I1
asS'linger'
p6165
(lp6166
I2
asS'attainted'
p6167
(lp6168
I3
asS'universe'
p6169
(lp6170
I3
asS'swear'
p6171
(lp6172
I1
asS'gainer'
p6173
(lp6174
I2
asS'hairs'
p6175
(lp6176
I1
asS'tomb'
p6177
(lp6178
I1
asS'beshrew'
p6179
(lp6180
I2
asS'outstripped'
p6181
(lp6182
I2
asS'reckoning'
p6183
(lp6184
I2
aI3
asS'own'
p6185
(lp6186
I1
asS'polished'
p6187
(lp6188
I2
asS'depart'
p6189
(lp6190
I2
asS'owe'
p6191
(lp6192
I1
asS'attaint'
p6193
(lp6194
I2
asS'guard'
p6195
(lp6196
I1
asS'promise'
p6197
(lp6198
I2
asS'treads'
p6199
(lp6200
I1
asS'female'
p6201
(lp6202
I2
asS'lawful'
p6203
(lp6204
I2
asS'quickly'
p6205
(lp6206
I2
asS'forget'
p6207
(lp6208
I2
asS'gazeth'
p6209
(lp6210
I2
asS'suborned'
p6211
(lp6212
I2
asS'victors'
p6213
(lp6214
I2
asS'friends'
p6215
(lp6216
I1
asS'trenches'
p6217
(lp6218
I2
asS'reigned'
p6219
(lp6220
I1
asS'spread'
p6221
(lp6222
I1
asS"grief's"
p6223
(lp6224
I1
asS'function'
p6225
(lp6226
I2
asS'beard'
p6227
(lp6228
I1
asS'buy'
p6229
(lp6230
I1
asS'well-tuned'
p6231
(lp6232
I2
asS'invent'
p6233
(lp6234
I2
asS'brand'
p6235
(lp6236
I1
asS'invocate'
p6237
(lp6238
I3
asS'fountains'
p6239
(lp6240
I2
asS'gait'
p6241
(lp6242
I1
asS'prophecies'
p6243
(lp6244
I3
asS'plague'
p6245
(lp6246
I1
asS'gain'
p6247
(lp6248
I1
asS'delivers'
p6249
(lp6250
I3
asS'ear'
p6251
(lp6252
I1
asS'eat'
p6253
(lp6254
I1
asS'bud'
p6255
(lp6256
I1
asS'he'
p6257
(lp6258
I1
asS'count'
p6259
(lp6260
I1
asS'made'
p6261
(lp6262
I1
asS'wise'
p6263
(lp6264
I1
asS'princes'
p6265
(lp6266
I2
asS'evident'
p6267
(lp6268
I3
asS'whether'
p6269
(lp6270
I2
asS'wish'
p6271
(lp6272
I1
asS'grieve'
p6273
(lp6274
I1
asS'triumphant'
p6275
(lp6276
I3
asS"eyes'"
p6277
(lp6278
I1
asS'record'
p6279
(lp6280
I2
asS'cruel'
p6281
(lp6282
I1
aI2
asS'converted'
p6283
(lp6284
I3
asS'limit'
p6285
(lp6286
I2
asS'monument'
p6287
(lp6288
I3
asS'minutes'
p6289
(lp6290
I2
asS'unfolding'
p6291
(lp6292
I3
asS'rightly'
p6293
(lp6294
I2
asS'deaths'
p6295
(lp6296
I1
asS'devise'
p6297
(lp6298
I2
asS'measure'
p6299
(lp6300
I2
asS'dearth'
p6301
(lp6302
I1
asS'denote'
p6303
(lp6304
I2
asS'consumed'
p6305
(lp6306
I2
asS'goodness'
p6307
(lp6308
I2
asS'ink'
p6309
(lp6310
I1
asS"brav'ry"
p6311
(lp6312
I2
asS'self-killed'
p6313
(lp6314
I2
asS'proceeds'
p6315
(lp6316
I2
asS'endeared'
p6317
(lp6318
I2
asS'nursed'
p6319
(lp6320
I1
asS'mutual'
p6321
(lp6322
I3
asS'compared'
p6323
(lp6324
I2
asS'didst'
p6325
(lp6326
I1
asS'dressed'
p6327
(lp6328
I1
asS'boot'
p6329
(lp6330
I1
asS'forests'
p6331
(lp6332
I2
asS'slumbers'
p6333
(lp6334
I2
asS'other'
p6335
(lp6336
I2
asS'special'
p6337
(lp6338
I2
asS'sick'
p6339
(lp6340
I1
asS'unlettered'
p6341
(lp6342
I3
asS'behold'
p6343
(lp6344
I2
asS'out'
p6345
(lp6346
I1
asS"dial's"
p6347
(lp6348
I1
aI2
asS'trophies'
p6349
(lp6350
I2
asS'thrivers'
p6351
(lp6352
I2
asS'semblance'
p6353
(lp6354
I2
asS'kinds'
p6355
(lp6356
I1
asS'waves'
p6357
(lp6358
I1
asS'oppression'
p6359
(lp6360
I3
asS'variation'
p6361
(lp6362
I4
asS'insults'
p6363
(lp6364
I2
asS'methinks'
p6365
(lp6366
I2
asS'chance'
p6367
(lp6368
I1
asS'longing'
p6369
(lp6370
I2
asS'earthly'
p6371
(lp6372
I2
asS'astronomy'
p6373
(lp6374
I4
asS'veil'
p6375
(lp6376
I1
asS'ghost'
p6377
(lp6378
I1
asS'stirred'
p6379
(lp6380
I1
asS'self-example'
p6381
(lp6382
I4
asS'ranks'
p6383
(lp6384
I1
asS"he's"
p6385
(lp6386
I1
asS'love-kindling'
p6387
(lp6388
I3
asS'jewel'
p6389
(lp6390
I1
aI2
asS'pictured'
p6391
(lp6392
I2
asS'pupil'
p6393
(lp6394
I2
asS"sway'st"
p6395
(lp6396
I1
asS'vassal'
p6397
(lp6398
I2
asS'determination'
p6399
(lp6400
I5
asS'accidents'
p6401
(lp6402
I3
asS'indirectly'
p6403
(lp6404
I4
as.