(lp1
(lp2
S"love'"
p3
aS'lengths'
p4
aS'theirs'
p5
aS'wanting'
p6
aS'cheer'
p7
aS'erred'
p8
aS'thank'
p9
aS'enjoys'
p10
aS'shifts'
p11
aS"y'have"
p12
aa(lp13
S'laws'
p14
aS'suns'
p15
aS'staineth'
p16
aS'swears'
p17
aS'ranged'
p18
aS'faint'
p19
ag12
aS'bird'
p20
aS'latch'
p21
aS'scorned'
p22
aa(lp23
g16
ag15
aS'shapes'
p24
aS'feature'
p25
aS'dove'
p26
aS'sealed'
p27
ag7
aS'misuse'
p28
ag3
aS'dregs'
p29
aa(lp30
S'eyed'
p31
aS'stores'
p32
aS'crave'
p33
aS'tendered'
p34
aS"feel'st"
p35
aS'warm'
p36
aS"'greeing"
p37
aS'gust'
p38
ag7
aS'spites'
p39
aa(lp40
S"'scaped"
p41
aS'drained'
p42
ag7
aS'doubt'
p43
aS'lip'
p44
aS'drowns'
p45
ag28
ag20
ag21
aS'sums'
p46
aa(lp47
S'breasts'
p48
aS'snow'
p49
aS'dun'
p50
ag10
ag11
ag31
ag35
ag36
aS'carve'
p51
aS"lour'st"
p52
aa(lp53
S'wane'
p54
aS'share'
p55
ag27
aS"'will"
p56
ag14
aS'strife'
p57
ag46
ag10
ag11
aS'writes'
p58
aa(lp59
g36
ag35
aS'pearl'
p60
aS'sheds'
p61
ag22
aS'slay'
p62
ag15
ag16
aS'viewest'
p63
aS'mars'
p64
aa(lp65
g61
ag60
aS'whole'
p66
ag45
ag50
ag48
ag49
ag39
aS'sort'
p67
ag57
aa(lp68
g4
aS'shamed'
p69
ag35
ag36
aS'owes'
p70
ag34
ag8
ag22
ag62
ag43
aa(lp71
g43
aS'granting'
p72
ag54
aS'wires'
p73
aS'hairs'
p74
ag7
ag25
ag24
ag26
aS'wills'
p75
aa(lp76
g44
aS'hounds'
p77
aS'sought'
p78
aS'sigh'
p79
ag21
ag20
ag12
ag42
ag56
ag58
aa(lp80
g34
ag63
aS'breach'
p81
aS"oaths'"
p82
ag51
ag39
ag4
ag73
ag74
ag56
aa(lp83
g66
ag31
aS'sword'
p84
aS"war's"
p85
ag64
ag4
ag14
aS'dearly'
p86
ag19
ag3
aa(lp87
S'breathes'
p88
aS'mouths'
p89
ag44
ag72
ag8
ag25
ag26
ag24
ag42
aS'foe'
p90
aa(lp91
g73
ag74
aS'voice'
p92
ag49
ag48
ag50
ag18
ag61
ag60
ag17
aa(lp93
g42
ag56
ag29
ag67
ag44
ag24
ag25
ag26
ag27
ag7
aa(lp94
g7
ag77
ag3
ag22
ag42
ag51
ag54
ag10
ag11
ag34
aa(lp95
g8
aS'room'
p96
aS'nights'
p97
ag51
aS'thanks'
p98
ag82
ag81
ag4
ag9
ag70
aa(lp99
g90
ag51
ag36
ag35
ag42
aS'grieved'
p100
ag86
ag69
ag92
ag37
aa(lp101
g33
ag46
ag7
ag90
ag58
ag12
aS'food'
p102
ag27
ag54
ag22
aa(lp103
g33
ag77
aS'yea'
p104
ag98
aS'lap'
p105
ag29
ag50
ag49
ag48
ag102
aa(lp106
S"'now"
p107
ag57
ag7
ag55
ag21
ag20
ag15
ag16
aS"sea's"
p108
aS'gems'
p109
aa(lp110
g37
ag38
aS'feed'
p111
ag22
ag108
ag109
aS'pray'
p112
ag45
aS'rolling'
p113
ag92
aa(lp114
S'woes'
p115
ag109
ag108
ag21
ag20
aS'dreams'
p116
ag19
ag96
ag32
ag4
aa(lp117
g43
ag63
ag96
ag105
ag4
ag73
ag74
ag84
ag64
ag85
aa(lp118
g86
ag26
ag24
ag25
ag104
ag58
ag44
ag32
ag66
ag17
aa(lp119
g33
ag54
ag12
ag6
ag4
ag41
ag77
ag67
aS'run'
p120
ag27
aa(lp121
g108
ag109
ag8
ag52
ag98
ag115
ag21
ag20
ag116
aS'fitted'
p122
aa(lp123
g107
ag8
ag41
ag115
ag57
ag49
ag50
ag48
ag73
ag74
aa.