(lp1
(lp2
I1295
aI2409
aI121
aI621
aI1067
aI2092
aI1159
aI2129
aa(lp3
I2276
aI1155
aI621
aI1635
aI242
aI937
aI1178
aa(lp4
I270
aI608
aI1235
aI3132
aI3101
aI1119
aI2321
aa(lp5
I1554
aI576
aI2929
aI985
aI368
aI1663
aI1178
aa(lp6
I2514
aI780
aI608
aI2311
aI2547
aI1735
aI536
aI3079
aa(lp7
I362
aI1505
aI553
aI461
aI2302
aI183
aI2810
aI2129
aI578
aa(lp8
I2401
aI675
aI157
aI586
aI1178
aI3134
aI157
aI1686
aI2290
aa(lp9
I1119
aI45
aI2308
aI188
aI2561
aI1162
aa(lp10
I228
aI576
aI2852
aI1178
aI137
aI342
aI608
aI2092
aI2129
aa(lp11
I1268
aI2689
aI1505
aI2902
aI541
aI621
aI748
aI1600
aa(lp12
I2096
aI394
aI2404
aI1119
aI1505
aI2025
aI1822
aI2129
aI1023
aa(lp13
I1591
aI106
aI608
aI2544
aI2312
aI1505
aI440
aa(lp14
I907
aI1999
aI608
aI1549
aI1456
aI2411
aI688
aa(lp15
I1025
aI3017
aI1999
aI2141
aI608
aI1999
aI608
aI1505
aI2129
aa(lp16
I1559
aI2297
aI1635
aI228
aI1600
aI490
aI1418
aI3079
aI224
aa(lp17
I871
aI2129
aI2273
aI2991
aI952
aI1680
aa(lp18
I624
aI980
aI1438
aI1066
aI1176
aI224
aa(lp19
I137
aI1505
aI1858
aI576
aI1829
aI2791
aI1020
aI1798
aa(lp20
I988
aI1176
aI188
aI1549
aI2984
aI780
aa(lp21
I737
aI570
aI1680
aI2326
aI792
aI1069
aI570
aI1069
aa(lp22
I2092
aI2129
aI1169
aI2400
aI1176
aI1999
aI608
aI169
aI1666
aa(lp23
I228
aI2761
aI169
aI1666
aI1119
aI1505
aI1666
aI578
aa(lp24
I1717
aI2054
aI2129
aI578
aI429
aI2122
aI2691
aI1680
aI224
aa(lp25
I3083
aI576
aI1088
aI228
aI2491
aa(lp26
I962
aI2892
aI1549
aI1037
aI2415
aI2516
aI1418
aI2790
aa(lp27
I2642
aI621
aI2516
aI2031
aI3133
aI2404
aI862
aI3044
aa(lp28
I2098
aI3146
aI1067
aI2973
aI747
aI1156
aI621
aa(lp29
I735
aI317
aI2178
aI1178
aI1222
aI2727
aI2561
aI2516
aa(lp30
I317
aI1635
aI1275
aI2141
aI853
aI235
aI3079
aI1342
aa(lp31
I2716
aI3164
aI2308
aI245
aI576
aI245
aI1546
aa(lp32
I619
aI739
aI1178
aI553
aI1178
aI2501
aI1205
aa(lp33
I2484
aI429
aI1202
aI2431
aI235
aI235
aI576
aI1610
aI2783
aa(lp34
I2233
aI555
aI1458
aI621
aI576
aI1723
aI1569
aI1680
aI2178
aa(lp35
I570
aI1301
aI1458
aI621
aI1039
aI688
aI1120
aI2561
aI2790
aI1387
aa(lp36
I1013
aI1569
aI1458
aI621
aI576
aI4
aI2929
aI780
aI2790
aa(lp37
I570
aI1488
aI1023
aI306
aI621
aI2012
aI607
aI1178
aa(lp38
I361
aI157
aI909
aI1007
aI2994
aI1159
aI2998
aI608
aI909
aI708
aa(lp39
I920
aI2762
aI1169
aI159
aI2197
aI2297
aI11
aI2290
aa(lp40
I1966
aI1178
aI557
aI569
aI718
aI608
aI2950
aI2297
aa(lp41
I932
aI2293
aI1947
aI2955
aI1999
aI608
aI1635
aI1515
aa(lp42
I1953
aI688
aI3135
aI1066
aI4
aI490
aI2157
aI1359
aI2480
aa(lp43
I2680
aI2294
aI1791
aI1178
aI2330
aI1381
aa(lp44
I1735
aI228
aI654
aI2852
aI1373
aI467
aI2852
aI2157
aI2178
aa(lp45
I712
aI1150
aI576
aI2054
aI2129
aI667
aI577
aI2776
aa(lp46
I586
aI2332
aI2994
aI429
aI188
aI608
aI1505
aI224
aa(lp47
I2421
aI144
aI1591
aI1505
aI2020
aI621
aI1323
aI2129
aI1159
aa(lp48
I1304
aI2522
aI429
aI2604
aI1178
aI2635
aI1892
aa(lp49
I1016
aI2482
aI2096
aI233
aI2950
aI1531
aI2950
aI869
aI1178
aa(lp50
I2625
aI1635
aI1653
aI1882
aI1798
aI461
aI1023
aI2939
aI2783
aa(lp51
I2426
aI1845
aI903
aI576
aI1000
aI2776
aa(lp52
I2642
aI231
aI1505
aI173
aI1248
aI621
aI507
aa(lp53
I1038
aI282
aI3078
aI1505
aI1553
aI2032
aI1178
aa(lp54
I1043
aI2994
aI2820
aI157
aI1156
aI1119
aI2516
aI2790
aa(lp55
I2092
aI2709
aI1451
aI2994
aI225
aI576
aI1539
aI2367
aI1178
aa(lp56
I2115
aI1945
aI2290
aI188
aI1178
aI2651
aI2950
aa(lp57
I2171
aI203
aI2129
aI1953
aI1635
aI1999
aI608
aI2516
aI578
aa(lp58
I3182
aI3059
aI2544
aI1505
aI2489
aI621
aI224
aa(lp59
I2283
aI157
aI218
aI1975
aI576
aI424
aI2013
aI1588
aI3001
aa(lp60
I2625
aI1549
aI2323
aI1591
aI627
aI1274
aa(lp61
I671
aI2357
aI1635
aI1975
aI1505
aI2642
aI1528
aI909
aI1635
aa(lp62
I2319
aI545
aI1159
aI545
aI1505
aI2596
aI621
aI2826
aI1023
aa(lp63
I1574
aI3197
aI157
aI1515
aI2528
aI2786
aI2544
aI2776
aa(lp64
I461
aI2102
aI1069
aI27
aI1833
aI576
aI2881
aa(lp65
I487
aI1505
aI1156
aI576
aI1999
aI1528
aI940
aI1588
aI586
aI967
aa(lp66
I2404
aI2720
aI1549
aI527
aI799
aI157
aI2826
aI1023
aa(lp67
I3098
aI1169
aI2651
aI2057
aI1505
aI487
aI675
aI3044
aI1399
aI2297
aa(lp68
I1553
aI629
aI1798
aI1831
aI2297
aI149
aI758
aI1528
aI1178
aa(lp69
I1644
aI673
aI1569
aI1505
aI2490
aI1332
aI1178
aa(lp70
I220
aI1066
aI2290
aI1415
aI282
aI608
aI2790
aa(lp71
I1741
aI2129
aI461
aI1159
aI1505
aI2527
aI3051
aI1069
aa(lp72
I1806
aI2561
aI576
aI1115
aI2129
aI508
aI2122
aI2290
aI1069
aa(lp73
I2556
aI2129
aI1591
aI1635
aI2596
aI282
aI576
aI1418
aa(lp74
I1374
aI461
aI946
aI157
aI1701
aI608
aI1549
aI1066
aI221
aI708
aa(lp75
I1574
aI673
aI1119
aI1549
aI1533
aI2596
aI792
aI2389
aI1069
aa(lp76
I2599
aI429
aI1303
aI1036
aI608
aI576
aI2078
aa(lp77
I487
aI639
aI1635
aI2874
aI780
aI688
aa(lp78
I295
aI1127
aI2129
aI1172
aI1642
aI1798
aI688
aI1178
aa(lp79
I91
aI1509
aI228
aI217
aI2852
aI2950
aI490
aI998
aa(lp80
I571
aI228
aI1505
aI145
aI2924
aI2308
aI1178
aa(lp81
I2017
aI2217
aI157
aI1635
aI1118
aI235
aI641
aI2308
aa(lp82
I997
aI1264
aI2790
aI920
aI576
aI758
aI145
aI2480
aI708
aa(lp83
I461
aI2950
aI569
aI920
aI157
aI145
aI1963
aI224
aI1178
aa(lp84
I1241
aI1023
aI1066
aI385
aI553
aI342
aI1196
aI2950
aa(lp85
I560
aI3068
aI576
aI2854
aI1021
aI2039
aI1359
aI2950
aa(lp86
I132
aI1023
aI2617
aI1505
aI2297
aI920
aI124
aI708
aa(lp87
I2952
aI228
aI688
aI2790
aI1999
aI157
aI688
aI1066
aI2994
aI2950
aa(lp88
I2005
aI1023
aI2692
aI2952
aI2994
aI2776
aI973
aI608
aI3150
aa(lp89
I506
aI741
aI2516
aI2529
aI2689
aI1691
aI1663
aI2950
aa(lp90
I1872
aI621
aI224
aI2297
aI2615
aI157
aI2480
aI708
aa(lp91
I2073
aI1153
aI157
aI1505
aI646
aI2748
aI1178
aa(lp92
I1121
aI688
aI2178
aI1178
aI920
aI688
aI2462
aI2783
aa(lp93
I2468
aI1735
aI4
aI1735
aI1159
aI3098
aI1159
aI1169
aI1735
aa(lp94
I1935
aI2765
aI1156
aI688
aI1156
aI1875
aI1850
aI1680
aI2096
aI1067
aa(lp95
I145
aI688
aI1119
aI1178
aI2237
aI608
aI482
aI2765
aI1156
aI362
aa(lp96
I1685
aI621
aI1005
aI2073
aI157
aI1635
aI2025
aI2098
aa(lp97
I228
aI1501
aI3056
aI1537
aI1635
aI700
aI1635
aI2161
aa(lp98
I733
aI688
aI2532
aI485
aI2726
aI621
aa(lp99
I1192
aI2412
aI243
aI1350
aI1798
aI189
aa(lp100
I1106
aI53
aI903
aI1505
aI3171
aI621
aI2516
aI569
aa(lp101
I1570
aI3133
aI2776
aI688
aI256
aI1421
aI621
aI1610
aI1178
aa(lp102
I2216
aI157
aI1429
aI1159
aI3179
aI21
aI998
aa(lp103
I1426
aI461
aI1549
aI2342
aI145
aI1501
aI400
aa(lp104
I945
aI2537
aI157
aI1501
aI1607
aI529
aI1178
aa(lp105
I1707
aI2141
aI608
aI1505
aI3082
aI145
aI1237
aI1635
aa(lp106
I2283
aI3084
aI864
aI157
aI1159
aI653
aa(lp107
I2855
aI2608
aI157
aI1635
aI661
aI608
aI18
aa(lp108
I671
aI214
aI576
aI672
aI3195
aI1798
aI3044
aI2776
aa(lp109
I75
aI786
aI675
aI2689
aI1178
aI2061
aI671
aI1256
aI2495
aa(lp110
I1241
aI2092
aI2129
aI2078
aI2105
aI1635
aI2642
aI621
aI127
aI2994
aa(lp111
I1657
aI621
aI1432
aI429
aI866
aI1418
aI1964
aI2078
aI3017
aI1178
aa(lp112
I671
aI2075
aI621
aI2994
aI676
aI1023
aa(lp113
I60
aI621
aI1628
aI2129
aI1066
aI3003
aI1539
aI1632
aI1418
aa(lp114
I797
aI2958
aI1999
aI157
aI605
aI1364
aI576
aI638
aa(lp115
I2878
aI157
aI224
aI1178
aI228
aI1501
aI1125
aI2994
aI706
aa(lp116
I3002
aI2642
aI1505
aI230
aI2955
aI2295
aI621
aI1635
aI3044
aa(lp117
I184
aI3068
aI2955
aI1087
aI2769
aI412
aI2378
aI2516
aa(lp118
I1742
aI2080
aI2955
aI3141
aI2994
aI967
aI224
aa(lp119
I2739
aI127
aI2111
aI1635
aI2111
aI2516
aI3009
aI1178
aa(lp120
I1940
aI1905
aI1505
aI2542
aI1187
aI621
aa(lp121
I218
aI1217
aI1066
aI578
aI2950
aI1384
aI75
aI2994
aI2776
aa(lp122
I940
aI555
aI920
aI1191
aI1274
aI393
aI621
aI2092
aI2129
aa(lp123
I1559
aI1890
aI157
aI1505
aI995
aI621
aI1549
aI672
aa(lp124
I936
aI868
aI228
aI1635
aI145
aI1505
aI2972
aI2720
aI1610
aI2783
aa(lp125
I907
aI1119
aI569
aI1067
aI1316
aI1505
aI2155
aI1159
aa(lp126
I2998
aI945
aI2544
aI2790
aI145
aI1656
aI224
aI708
aa(lp127
I2404
aI968
aI2544
aI1549
aI579
aI134
aI6
aI157
aI2007
aa(lp128
I665
aI644
aI920
aI2561
aI2544
aI1169
aI659
aI642
aI1798
aa(lp129
I1060
aI219
aI1505
aI3192
aI576
aI2251
aI1635
aa(lp130
I2309
aI868
aI1731
aI2219
aI235
aI1685
aI157
aI1023
aI60
aa(lp131
I1374
aI157
aI1501
aI574
aI3142
aI1610
aI1549
aa(lp132
I362
aI1757
aI235
aI2790
aI737
aI3133
aI202
aI2668
aI2790
aa(lp133
I1067
aI145
aI2516
aI2078
aI3074
aI4
aI2511
aI1317
aI621
aa(lp134
I136
aI157
aI1635
aI2591
aI936
aI572
aI608
aI967
aI1069
aa(lp135
I3042
aI621
aI1039
aI2765
aI2994
aI638
aI1584
aI2129
aI385
aa(lp136
I1412
aI491
aI2790
aI3055
aI2888
aI879
aI591
aa(lp137
I2968
aI2844
aI1706
aI621
aI298
aI1159
aI2078
aI1635
aa(lp138
I979
aI576
aI2813
aI2994
aI505
aI1993
aI608
aI1635
aI688
aa(lp139
I2255
aI608
aI569
aI2975
aI2971
aI608
aa(lp140
I2733
aI1108
aI3109
aI1798
aI1999
aI157
aI1621
aI1178
aa(lp141
I11
aI1178
aI920
aI157
aI576
aI569
aI738
aI719
aI2709
aa(lp142
I228
aI1045
aI10
aI1066
aI1007
aI2994
aa(lp143
I572
aI228
aI429
aI2826
aI2112
aI366
aI157
aI3004
aa(lp144
I145
aI903
aI2640
aI1693
aI1549
aI2129
aI1069
aa(lp145
I1072
aI608
aI2516
aI903
aI1159
aI1204
aI2129
aI2780
aa(lp146
I730
aI1069
aI1590
aI2595
aI1066
aI1567
aI2994
aI224
aI1023
aa(lp147
I936
aI95
aI2709
aI555
aI661
aI2544
aI1159
aI2611
aa(lp148
I2673
aI1567
aI851
aI608
aI576
aI2994
aI1159
aa(lp149
I940
aI3138
aI608
aI1610
aI1505
aI1961
aI1798
aI2308
aI1178
aa(lp150
I27
aI576
aI1735
aI169
aI1666
aI134
aI2666
aI621
aI2129
aI2297
aa(lp151
I3123
aI2045
aI2776
aI1760
aI675
aI1359
aI1169
aa(lp152
I276
aI2813
aI2078
aI2480
aI228
aI1501
aI1600
aI1159
aI3133
aI1178
aa(lp153
I1012
aI1134
aI2805
aI1635
aI1773
aI282
aa(lp154
I932
aI2129
aI203
aI2764
aI1798
aI1680
aI1840
aI708
aa(lp155
I871
aI2141
aI654
aI435
aI966
aI608
aI1066
aI570
aI1176
aa(lp156
I920
aI1505
aI605
aI1549
aI1591
aI621
aI906
aI1635
aa(lp157
I1025
aI555
aI1683
aI1023
aI605
aI1178
aI1591
aI2776
aa(lp158
I3061
aI2762
aI1468
aI608
aI1906
aI429
aI2994
aa(lp159
I2132
aI157
aI1610
aI228
aI455
aI2129
aI3081
aa(lp160
I136
aI2633
aI1798
aI569
aI570
aI1739
aI920
aI638
aI1178
aa(lp161
I1734
aI1750
aI2954
aI1169
aI190
aI2633
aI2838
aI1635
aa(lp162
I1848
aI2719
aI157
aI2580
aI2129
aI638
aI2790
aI145
aI1575
aa(lp163
I1975
aI1348
aI608
aI1178
aI188
aI608
aI2333
aI1178
aa(lp164
I1533
aI60
aI948
aI2720
aI576
aI228
aI3069
aI2783
aa(lp165
I2651
aI2199
aI1798
aI230
aI1635
aI1029
aI2092
aI2129
aI1274
aa(lp166
I3128
aI946
aI157
aI569
aI3042
aI157
aI228
aI3051
aI2994
aI578
aa(lp167
I3042
aI1159
aI1876
aI4
aI349
aI157
aI2689
aI698
aI1178
aa(lp168
I535
aI2124
aI3051
aI2994
aI1178
aI3025
aI245
aI2049
aI2124
aa(lp169
I2968
aI2544
aI145
aI1501
aI191
aI933
aI157
aI688
aI2124
aI1178
aa(lp170
I3135
aI1523
aI2297
aI1156
aI362
aI1189
aI2994
aI119
aI3079
aa(lp171
I2642
aI1088
aI621
aI576
aI228
aI1501
aI1096
aI2308
aa(lp172
I1806
aI1957
aI461
aI608
aI671
aI680
aI576
aI1418
aa(lp173
I3182
aI555
aI1156
aI2608
aI1501
aI5
aI1877
aI1822
aa(lp174
I2998
aI1066
aI1567
aI2994
aI1159
aI145
aI1450
aI2998
aI1564
aI2790
aa(lp175
I1559
aI2092
aI2129
aI1418
aI1273
aI1505
aI2201
aI263
aI3072
aI1635
aa(lp176
I217
aI905
aI1178
aI412
aI1505
aI536
aI1023
aI1159
aI2790
aa(lp177
I1940
aI157
aI1549
aI435
aI2786
aI2584
aI144
aI2994
aa(lp178
I120
aI2297
aI2209
aI1602
aI766
aa(lp179
I228
aI2516
aI1643
aI2259
aI2893
aI1359
aI2308
aa(lp180
I278
aI1578
aI748
aI1313
aI1067
aI2790
aI60
aI2783
aa(lp181
I145
aI1635
aI570
aI918
aI1895
aI461
aI608
aI1505
aa(lp182
I2083
aI569
aI1249
aI2544
aI249
aI1635
aa(lp183
I973
aI621
aI1635
aI2316
aI1610
aI605
aI1505
aI2258
aI1798
aa(lp184
I1977
aI569
aI2452
aI2720
aI2308
aI1178
aa(lp185
I1961
aI1786
aI682
aI621
aI1178
aI2712
aI1002
aI2027
aI621
aa(lp186
I920
aI157
aI1515
aI804
aI608
aI2308
aI1467
aI1023
aa(lp187
I145
aI1549
aI1039
aI1636
aI2092
aI472
aI1999
aI608
aa(lp188
I2607
aI2273
aI605
aI157
aI1169
aI456
aI1066
aI2129
aI688
aa(lp189
I228
aI1549
aI233
aI1178
aI225
aI1549
aI1039
aI1567
aI2994
aI1178
aa(lp190
I378
aI1196
aI576
aI1278
aI146
aI1066
aI2994
aI2765
aI228
aa(lp191
I2092
aI2129
aI1929
aI2994
aI385
aI1066
aI2092
aI2129
aI1274
aI653
aa(lp192
I2073
aI157
aI1505
aI1058
aI2762
aI621
aI2321
aa(lp193
I1961
aI1178
aI1313
aI1129
aI2129
aI1809
aI2955
aI1508
aI2516
aa(lp194
I84
aI145
aI1702
aI2994
aI429
aI1591
aI1159
aI507
aa(lp195
I2398
aI3101
aI362
aI1505
aI2820
aI621
aI2321
aa(lp196
I2506
aI1999
aI157
aI507
aI599
aI157
aI2544
aI1178
aa(lp197
I1961
aI608
aI1501
aI2140
aI3109
aI621
aI3105
aI1635
aa(lp198
I1501
aI2078
aI986
aI1265
aI2843
aI923
aI621
aa(lp199
I63
aI2561
aI1056
aI449
aI1193
aI2028
aI1159
aa(lp200
I1541
aI1798
aI1549
aI1699
aI3133
aI3009
aI2776
aa(lp201
I249
aI2561
aI1635
aI2818
aI1169
aI145
aI1635
aI1775
aI1735
aa(lp202
I2181
aI2692
aI664
aI157
aI1549
aI1941
aI792
aI967
aI224
aa(lp203
I3135
aI1417
aI920
aI1229
aI1505
aI664
aI124
aa(lp204
I2451
aI1149
aI2561
aI576
aI2979
aI2351
aI792
aI1616
aI2290
aa(lp205
I2094
aI157
aI1745
aI2290
aI2960
aI920
aI688
aI920
aI2790
aa(lp206
I378
aI157
aI2950
aI1588
aI201
aI1159
aI1591
aI621
aI569
aI1023
aa(lp207
I63
aI555
aI957
aI621
aI2776
aI335
aI621
aI2950
aI1515
aa(lp208
I2420
aI2896
aI39
aI2278
aI586
aI1635
aa(lp209
I25
aI1868
aI2561
aI2917
aI75
aI2308
aa(lp210
I1086
aI621
aI1505
aI1689
aI1178
aI2276
aI621
aI1505
aI526
aa(lp211
I1237
aI188
aI1528
aI1505
aI661
aI555
aI235
aI621
aa(lp212
I890
aI555
aI1150
aI1528
aI2950
aI3025
aI621
aa(lp213
I3038
aI486
aI2237
aI1523
aI35
aI576
aI1588
aI1178
aa(lp214
I1237
aI2720
aI569
aI937
aI956
aI2720
aI688
aI2790
aa(lp215
I220
aI460
aI1178
aI1433
aI940
aI233
aa(lp216
I1023
aI1066
aI429
aI1586
aI2141
aI2522
aI1635
aI869
aa(lp217
I3135
aI753
aI17
aI2098
aI3152
aI2141
aI2720
aI1505
aa(lp218
I1708
aI2187
aI1178
aI2122
aI1621
aa(lp219
I147
aI2049
aI1039
aI2290
aI2547
aI1528
aI276
aI2181
aI1588
aI2290
aa(lp220
I3083
aI1610
aI1505
aI1156
aI621
aI576
aI60
aa(lp221
I1751
aI410
aI621
aI1635
aI2668
aI1458
aI2544
aI495
aI1159
aa(lp222
I2297
aI614
aI621
aI3044
aI3014
aI1187
aI2544
aI2480
aa(lp223
I75
aI892
aI1729
aI1274
aI1805
aI621
aI2972
aI2776
aa(lp224
I2096
aI233
aI1418
aI1159
aI1808
aI621
aI1635
aI822
aI1313
aa(lp225
I2855
aI621
aI2297
aI1007
aI1492
aI1735
aI920
aI1505
aI1378
aa(lp226
I2998
aI315
aI157
aI1549
aI2332
aI2994
aI1460
aI1069
aa(lp227
I564
aI2110
aI1528
aI1515
aI2297
aI1007
aI1588
aI1274
aa(lp228
I721
aI1505
aI1125
aI1178
aI3182
aI2978
aI1187
aI1798
aI3044
aI2790
aa(lp229
I1359
aI586
aI1588
aI739
aI3079
aI2098
aI1588
aI1274
aI653
aa(lp230
I1706
aI1023
aI569
aI49
aI1528
aI1658
aI1588
aI1274
aI2297
aa(lp231
I1591
aI1528
aI2784
aI1007
aI1999
aI1528
aI1588
aI1159
aa(lp232
I2203
aI555
aI570
aI1588
aI1635
aI2952
aI1588
aI1680
aI1635
aa(lp233
I1253
aI1339
aI1505
aI1
aI1635
aI1999
aI1528
aa(lp234
I1189
aI2691
aI1458
aI675
aI621
aI1680
aI2096
aI1845
aI2994
aI1159
aa(lp235
I2862
aI1528
aI1505
aI1288
aI2497
aI2544
aI1635
aa(lp236
I233
aI219
aI3139
aI1515
aI1793
aI2098
aI486
aI3139
aa(lp237
I1385
aI621
aI2297
aI1934
aI3139
aI1515
aa(lp238
I1975
aI1501
aI2091
aI1015
aI621
aI2606
aI555
aI1591
aa(lp239
I1374
aI780
aI576
aI489
aI621
aI1740
aI1178
aa(lp240
I2651
aI1886
aI1505
aI2372
aI621
aI1501
aI1499
aa(lp241
I2213
aI1635
aI2478
aI2561
aI688
aI2790
aI2022
aI2017
aI1178
aa(lp242
I2487
aI1023
aI1066
aI569
aI536
aI385
aI920
aI608
aI792
aI708
aa(lp243
I52
aI1725
aI362
aI201
aI1159
aI920
aI157
aI569
aI570
aa(lp244
I2493
aI1421
aI157
aI555
aI1159
aI920
aI758
aI3101
aI362
aa(lp245
I933
aI608
aI688
aI77
aI3116
aI621
aI2279
aI1635
aa(lp246
I1032
aI1999
aI157
aI145
aI1101
aI137
aI157
aI1418
aI2790
aa(lp247
I1931
aI1608
aI1549
aI1783
aI1178
aI61
aa(lp248
I1451
aI2994
aI1978
aI1106
aI1724
aI3101
aI362
aa(lp249
I2447
aI1176
aI1486
aI1023
aI1999
aa(lp250
I213
aI1067
aI2994
aI429
aI1591
aI1798
aI2709
aI688
aa(lp251
I1487
aI3145
aI1112
aI2439
aI507
aa(lp252
I943
aI2516
aI2243
aI83
aI2290
aI3133
aI1159
aa(lp253
I545
aI2356
aI157
aI385
aI188
aI946
aI2141
aI157
aa(lp254
I2878
aI1505
aI1144
aI2709
aI2194
aI2765
aI2994
aI1418
aa(lp255
I2625
aI1635
aI934
aI1999
aI570
aI2878
aI1515
aa(lp256
I2422
aI1635
aI2960
aI145
aI255
aI4
aI2056
aa(lp257
I472
aI920
aI157
aI1204
aI1178
aI1313
aI2952
aI1591
aI1159
aa(lp258
I202
aI1274
aI1625
aI1660
aI708
aa(lp259
I2072
aI2212
aI378
aI2786
aI2516
aI3195
aI467
aI2786
aI2290
aa(lp260
I748
aI1862
aI2893
aI2561
aI142
aI967
aI599
aI1706
aI1680
aI1515
aa(lp261
I2502
aI967
aI188
aI1505
aI1326
aI2561
aI2783
aI1515
aa(lp262
I2346
aI2308
aI1290
aI3135
aI2092
aI1178
aa(lp263
I3015
aI1747
aI1337
aI1174
aI1178
aa(lp264
I1790
aI2861
aI2651
aI3023
aI1178
aa(lp265
I506
aI62
aI2684
aI1850
aI762
aI1178
aa(lp266
I569
aI2592
aI490
aI1067
aI940
aI3133
aI2826
aI2793
aa(lp267
I1077
aI1525
aI1822
aI1928
aI1635
aI1794
aI1505
aI2755
aa(lp268
I2561
aI2790
aI1067
aI320
aI792
aI4
aI2852
aI688
aa(lp269
I2065
aI2561
aI2983
aI2173
aI1316
aI1505
aI1226
aI1178
aa(lp270
I2194
aI2098
aI1701
aI673
aI131
aI1359
aI2078
aI576
aa(lp271
I758
aI1178
aI1999
aI570
aI1295
aI1610
aI1411
aa(lp272
I1206
aI1080
aI1505
aI1415
aI792
aI969
aa(lp273
I75
aI188
aI2561
aI991
aI1635
aI675
aI792
aI140
aa(lp274
I361
aI608
aI1505
aI188
aI621
aI1056
aI2178
aI233
aa(lp275
I1834
aI608
aI2308
aI3154
aI233
aI685
aI576
aI1159
aI1178
aa(lp276
I1966
aI1176
aI1156
aI2720
aI3081
aI605
aI2720
aI989
aI224
aa(lp277
I1861
aI1505
aI802
aI313
aI621
aI3024
aI1593
aI461
aI608
aI1635
aa(lp278
I296
aI2428
aI1505
aI2314
aI621
aI2308
aI1950
aI1704
aI2129
aa(lp279
I1413
aI1417
aI2465
aI1515
aI2375
aI1066
aI1467
aa(lp280
I2547
aI608
aI1023
aI2297
aI1265
aI2547
aI608
aI2544
aI638
aa(lp281
I1933
aI10
aI2819
aI1278
aI800
aI1635
aa(lp282
I1440
aI2544
aI2983
aI2178
aI1588
aI1189
aI2994
aI578
aI708
aa(lp283
I2300
aI1549
aI1567
aI2571
aI2967
aI2994
aI1418
aa(lp284
I690
aI1072
aI1590
aI157
aI2950
aI536
aI1023
aI1066
aI429
aa(lp285
I2625
aI545
aI157
aI1549
aI60
aI920
aI1528
aI2480
aI2790
aa(lp286
I2544
aI576
aI2756
aI369
aI1007
aI920
aI758
aI1528
aI3004
aI708
aa(lp287
I2858
aI145
aI1505
aI2997
aI526
aI920
aI688
aI1588
aI1159
aa(lp288
I569
aI2472
aI157
aI1274
aI1191
aI2297
aI1072
aI157
aa(lp289
I1588
aI1069
aI145
aI1069
aI572
aI1635
aI1735
aI792
aI940
aI1178
aa(lp290
I2168
aI2709
aI1505
aI1785
aI621
aI2196
aI2129
aI145
aI576
aa(lp291
I2212
aI555
aI1975
aI2561
aI1505
aI391
aI621
aI1501
aI1159
aa(lp292
I3080
aI144
aI570
aI2623
aI1500
aI621
aI2950
aa(lp293
I2308
aI37
aI737
aI570
aI2776
aI1159
aI1549
aI396
aa(lp294
I545
aI1505
aI2554
aI621
aI3045
aI2790
aI1704
aI2129
aI224
aI1023
aa(lp295
I680
aI1417
aI2472
aI157
aI1617
aI1505
aI942
aI621
aa(lp296
I1487
aI1466
aI1798
aI1505
aI2320
aI341
aI621
aa(lp297
I2299
aI2297
aI1635
aI228
aI1505
aI1909
aI326
aa(lp298
I2283
aI1528
aI1501
aI2024
aI1549
aI1696
aI1610
aI783
aa(lp299
I2178
aI1798
aI688
aI2230
aI2391
aI2308
aI1178
aI2308
aI1178
aa(lp300
I600
aI792
aI425
aI1515
aI2704
aa(lp301
I333
aI2297
aI1588
aI2516
aI144
aI1515
aI644
aI569
aI1680
aI653
aa(lp302
I1588
aI1505
aI997
aI1870
aI2994
aI920
aI2141
aI3038
aI708
aa(lp303
I1185
aI157
aI1039
aI2098
aI920
aI1178
aI1588
aI1178
aa(lp304
I75
aI2840
aI675
aI1637
aI569
aI467
aI157
aI1610
aI1023
aa(lp305
I363
aI309
aI569
aI1680
aI1578
aI2331
aa(lp306
I2853
aI1265
aI943
aI608
aI1680
aI2178
aa(lp307
I2049
aI394
aI2129
aI1178
aI187
aI2929
aI1364
aI1635
aI713
aa(lp308
I2848
aI608
aI2516
aI2287
aI3163
aI69
aI1359
aa(lp309
I361
aI608
aI1505
aI2288
aI75
aI1798
aI1204
aI1635
aa(lp310
I1366
aI2994
aI2776
aI1159
aI1505
aI1226
aI2013
aI2297
aI638
aa(lp311
I228
aI1505
aI681
aI1178
aI1119
aI569
aI2371
aI13
aa(lp312
I1828
aI621
aI426
aI2790
aI3017
aI2129
aI3053
aI655
aI576
aa(lp313
I2297
aI44
aI46
aI2141
aI608
aI1549
aI1338
aI1178
aa(lp314
I860
aI1159
aI987
aI3133
aI1178
aI956
aI228
aI3055
aI3133
aa(lp315
I936
aI3133
aI555
aI188
aI2907
aI608
aI2516
aa(lp316
I2384
aI967
aI3133
aI2223
aI608
aI576
aI570
aI1876
aI1178
aa(lp317
I940
aI555
aI228
aI576
aI1680
aI2790
aI228
aI1635
aI2547
aI792
aa(lp318
I2808
aI1278
aI145
aI142
aI2952
aI1815
aI1974
aI1528
aa(lp319
I2545
aI555
aI1568
aI2734
aI1528
aI2983
aI3133
aI2611
aa(lp320
I1336
aI2146
aI1798
aI1567
aI2994
aI402
aI1417
aI1515
aa(lp321
I25
aI2369
aI1505
aI1178
aI1597
aI1027
aI1505
aI3133
aa(lp322
I1440
aI2762
aI157
aI2297
aI2290
aI3148
aI1528
aa(lp323
I38
aI2290
aI295
aI638
aI1066
aI1156
aI2776
aa(lp324
I690
aI2290
aI1417
aI1528
aI2297
aI1635
aI1983
aI1178
aa(lp325
I680
aI2098
aI1458
aI2544
aI1505
aI1864
aI621
aI1610
aI1418
aa(lp326
I3032
aI2765
aI233
aI1418
aI638
aI920
aI1023
aI429
aI1178
aa(lp327
I1481
aI967
aI238
aI416
aI1493
aI1680
aa(lp328
I1900
aI1264
aI1172
aI461
aI1264
aI2129
aa(lp329
I349
aI251
aI608
aI2308
aI2840
aI2948
aI758
aI576
aa(lp330
I1556
aI868
aI1588
aI2582
aI157
aI688
aI1024
aI2544
aa(lp331
I2748
aI1417
aI3138
aI157
aI2013
aI2297
aI2290
aI2776
aa(lp332
I2823
aI1417
aI188
aI1066
aI960
aI2994
aI688
aa(lp333
I2590
aI1798
aI2813
aI1178
aI545
aI936
aI119
aI2482
aI1418
aa(lp334
I2598
aI569
aI1588
aI576
aI1680
aI417
aI2790
aI2078
aI2480
aa(lp335
I2027
aI1023
aI3135
aI490
aI1680
aI170
aI969
aI1066
aa(lp336
I2508
aI2561
aI1379
aI2290
aI2693
aI1798
aI2709
aI1178
aa(lp337
I1274
aI35
aI1894
aI1828
aI2561
aI969
aa(lp338
I758
aI1262
aI1023
aI1262
aI1189
aI2994
aI847
aI1588
aI314
aa(lp339
I1735
aI2562
aI3024
aI2547
aI1505
aI2013
aI621
aI1635
aI1178
aa(lp340
I1588
aI1635
aI920
aI13
aI2998
aI157
aI576
aI569
aI1159
aI2790
aa(lp341
I218
aI313
aI2561
aI2575
aI1260
aI1313
aI2840
aI385
aa(lp342
I3189
aI2837
aI1674
aI1159
aI1069
aI3133
aa(lp343
I2721
aI1549
aI2078
aI3011
aI2986
aI2776
aa(lp344
I912
aI1265
aI1024
aI157
aI1505
aI3113
aI2950
aa(lp345
I2899
aI2516
aI885
aI1196
aI1505
aI3173
aI1066
aI737
aI2994
aa(lp346
I2117
aI1066
aI224
aI27
aI3101
aI608
aI1810
aI2129
aI1999
aI608
aa(lp347
I286
aI2172
aI570
aI1810
aI2129
aI2157
aI1635
aI145
aI1515
aa(lp348
I968
aI257
aI2983
aI667
aI2487
aI608
aI1023
aa(lp349
I969
aI2256
aI219
aI1501
aI1578
aI3066
aI2569
aa(lp350
I326
aI3096
aI1798
aI2297
aI2952
aI2544
aI2308
aI2994
aI1178
aa(lp351
I228
aI1501
aI605
aI945
aI157
aI1610
aI2044
aI688
aa(lp352
I429
aI2994
aI1999
aI157
aI1635
aI1159
aI2239
aI621
aa(lp353
I145
aI880
aI1406
aI228
aI2657
aa(lp354
I3098
aI157
aI576
aI1178
aI19
aI608
aI2516
aI760
aI2297
aa(lp355
I327
aI2290
aI1735
aI792
aI1072
aI649
aI2141
aI608
aa(lp356
I193
aI570
aI429
aI2826
aI1362
aI536
aI326
aI2994
aI3004
aa(lp357
I127
aI2288
aI675
aI2664
aI1505
aI706
aI1178
aa(lp358
I2126
aI145
aI871
aI1066
aI429
aI145
aI871
aI2947
aI2129
aI578
aa(lp359
I419
aI2720
aI1935
aI2765
aI332
aI1544
aI3025
aI1418
aa(lp360
I1563
aI2994
aI2290
aI1023
aI1313
aI2000
aI621
aI576
aI2790
aa(lp361
I1845
aI1279
aI1505
aI1651
aI1645
aI621
aI1127
aI2955
aa(lp362
I145
aI1635
aI659
aI2559
aI1169
aI219
aI569
aI920
aI608
aa(lp363
I709
aI2263
aI1169
aI2722
aI931
aI1169
aI2741
aa(lp364
I2297
aI1736
aI1178
aI323
aI1169
aI600
aI1735
aI1505
aa(lp365
I912
aI2994
aI25
aI1161
aI1610
aI1505
aI228
aI2411
aI1178
aa(lp366
I361
aI3059
aI1549
aI145
aI845
aI1066
aI2273
aI2129
aa(lp367
I2212
aI555
aI195
aI608
aI1501
aI545
aI157
aI1159
aI1892
aa(lp368
I2049
aI2994
aI429
aI1249
aI739
aI1798
aI1680
aI708
aa(lp369
I869
aI1635
aI739
aI920
aI608
aI2765
aI1635
aI739
aa(lp370
I264
aI868
aI2277
aI608
aI576
aI1657
aI2790
aa(lp371
I327
aI77
aI2826
aI920
aI2141
aI786
aI608
aI576
aI1159
aa(lp372
I2297
aI3060
aI1786
aI608
aI1515
aI605
aI608
aI2926
aa(lp373
I127
aI610
aI2790
aI2899
aI2017
aI2826
aI2615
aI608
aa(lp374
I2141
aI1415
aI621
aI1635
aI569
aI1593
aI1438
aI621
aa(lp375
I869
aI1178
aI940
aI937
aI570
aI1999
aI570
aI1635
aI385
aa(lp376
I2549
aI2535
aI1909
aI1549
aI1593
aI1159
aI578
aI2790
aa(lp377
I656
aI2561
aI2859
aI1397
aI1455
aI621
aa(lp378
I274
aI640
aI1359
aI2765
aI8
aI1798
aI1680
aI708
aa(lp379
I228
aI2668
aI2474
aI1136
aI2720
aI688
aI2776
aa(lp380
I1432
aI35
aI2029
aI555
aI3114
aI780
aI1274
aa(lp381
I2096
aI967
aI1156
aI1159
aI461
aI1635
aI1875
aI585
aI1610
aI1178
aa(lp382
I2060
aI1510
aI113
aI621
aI1845
aI2962
aI1316
aI3079
aa(lp383
I2337
aI2615
aI2561
aI2691
aI3133
aI2568
aI1798
aI3044
aI578
aa(lp384
I472
aI3069
aI2129
aI2580
aI1679
aI1316
aI3079
aa(lp385
I2878
aI608
aI1610
aI1505
aI374
aI621
aI2514
aI203
aI2129
aI578
aa(lp386
I145
aI1635
aI2423
aI1899
aI839
aI2544
aI638
aa(lp387
I1398
aI768
aI1178
aI1078
aI1505
aI2832
aI2790
aa(lp388
I228
aI1501
aI2160
aI2081
aI2561
aI1178
aI1415
aI688
aa(lp389
I2823
aI2098
aI1040
aI1645
aI621
aI472
aI2129
aI1178
aa(lp390
I1151
aI2749
aI621
aI2955
aI1288
aI2994
aI868
aI1069
aa(lp391
I1436
aI621
aI576
aI540
aI1568
aI621
aI2547
aI1069
aa(lp392
I600
aI1505
aI1389
aI2790
aI2141
aI2790
aI1176
aI233
aa(lp393
I1359
aI1610
aI1505
aI2874
aI1588
aI1588
aI189
aI482
aa(lp394
I2492
aI786
aI2141
aI946
aI157
aI134
aI94
aI2394
aa(lp395
I1533
aI1749
aI2397
aI1196
aI2765
aI1591
aI578
aa(lp396
I2625
aI1635
aI2154
aI1798
aI2297
aI1196
aI578
aa(lp397
I955
aI730
aI1743
aI2786
aI586
aI1178
aa(lp398
I2748
aI2297
aI2129
aI2947
aI2547
aI792
aI1778
aI3133
aI2325
aa(lp399
I228
aI576
aI725
aI764
aI1023
aI1024
aI1066
aI1745
aa(lp400
I2590
aI2052
aI1798
aI2805
aI536
aI2078
aI586
aI1635
aa(lp401
I2297
aI1635
aI638
aI1985
aI1505
aI847
aI2297
aI1635
aI1178
aa(lp402
I1067
aI1907
aI2057
aI569
aI1415
aI621
aI1159
aI1066
aa(lp403
I671
aI621
aI3064
aI868
aI1087
aI2175
aI2689
aI1418
aI1169
aa(lp404
I2771
aI35
aI2488
aI123
aI405
aI1159
aI2790
aa(lp405
I600
aI682
aI2720
aI3051
aI2086
aI579
aI2635
aI1178
aa(lp406
I426
aI1635
aI143
aI224
aI778
aI1066
aI570
aI1176
aa(lp407
I2997
aI737
aI218
aI1159
aI468
aI621
aI1004
aI1635
aa(lp408
I2877
aI632
aI157
aI1672
aI3025
aI792
aI1635
aI688
aa(lp409
I127
aI1635
aI1592
aI1528
aI1178
aI46
aI1528
aI1505
aI1169
aa(lp410
I599
aI387
aI1798
aI3044
aI188
aI555
aI638
aI1564
aa(lp411
I865
aI2181
aI792
aI1178
aI977
aI2561
aI2516
aI455
aa(lp412
I1511
aI555
aI1039
aI3183
aI2776
aI358
aI2141
aI1528
aI1023
aa(lp413
I281
aI2297
aI1007
aI1725
aI362
aI1178
aI1117
aI4
aa(lp414
I1185
aI157
aI1610
aI569
aI758
aI1178
aI1966
aI461
aa(lp415
I2840
aI3025
aI1635
aI830
aI758
aI1178
aI1966
aI461
aa(lp416
I363
aI1670
aI157
aI569
aI909
aI2544
aI576
aI1178
aa(lp417
I1142
aI944
aI28
aI2776
aI235
aI576
aI2629
aI532
aa(lp418
I3126
aI2790
aI2098
aI842
aI2720
aI1610
aI1023
aa(lp419
I2731
aI1588
aI1610
aI1591
aI2664
aI2544
aI1505
aa(lp420
I1156
aI696
aI1549
aI2790
aI790
aI233
aI688
aI1178
aa(lp421
I2484
aI1635
aI27
aI1528
aI1542
aI3015
aI1066
aI644
aI233
aa(lp422
I1591
aI2292
aI2013
aI2544
aI1505
aI2550
aI621
aI1549
aI1067
aa(lp423
I1344
aI145
aI1635
aI2122
aI1178
aI2409
aI2615
aI920
aI157
aa(lp424
I2440
aI1590
aI2544
aI576
aI940
aI1664
aI2078
aI1505
aI419
aI1892
aa(lp425
I2271
aI1857
aI1178
aI2351
aI2739
aI3085
aI3133
aI2182
aa(lp426
I1360
aI2409
aI946
aI576
aI920
aI282
aI1159
aI1023
aa(lp427
I2404
aI1505
aI1734
aI1178
aI2988
aI621
aI1066
aI1878
aa(lp428
I1120
aI2312
aI2261
aI1635
aI1154
aI1069
aa(lp429
I3054
aI2561
aI2912
aI688
aI1931
aI2495
aI2790
aa(lp430
I2710
aI490
aI157
aI576
aI385
aI1963
aI83
aa(lp431
I1794
aI1505
aI2910
aI1610
aI2392
aI1159
aI2621
aI1610
aa(lp432
I919
aI2297
aI2828
aI1023
aI2691
aI570
aI1159
aa(lp433
I1850
aI1505
aI1686
aI608
aI1610
aI2017
aI688
aI871
aI1635
aa(lp434
I1013
aI792
aI2765
aI2290
aI1680
aI2765
aI1935
aI569
aI1610
aI1067
aa(lp435
I2226
aI2952
aI1735
aI83
aI2994
aI9
aI362
aa(lp436
I349
aI2221
aI1569
aI2449
aI1635
aI2494
aI2347
aI1501
aa(lp437
I1457
aI1567
aI2994
aI2157
aI1635
aI920
aI576
aI267
aI1798
aa(lp438
I2982
aI2952
aI2994
aI884
aI2630
aI1798
aI3044
aI2611
aa(lp439
I2535
aI1706
aI157
aI1621
aI2034
aI1505
aI303
aa(lp440
I1125
aI328
aI2952
aI2994
aI1159
aI343
aI792
aa(lp441
I1182
aI1100
aI1635
aI458
aI1970
aI1069
aa(lp442
I1110
aI1610
aI1443
aI2994
aI1589
aI2645
aI1023
aI576
aa(lp443
I979
aI1784
aI157
aI1159
aI930
aI655
aI1505
aa(lp444
I2098
aI1874
aI1221
aI1635
aI1178
aI982
aI1635
aa(lp445
I30
aI429
aI2994
aI2603
aI157
aI1549
aI3079
aI1342
aa(lp446
I2283
aI2109
aI1515
aI194
aI621
aI2096
aI570
aI578
aI688
aa(lp447
I1789
aI2417
aI1515
aI893
aI2141
aI2013
aI621
aa(lp448
I671
aI1515
aI2642
aI621
aI2099
aI621
aI1515
aI1995
aI621
aa(lp449
I178
aI1528
aI1635
aI225
aI2269
aI570
aI2717
aI1515
aI2456
aI621
aa(lp450
I816
aI157
aI576
aI2053
aI1262
aI1127
aI621
aI1262
aI708
aa(lp451
I1278
aI570
aI2004
aI1852
aI2013
aI361
aI2487
aI157
aI1178
aa(lp452
I312
aI569
aI2849
aI2561
aI1549
aI1680
aI1739
aI2997
aI1725
aI362
aa(lp453
I2244
aI621
aI1532
aI555
aI1223
aI2561
aI1635
aI1178
aa(lp454
I2931
aI2786
aI1505
aI878
aI2793
aI1164
aa(lp455
I467
aI1588
aI920
aI2994
aI2437
aI1189
aI224
aI1066
aI2994
aI1845
aa(lp456
I538
aI2739
aI2927
aI737
aI2994
aI1418
aa(lp457
I1421
aI621
aI1505
aI2835
aI1636
aI621
aI310
aa(lp458
I2526
aI1178
aI2281
aI2162
aI385
aI1372
aI2786
aI1066
aI946
aa(lp459
I1313
aI2074
aI2574
aI2044
aI2561
aI2321
aa(lp460
I1640
aI1178
aI1701
aI1687
aI2561
aI1549
aI1066
aI2123
aI920
aa(lp461
I1751
aI1505
aI2229
aI621
aI1635
aI60
aI2668
aI570
aI298
aI2790
aa(lp462
I724
aI390
aI1178
aI2413
aI157
aI2124
aI3171
aa(lp463
I2222
aI2376
aI2494
aI626
aI1501
aI1178
aa(lp464
I1449
aI1528
aI1505
aI867
aI621
aI2321
aI145
aI2813
aa(lp465
I11
aI1629
aI1528
aI576
aI145
aI2955
aI1066
aI34
aI2790
aa(lp466
I1971
aI1662
aI920
aI576
aI1053
aI2960
aa(lp467
I278
aI1309
aI1635
aI1967
aI1066
aI1176
aI1159
aI2659
aI621
aa(lp468
I2878
aI2343
aI1798
aI1650
aI1635
aI665
aI1178
aa(lp469
I2688
aI2297
aI506
aI2308
aI119
aI3157
aI1505
aI313
aI2776
aa(lp470
I758
aI2049
aI2994
aI1067
aI506
aI1505
aI1465
aI708
aa(lp471
I219
aI3135
aI1039
aI289
aI2308
aI569
aI219
aI1159
aa(lp472
I770
aI1997
aI569
aI570
aI1418
aI920
aI1285
aI1178
aa(lp473
I2633
aI180
aI1706
aI1735
aI1127
aI2955
aI1169
aI2197
aI593
aa(lp474
I2299
aI2765
aI1845
aI2111
aI1505
aI671
aI2664
aI1159
aI708
aa(lp475
I2894
aI2888
aI758
aI1883
aI3079
aI979
aI759
aI157
aa(lp476
I1719
aI224
aI145
aI1635
aI1588
aI2950
aI1588
aI1635
aI1818
aI1178
aa(lp477
I2588
aI590
aI2803
aI2776
aI2236
aI612
aI621
aa(lp478
I867
aI1159
aI233
aI1178
aI1567
aI2994
aI1159
aI1567
aI2994
aI792
aa(lp479
I3101
aI2720
aI1278
aI2009
aI1557
aI157
aI2955
aa(lp480
I2354
aI2297
aI2522
aI233
aI385
aI2179
aI2297
aI1007
aI2994
aa(lp481
I1089
aI2297
aI1066
aI144
aI1834
aI157
aI605
aI313
aI2720
aI2308
aa(lp482
I142
aI536
aI1023
aI1066
aI2691
aI840
aI1590
aI1159
aa(lp483
I478
aI1635
aI920
aI682
aI608
aI1214
aI2994
aI2767
aI1069
aa(lp484
I694
aI2994
aI737
aI145
aI2516
aI225
aI936
aI1635
aI124
aa(lp485
I1735
aI228
aI2174
aI1159
aI2242
aI1359
aI524
aI1635
aa(lp486
I1396
aI2124
aI2994
aI228
aI1178
aI2047
aI608
aa(lp487
I1668
aI621
aI1069
aI1636
aI621
aI2955
aI459
aI1066
aa(lp488
I2212
aI555
aI2096
aI486
aI1680
aI1178
aI1064
aI608
aI688
aa(lp489
I200
aI836
aI608
aI2308
aI2057
aI1515
aI1735
aI3135
aa(lp490
I2846
aI1159
aI1053
aI1066
aI2382
aI570
aa(lp491
I1701
aI679
aI1505
aI2842
aI1501
aI3053
aI2776
aa(lp492
I105
aI1605
aI2022
aI907
aI1610
aI2790
aa(lp493
I1990
aI1549
aI2010
aI1069
aI751
aI1549
aI593
aI1069
aI570
aI1159
aa(lp494
I973
aI608
aI576
aI2816
aI2297
aI145
aI2480
aI792
aa(lp495
I284
aI2790
aI1590
aI1649
aI157
aI2129
aI1204
aI1178
aa(lp496
I2092
aI792
aI1739
aI1491
aI1549
aI1513
aI1066
aI569
aI2776
aa(lp497
I228
aI688
aI145
aI937
aI1830
aI3164
aI2790
aa(lp498
I1256
aI3028
aI2098
aI1156
aI1865
aI157
aI124
aa(lp499
I369
aI1200
aI233
aI1178
aI1594
aI1023
aI1156
aI2689
aa(lp500
I1615
aI188
aI792
aI461
aI681
aI1066
aI2783
aI2709
aI2955
aa(lp501
I3107
aI2756
aI1798
aI1549
aI2277
aI2335
aa(lp502
I2878
aI2720
aI909
aI119
aI233
aI2632
aI1023
aI2297
aI1635
aa(lp503
I1047
aI1998
aI1359
aI1549
aI1370
aI1178
aa(lp504
I3125
aI2762
aI1549
aI2918
aI67
aI608
aI2157
aI2739
aa(lp505
I2281
aI1088
aI1169
aI1492
aI1735
aI941
aI680
aI969
aa(lp506
I1023
aI2527
aI576
aI1178
aI88
aI576
aI1011
aa(lp507
I2486
aI2765
aI1635
aI2258
aI576
aI1178
aI2411
aI644
aa(lp508
I2111
aI1645
aI1798
aI1334
aI1178
aI2494
aI576
aI422
aI1798
aa(lp509
I1812
aI1798
aI1296
aI418
aI2887
aI1798
aI218
aa(lp510
I3038
aI2994
aI2997
aI638
aI526
aI2689
aI752
aI1635
aI920
aI2994
aa(lp511
I377
aI2431
aI1735
aI180
aI1798
aI4
aI123
aI1159
aa(lp512
I2421
aI502
aI1798
aI2467
aI83
aI2994
aI2200
aI2994
aa(lp513
I1244
aI621
aI1501
aI2654
aI19
aI2852
aI1418
aI291
aI157
aa(lp514
I2578
aI2994
aI2756
aI1066
aI569
aI1159
aI1211
aI2297
aI1635
aI1178
aa(lp515
I786
aI608
aI1501
aI1435
aI2790
aI513
aI1350
aI1798
aa(lp516
I2838
aI3172
aI429
aI375
aI1080
aI1501
aI235
aa(lp517
I1120
aI1580
aI157
aI576
aI2725
aI569
aI1256
aI608
aa(lp518
I786
aI608
aI1943
aI1156
aI285
aI1729
aI1359
aI2950
aa(lp519
I973
aI608
aI448
aI2997
aI2950
aI224
aI570
aI2480
aI708
aa(lp520
I1964
aI228
aI555
aI285
aI1892
aI145
aI688
aI858
aI1635
aa(lp521
I1961
aI35
aI576
aI3044
aI500
aI608
aI2336
aI1178
aa(lp522
I141
aI689
aI2735
aI608
aI576
aI973
aI157
aI650
aa(lp523
I413
aI973
aI1590
aI157
aI2480
aI973
aI6
aI157
aI224
aI2790
aa(lp524
I3105
aI2561
aI2297
aI973
aI157
aI2480
aI145
aI201
aI2504
aa(lp525
I96
aI157
aI576
aI2183
aI2514
aI224
aI1066
aI2273
aI2129
aa(lp526
I1204
aI2947
aI2129
aI188
aI608
aI1505
aI743
aI621
aa(lp527
I2514
aI1635
aI1610
aI276
aI1520
aI1159
aI321
aI2129
aa(lp528
I933
aI157
aI688
aI2943
aI2408
aI349
aI1798
aI297
aI1178
aa(lp529
I2587
aI1247
aI157
aI1822
aI3051
aI2994
aI2078
aI1023
aa(lp530
I1039
aI598
aI509
aI638
aI905
aI1610
aI2099
aI621
aa(lp531
I1953
aI2561
aI1635
aI849
aI851
aI576
aI1178
aa(lp532
I2952
aI608
aI1635
aI3024
aI2952
aI576
aI424
aI1417
aI2129
aI1023
aa(lp533
I1735
aI2952
aI263
aI608
aI586
aI1635
aI362
aI1505
aI2952
aI235
aa(lp534
I1243
aI1672
aI145
aI2480
aI1930
aI621
aI576
aI224
aa(lp535
I2297
aI144
aI235
aI2994
aI2542
aI2906
aI608
aI576
aI385
aa(lp536
I142
aI228
aI2105
aI570
aI1023
aI145
aI142
aI2017
aI688
aa(lp537
I228
aI1635
aI2141
aI2562
aI1798
aI145
aI2017
aI1159
aa(lp538
I117
aI592
aI1798
aI1159
aI1125
aI973
aI157
aI2826
aI2793
aa(lp539
I1120
aI2086
aI121
aI1171
aI621
aI1739
aI973
aI157
aI2776
aa(lp540
I1066
aI569
aI2544
aI1189
aI2544
aI816
aI1156
aI362
aI1515
aa(lp541
I786
aI1798
aI36
aI1023
aI2983
aI2651
aI461
aI1911
aI1635
aa(lp542
I164
aI569
aI2852
aI1066
aI2852
aI877
aI882
aI2790
aa(lp543
I675
aI1567
aI2994
aI1159
aI2994
aI1066
aI1189
aI882
aI1178
aa(lp544
I524
aI1926
aI576
aI569
aI462
aI467
aI946
aI708
aa(lp545
I78
aI1035
aI2765
aI1635
aI1066
aI2746
aI920
aI576
aI2404
aI1178
aa(lp546
I1739
aI2997
aI920
aI157
aI1564
aI228
aI1745
aI145
aI2480
aa(lp547
I687
aI362
aI533
aI2765
aI2615
aI2530
aI2689
aa(lp548
I501
aI157
aI1875
aI2852
aI786
aI157
aI2516
aI124
aI1178
aa(lp549
I2239
aI2720
aI1454
aI1845
aI2340
aI233
aI1159
aa(lp550
I1011
aI1016
aI2826
aI2994
aI710
aI2826
aI2994
aI578
aI688
aa(lp551
I228
aI1505
aI506
aI526
aI1845
aI1325
aI157
aI576
aI1178
aa(lp552
I2674
aI1023
aI579
aI569
aI1458
aI1690
aI2544
aI1067
aa(lp553
I2297
aI40
aI2699
aI1011
aI2308
aI1946
aI1011
aa(lp554
I967
aI2782
aI3037
aI157
aI1069
aI2772
aI3037
aI157
aI2790
aa(lp555
I228
aI1030
aI2516
aI973
aI2272
aI235
aI2483
aa(lp556
I1017
aI1798
aI1505
aI1867
aI621
aI2011
aI97
aI2783
aa(lp557
I2297
aI1635
aI1203
aI3199
aI1178
aI2978
aI1786
aI1226
aI608
aa(lp558
I1359
aI794
aI2129
aI2950
aI228
aI920
aI2994
aI3109
aI570
aI2297
aa(lp559
I228
aI1618
aI362
aI2950
aI2824
aI1156
aI1119
aI2157
aa(lp560
I593
aI570
aI1418
aI1159
aI973
aI608
aI576
aI500
aI913
aa(lp561
I2297
aI2703
aI1635
aI1581
aI1007
aI500
aI608
aa(lp562
I228
aI2516
aI2137
aI2776
aI1159
aI189
aI2129
aI269
aI1023
aa(lp563
I1296
aI1982
aI228
aI2198
aI2529
aI608
aI2994
aI2611
aa(lp564
I145
aI1635
aI748
aI2768
aI2832
aI608
aI554
aI2129
aI578
aI2790
aa(lp565
I1966
aI2297
aI145
aI3008
aI1961
aI342
aI621
aI2279
aI1178
aa(lp566
I2062
aI1184
aI2297
aI1180
aI157
aI1159
aI3139
aI1178
aa(lp567
I127
aI1135
aI1066
aI638
aI1007
aI2994
aI895
aa(lp568
I349
aI245
aI1635
aI2124
aI145
aI2516
aI2124
aI1417
aI2790
aa(lp569
I1824
aI1080
aI576
aI1180
aI235
aI685
aI2994
aa(lp570
I1013
aI1569
aI1549
aI683
aI2852
aI2267
aI432
aa(lp571
I2642
aI2762
aI2950
aI570
aI1090
aI1159
aa(lp572
I2062
aI1798
aI3044
aI2783
aI671
aI1624
aI555
aa(lp573
I472
aI2215
aI569
aI1824
aI1635
aI1657
aI2516
aa(lp574
I3042
aI975
aI608
aI2983
aI2129
aI940
aI963
aI224
aa(lp575
I1953
aI608
aI383
aI1635
aI897
aI1159
aI2480
aI1178
aa(lp576
I1341
aI1505
aI1701
aI1956
aI576
aI1476
aI488
aI2763
aa(lp577
I1735
aI792
aI424
aI2297
aI1411
aI1008
aI2297
aI2321
aa(lp578
I1110
aI1668
aI569
aI1711
aI1067
aI1567
aI2994
aI622
aI1668
aa(lp579
I43
aI10
aI1549
aI1355
aI1178
aa(lp580
I2098
aI1161
aI1011
aI2950
aI2206
aI157
aI1178
aI605
aI157
aa(lp581
I2468
aI2610
aI2651
aI621
aI2516
aI1409
aI2955
aa(lp582
I758
aI2297
aI1725
aI946
aI967
aI3079
aI708
aI570
aI967
aI3079
aa(lp583
I1254
aI1549
aI1178
aI575
aI1549
aI516
aI1023
aI569
aI1159
aa(lp584
I2855
aI157
aI103
aI2994
aI385
aI224
aI2410
aI792
aa(lp585
I1361
aI1657
aI998
aI1066
aI357
aI1999
aI570
aI1685
aI621
aa(lp586
I1707
aI1999
aI157
aI576
aI2994
aI429
aI1239
aI1680
aa(lp587
I2038
aI1635
aI1917
aI608
aI1226
aI1023
aI569
aI1159
aa(lp588
I1986
aI608
aI2296
aI555
aI467
aI157
aI1610
aI1418
aa(lp589
I1156
aI1119
aI1505
aI1117
aI621
aI2308
aI1754
aa(lp590
I1735
aI228
aI920
aI145
aI586
aI1635
aI3079
aI228
aI255
aI2783
aa(lp591
I11
aI1505
aI2677
aI626
aI2096
aI1178
aI752
aI2994
aI1735
aI621
aa(lp592
I2778
aI429
aI2482
aI1680
aI920
aI2994
aI385
aI708
aa(lp593
I2878
aI157
aI2778
aI1066
aI2054
aI2129
aI2482
aI1549
aa(lp594
I228
aI2668
aI2139
aI555
aI1072
aI608
aI2955
aI1524
aI2790
aa(lp595
I25
aI2544
aI1505
aI1226
aI42
aI3142
aI2561
aI2950
aa(lp596
I2297
aI1635
aI855
aI1590
aI608
aI1114
aI569
aI3133
aa(lp597
I249
aI608
aI2308
aI1653
aI2110
aI608
aI576
aI1511
aI1635
aa(lp598
I2640
aI1568
aI608
aI1505
aI408
aI1568
aI1001
aI2765
aI2994
aI688
aa(lp599
I395
aI608
aI2651
aI608
aI920
aI608
aI1505
aI408
aa(lp600
I756
aI1635
aI1156
aI654
aI228
aI483
aI1635
aI1178
aa(lp601
I2096
aI233
aI1118
aI621
aI507
aI2578
aI225
aI3135
aI1515
aa(lp602
I1988
aI3122
aI946
aI1725
aI1865
aI157
aI2955
aI2790
aa(lp603
I2073
aI157
aI1427
aI119
aI1778
aI1768
aI688
aI911
aI621
aa(lp604
I2128
aI715
aI1505
aI1815
aI621
aI924
aI3173
aI2994
aa(lp605
I1942
aI1521
aI1187
aI1798
aI2362
aI3016
aI1178
aa(lp606
I2308
aI2997
aI863
aI1798
aI576
aI1695
aI2852
aI3122
aI2544
aa(lp607
I3046
aI751
aI333
aI2168
aI946
aI2516
aI2776
aa(lp608
I2071
aI2343
aI1178
aI715
aI1798
aI968
aa(lp609
I2576
aI1865
aI157
aI2994
aI2790
aI29
aI487
aI688
aa.