(dp1
S'fawn'
p2
(lp3
S'VBN'
p4
asS'pardon'
p5
(lp6
S'VB'
p7
asS'yellow'
p8
(lp9
S'JJ'
p10
ag7
asS'four'
p11
(lp12
S'CD'
p13
asS'hath'
p14
(lp15
S'NN'
p16
ag16
ag16
ag16
ag16
ag16
ag16
ag7
ag16
ag16
ag16
aS'VBD'
p17
ag16
ag16
ag16
ag10
ag16
ag16
aS'VBZ'
p18
ag16
ag16
ag16
ag16
ag16
ag16
ag10
ag16
ag16
ag17
ag10
ag16
ag16
aS'VBP'
p19
ag7
ag17
ag16
ag16
ag16
ag16
ag16
ag18
ag16
ag16
asS'sleep'
p20
(lp21
g19
ag16
ag19
ag16
asS"friend's"
p22
(lp23
g16
ag10
asS'hanging'
p24
(lp25
S'VBG'
p26
asS'mansion'
p27
(lp28
g16
ag16
asS'appetite'
p29
(lp30
g10
ag16
ag16
ag16
asS'evermore'
p31
(lp32
g7
aS'RB'
p33
ag16
asS'hate'
p34
(lp35
g16
ag7
ag16
ag16
ag7
ag16
ag10
ag16
ag16
ag16
ag16
ag16
ag16
asS'forget'
p36
(lp37
g16
ag7
asS'whose'
p38
(lp39
S'WP$'
p40
ag40
ag40
ag40
ag40
ag40
ag40
ag40
ag40
ag40
ag40
ag40
ag40
ag40
ag40
ag40
ag40
ag40
ag40
asS'feeding'
p41
(lp42
g26
ag16
ag26
asS'vile'
p43
(lp44
g10
ag10
ag16
asS'granting'
p45
(lp46
g16
asS'sweetest'
p47
(lp48
S'JJS'
p49
ag10
ag19
ag49
ag10
asS'presents'
p50
(lp51
S'NNS'
p52
asS'walks'
p53
(lp54
g52
ag17
asS"there's"
p55
(lp56
g16
asS'whatsoever'
p57
(lp58
S'WRB'
p59
asS'under'
p60
(lp61
S'IN'
p62
ag62
ag62
ag62
ag62
ag62
asS'lord'
p63
(lp64
g16
asS'sorry'
p65
(lp66
g10
asS'pride'
p67
(lp68
g16
ag16
ag16
ag10
ag16
ag7
ag16
ag16
ag16
asS'sway'
p69
(lp70
g16
ag7
asS'worth'
p71
(lp72
g10
ag16
ag16
ag16
ag16
ag16
ag10
ag16
aS'IN'
p73
ag73
ag16
ag10
ag16
ag10
ag16
ag10
ag16
ag16
ag16
asS'wondrous'
p74
(lp75
g10
ag10
asS'discased'
p76
(lp77
g4
asS'dispense'
p78
(lp79
g16
asS'hadst'
p80
(lp81
g16
ag16
asS'inhearse'
p82
(lp83
g16
asS"women's"
p84
(lp85
g16
ag10
ag10
asS'shoot'
p86
(lp87
g10
asS'every'
p88
(lp89
S'DT'
p90
ag90
ag90
ag90
ag90
ag90
ag90
ag90
ag90
ag90
ag90
ag90
ag90
ag90
ag90
ag90
ag90
ag90
ag90
ag90
ag90
ag90
ag90
ag90
ag90
ag90
ag90
ag90
ag90
asS'foul'
p91
(lp92
g4
ag16
ag19
ag7
ag10
ag16
ag7
asS'nourished'
p93
(lp94
g4
asS"o'er-read"
p95
(lp96
g10
asS'special'
p97
(lp98
g10
asS'believed'
p99
(lp100
g17
asS'uttering'
p101
(lp102
g26
asS'prize'
p103
(lp104
g16
ag16
ag16
asS'unrest'
p105
(lp106
g10
asS'graced'
p107
(lp108
g17
asS'succession'
p109
(lp110
g16
asS'graces'
p111
(lp112
g52
ag52
ag52
ag52
ag52
asS'triumph'
p113
(lp114
g10
ag7
ag7
asS'enjoy'
p115
(lp116
g33
asS'charter'
p117
(lp118
g16
ag16
asS'force'
p119
(lp120
g16
ag16
asS'tired'
p121
(lp122
g4
ag10
ag4
ag4
asS'awake'
p123
(lp124
g19
asS'razed'
p125
(lp126
g4
ag4
asS'out-going'
p127
(lp128
g16
asS'assure'
p129
(lp130
g16
asS'tires'
p131
(lp132
g52
asS'crave'
p133
(lp134
g7
asS'persuade'
p135
(lp136
g7
asS'quill'
p137
(lp138
g16
ag16
asS'even'
p139
(lp140
g33
ag33
ag33
ag33
ag33
ag33
ag33
ag33
ag33
ag33
ag33
ag33
ag33
ag33
ag33
ag33
ag33
ag33
ag33
ag33
ag33
ag33
ag33
ag33
asS'beated'
p141
(lp142
g17
asS'captain'
p143
(lp144
g19
ag16
asS'hide'
p145
(lp146
g16
ag16
ag16
ag7
ag16
asS"ne'er"
p147
(lp148
g33
ag7
ag33
asS'solemn'
p149
(lp150
g10
asS'thunder'
p151
(lp152
g16
asS'fingers'
p153
(lp154
g52
ag52
ag52
asS'liberty'
p155
(lp156
g16
ag16
asS'children'
p157
(lp158
S'NNS'
p159
asS'worser'
p160
(lp161
g16
asS'inheritors'
p162
(lp163
g52
asS'above'
p164
(lp165
g73
ag73
ag73
ag7
asS'guilty'
p166
(lp167
S'JJ'
p168
ag168
asS'matcheth'
p169
(lp170
g16
asS'new'
p171
(lp172
S'JJ'
p173
ag173
ag173
ag173
ag173
ag173
ag173
ag173
ag173
ag173
ag173
ag173
ag173
ag173
ag173
ag173
ag173
ag173
ag173
ag173
ag173
ag173
asS'poorly'
p174
(lp175
g33
asS'ever'
p176
(lp177
S'RB'
p178
ag178
ag178
ag178
ag178
ag178
ag178
ag178
ag178
ag178
ag178
asS'told'
p179
(lp180
g17
ag4
ag17
ag4
asS'deemed'
p181
(lp182
g17
ag4
asS'merchandized'
p183
(lp184
g4
asS'sinks'
p185
(lp186
g52
asS'join'
p187
(lp188
g16
asS'never'
p189
(lp190
S'RB'
p191
ag191
ag191
ag191
ag191
ag191
ag191
ag191
ag191
ag191
ag191
ag191
ag191
ag191
ag191
asS'here'
p192
(lp193
S'RB'
p194
ag194
ag194
ag194
asS'herd'
p195
(lp196
g16
asS'beck'
p197
(lp198
g16
asS"sweet'st"
p199
(lp200
g10
asS'pursuit'
p201
(lp202
g16
ag16
asS'active'
p203
(lp204
S'JJ'
p205
asS'spies'
p206
(lp207
g52
asS'a-doting'
p208
(lp209
g10
asS'effectually'
p210
(lp211
g33
asS'dry'
p212
(lp213
g7
asS'resty'
p214
(lp215
g16
asS'substance'
p216
(lp217
g16
ag16
ag16
ag16
asS'gaol'
p218
(lp219
g16
asS'leaves'
p220
(lp221
g52
ag52
ag52
ag52
ag52
ag18
ag18
ag18
asS'climbed'
p222
(lp223
g17
asS'credit'
p224
(lp225
S'NN'
p226
asS'smoke'
p227
(lp228
g16
asS'permit'
p229
(lp230
g19
asS'bettered'
p231
(lp232
g4
asS'mistake'
p233
(lp234
g19
asS'settled'
p235
(lp236
g10
asS'politic'
p237
(lp238
g10
asS'golden'
p239
(lp240
S'JJ'
p241
ag241
ag241
ag241
ag241
asS'swearing'
p242
(lp243
g26
asS'divide'
p244
(lp245
g7
asS'motley'
p246
(lp247
g16
asS'blessed-fair'
p248
(lp249
g10
asS'sorrows'
p250
(lp251
g52
ag10
asS'patience'
p252
(lp253
g16
ag16
asS'stern'
p254
(lp255
g10
asS'costly'
p256
(lp257
S'JJ'
p258
asS'glance'
p259
(lp260
g7
ag7
asS"light's"
p261
(lp262
g16
asS'plot'
p263
(lp264
g16
asS'budding'
p265
(lp266
g16
asS'would'
p267
(lp268
S'MD'
p269
ag269
ag269
ag269
ag269
ag269
ag269
ag269
ag269
ag269
ag269
ag269
ag269
ag269
ag269
ag269
ag269
ag269
ag269
ag269
ag269
asS'recured'
p270
(lp271
g4
asS"world's"
p272
(lp273
g16
ag16
ag16
ag16
ag16
asS'junes'
p274
(lp275
g52
asS'music'
p276
(lp277
S'NN'
p278
ag278
ag278
ag278
ag278
ag278
asS'therefore'
p279
(lp280
g33
ag16
ag19
ag33
ag16
ag33
ag33
ag7
ag33
ag16
ag33
ag73
ag33
ag33
ag73
ag33
ag33
asS'survive'
p281
(lp282
g10
ag19
asS'gilding'
p283
(lp284
g26
ag26
asS'tell'
p285
(lp286
g7
ag7
ag19
ag19
ag7
ag7
ag7
ag16
ag19
ag16
ag7
ag7
ag7
ag19
ag7
asS'breathe'
p287
(lp288
g7
ag16
asS'leese'
p289
(lp290
g10
asS'unbless'
p291
(lp292
g16
asS'holy'
p293
(lp294
g16
ag10
ag10
ag10
asS'wary'
p295
(lp296
g10
asS'brings'
p297
(lp298
g52
ag18
asS'muse'
p299
(lp300
g16
ag16
ag16
ag16
ag16
ag16
ag16
ag16
ag16
ag16
ag16
ag16
ag16
ag16
ag16
ag16
asS'herein'
p301
(lp302
g16
asS'grief'
p303
(lp304
g16
ag16
ag16
ag16
ag16
asS'glass'
p305
(lp306
g16
ag16
ag16
ag16
ag16
ag16
ag16
ag16
ag16
asS'warm'
p307
(lp308
g16
asS'excellent'
p309
(lp310
g10
asS'robbing'
p311
(lp312
g26
asS'ward'
p313
(lp314
g33
asS'hold'
p315
(lp316
g19
ag7
ag19
ag7
ag19
ag7
ag7
ag7
ag16
ag16
ag16
ag19
asS'striving'
p317
(lp318
g26
asS'must'
p319
(lp320
S'MD'
p321
ag321
ag321
ag321
ag321
ag321
ag321
ag321
ag321
ag321
ag321
ag321
ag321
ag321
ag321
ag321
ag321
ag321
ag321
ag321
asS'me'
p322
(lp323
S'PRP'
p324
ag324
ag324
ag324
ag324
ag324
ag324
ag324
ag324
ag324
ag324
ag324
ag324
ag324
ag324
ag324
ag324
ag324
ag324
ag324
ag324
ag324
ag324
ag324
ag324
ag324
ag324
ag324
ag324
ag324
ag324
ag324
ag324
ag324
ag324
ag324
ag324
ag324
ag324
ag324
ag324
ag324
ag324
ag324
ag324
ag324
ag324
ag324
ag324
ag324
ag324
ag324
ag324
ag324
ag324
ag324
ag324
ag324
ag324
ag324
ag324
ag324
ag324
ag324
ag324
ag324
ag324
ag324
ag324
ag324
ag324
ag324
ag324
ag324
ag324
ag324
ag324
ag324
ag324
ag324
ag324
ag324
ag324
ag324
ag324
ag324
ag324
ag324
ag324
ag324
ag324
ag324
ag324
ag324
ag324
ag324
ag324
ag324
ag324
ag324
ag324
ag324
ag324
ag324
ag324
ag324
ag324
ag324
ag324
ag324
ag324
ag324
ag324
ag324
ag324
ag324
ag324
ag324
ag324
ag324
ag324
ag324
ag324
ag324
ag324
ag324
ag324
ag324
ag324
ag324
ag324
ag324
ag324
ag324
ag324
ag324
ag324
ag324
ag324
ag324
ag324
ag324
ag324
ag324
ag324
ag324
ag324
ag324
ag324
ag324
ag324
ag324
ag324
ag324
ag324
ag324
ag324
ag324
ag324
ag324
ag324
ag324
ag324
ag324
asS'locked'
p325
(lp326
g4
asS'room'
p327
(lp328
S'NN'
p329
asS'err'
p330
(lp331
g19
asS'rights'
p332
(lp333
S'NNS'
p334
asS'work'
p335
(lp336
g16
ag7
ag16
asS'eclipse'
p337
(lp338
g16
asS'roof'
p339
(lp340
g16
asS'meadows'
p341
(lp342
g52
asS'ere'
p343
(lp344
S'EX'
p345
ag345
ag33
ag33
ag33
ag33
asS'leaped'
p346
(lp347
g4
asS'revenues'
p348
(lp349
g52
asS'my'
p350
(lp351
S'PRP$'
p352
ag352
ag352
ag352
ag352
ag352
ag352
ag352
ag352
ag352
ag352
ag352
ag352
ag352
ag352
ag352
ag352
ag352
ag352
ag352
ag352
ag352
ag352
ag352
ag352
ag352
ag352
ag352
ag352
ag352
ag352
ag352
ag352
ag352
ag352
ag352
ag352
ag352
ag352
ag352
ag352
ag352
ag352
ag352
ag352
ag352
ag352
ag352
ag352
ag352
ag352
ag352
ag352
ag352
ag352
ag352
ag352
ag352
ag352
ag352
ag352
ag352
ag352
ag352
ag352
ag352
ag352
ag352
ag352
ag352
ag352
ag352
ag352
ag352
ag352
ag352
ag352
ag352
ag352
ag352
ag352
ag352
ag352
ag352
ag352
ag352
ag352
ag352
ag352
ag352
ag352
ag352
ag352
ag352
ag352
ag352
ag352
ag352
ag352
ag352
ag352
ag352
ag352
ag352
ag352
ag352
ag352
ag352
ag352
ag352
ag352
ag352
ag352
ag352
ag352
ag352
ag352
ag352
ag352
ag352
ag352
ag352
ag352
ag352
ag352
ag352
ag352
ag352
ag352
ag352
ag352
ag352
ag352
ag352
ag352
ag352
ag352
ag352
ag352
ag352
ag352
ag352
ag352
ag352
ag352
ag352
ag352
ag352
ag352
ag352
ag352
ag352
ag352
ag352
ag352
ag352
ag352
ag352
ag352
ag352
ag352
ag352
ag352
ag352
ag352
ag352
ag352
ag352
ag352
ag352
ag352
ag352
ag352
ag352
ag352
ag352
ag352
ag352
ag352
ag352
ag352
ag352
ag352
ag352
ag352
ag352
ag352
ag352
ag352
ag352
ag352
ag352
ag352
ag352
ag352
ag352
ag352
ag352
ag352
ag352
ag352
ag352
ag352
ag352
ag352
ag352
ag352
ag352
ag352
ag352
ag352
ag352
ag352
ag352
ag352
ag352
ag352
ag352
ag352
ag352
ag352
ag352
ag352
ag352
ag352
ag352
ag352
ag352
ag352
ag352
ag352
ag352
ag352
ag352
ag352
ag352
ag352
ag352
ag352
ag352
ag352
ag352
ag352
ag352
ag352
ag352
ag352
ag352
ag352
ag352
ag352
ag352
ag352
ag352
ag352
ag352
ag352
ag352
ag352
ag352
ag352
ag352
ag352
ag352
ag352
ag352
ag352
ag352
ag352
ag352
ag352
ag352
ag352
ag352
ag352
ag352
ag352
ag352
ag352
ag352
ag352
ag352
ag352
ag352
ag352
ag352
ag352
ag352
ag352
ag352
ag352
ag352
ag352
ag352
ag352
ag352
ag352
ag352
ag352
ag352
ag352
ag352
ag352
ag352
ag352
ag352
ag352
ag352
ag352
ag352
ag352
ag352
ag352
ag352
ag352
ag352
ag352
ag352
ag352
ag352
ag352
ag352
ag352
ag352
ag352
ag352
ag352
ag352
ag352
ag352
ag352
ag352
ag352
ag352
ag352
ag352
ag352
ag352
ag352
ag352
ag352
ag352
ag352
ag352
ag352
ag352
ag352
ag352
ag352
ag352
ag352
ag352
ag352
ag352
ag352
ag352
ag352
ag352
ag352
ag352
ag352
ag352
ag352
ag352
ag352
ag352
ag352
ag352
ag352
ag352
ag352
ag352
ag352
ag352
ag352
ag352
ag352
ag352
ag352
ag352
ag352
ag352
ag352
ag352
ag352
ag352
ag352
ag352
ag352
ag352
ag352
asS'example'
p353
(lp354
S'NN'
p355
asS'lodged'
p356
(lp357
g4
asS'phrase'
p358
(lp359
g16
asS'subtleties'
p360
(lp361
g52
asS'fresher'
p362
(lp363
g16
asS'wane'
p364
(lp365
g16
asS'unjust'
p366
(lp367
g10
asS'honey'
p368
(lp369
g16
asS'foist'
p370
(lp371
g16
asS'kingdoms'
p372
(lp373
g52
asS'respose'
p374
(lp375
g16
asS'times'
p376
(lp377
g52
ag18
ag52
ag52
ag52
ag52
ag52
ag52
ag52
asS'worse'
p378
(lp379
S'WDT'
p380
aS'JJR'
p381
ag381
ag381
ag381
asS'ceremony'
p382
(lp383
g16
asS"consum'st"
p384
(lp385
g16
asS'gusts'
p386
(lp387
g52
asS'provide'
p388
(lp389
g33
asS'dignifies'
p390
(lp391
g52
asS'travel'
p392
(lp393
g16
ag10
asS'indirectly'
p394
(lp395
g33
asS'feature'
p396
(lp397
g16
asS'wights'
p398
(lp399
g52
asS'far'
p400
(lp401
S'RB'
p402
ag402
ag402
ag402
ag402
ag402
ag402
ag402
ag402
ag402
ag402
ag402
ag402
ag402
ag402
ag402
asS'hot'
p403
(lp404
g10
ag10
ag10
asS'writers'
p405
(lp406
g52
asS'answer'
p407
(lp408
g16
ag16
ag16
asS'gate'
p409
(lp410
g16
asS'dignified'
p411
(lp412
g17
asS"o'er-snowed"
p413
(lp414
g10
asS'blanks'
p415
(lp416
g52
asS'beauty'
p417
(lp418
g16
ag16
ag16
ag10
ag16
ag16
ag16
ag16
ag16
ag16
ag16
ag16
ag16
ag16
ag16
ag16
ag16
ag16
ag16
ag16
ag16
ag16
ag16
ag16
ag16
ag7
ag16
ag16
ag16
ag16
ag16
ag16
ag16
ag16
ag10
ag16
ag16
ag16
ag16
ag16
ag16
ag16
ag16
ag16
ag16
ag16
ag16
ag16
ag16
ag16
ag16
ag16
asS'after'
p419
(lp420
S'IN'
p421
ag421
ag421
ag421
ag421
ag421
ag421
ag421
ag421
ag421
asS'wrong'
p422
(lp423
g10
ag10
ag10
ag10
ag10
asS'lay'
p424
(lp425
g16
ag7
asS'lap'
p426
(lp427
g16
asS'wronk'
p428
(lp429
g7
asS"rud'st"
p430
(lp431
g16
asS'revolt'
p432
(lp433
g16
asS'greet'
p434
(lp435
g7
ag7
ag7
asS'purging'
p436
(lp437
g16
asS'wink'
p438
(lp439
g19
ag19
asS'maintain'
p440
(lp441
g19
asS'haste'
p442
(lp443
g16
ag16
ag16
asS'keeps'
p444
(lp445
g52
ag18
ag18
ag18
asS'alack'
p446
(lp447
g33
ag16
aS'RP'
p448
asS'wouldst'
p449
(lp450
g16
ag16
ag16
asS'wind'
p451
(lp452
g16
ag16
asS'bed-vow'
p453
(lp454
g10
asS'determinate'
p455
(lp456
g16
asS'couplement'
p457
(lp458
g16
asS'after-loss'
p459
(lp460
g10
asS'office'
p461
(lp462
S'NN'
p463
asS'consent'
p464
(lp465
g16
asS'profaned'
p466
(lp467
g4
ag4
asS'sickly'
p468
(lp469
g10
asS'fortify'
p470
(lp471
g7
ag7
asS'ghastly'
p472
(lp473
g33
asS'strangle'
p474
(lp475
g16
asS"bestow'st"
p476
(lp477
g10
asS'wrought'
p478
(lp479
g17
ag16
asS'before'
p480
(lp481
g73
ag33
ag73
ag73
ag73
ag73
ag73
ag73
ag73
ag73
ag16
ag33
ag19
ag73
ag73
asS'better'
p482
(lp483
g381
aS'RBR'
p484
ag381
ag381
ag381
ag381
ag381
ag381
ag381
ag381
ag381
ag484
ag381
ag484
ag381
ag484
ag484
ag381
ag381
asS'fade'
p485
(lp486
g7
ag16
ag7
asS'carve'
p487
(lp488
g16
asS'hidden'
p489
(lp490
g16
asS'savour'
p491
(lp492
g10
asS'then'
p493
(lp494
S'RB'
p495
ag495
ag495
ag495
ag495
ag495
ag495
ag495
ag495
ag495
ag495
ag495
ag495
ag495
ag495
ag495
ag495
ag495
ag495
ag495
ag495
ag495
ag495
ag495
ag495
ag495
ag495
ag495
ag495
ag495
ag495
ag495
ag495
ag495
ag495
ag495
ag495
ag495
ag495
ag495
ag495
ag495
ag495
ag495
ag495
ag495
ag495
ag495
ag495
ag495
ag495
ag495
ag495
ag495
ag495
ag495
ag495
ag495
ag495
ag495
ag495
ag495
ag495
ag495
ag495
ag495
ag495
ag495
ag495
ag495
ag495
ag495
ag495
ag495
asS'them'
p496
(lp497
S'PRP'
p498
ag498
ag498
ag498
ag498
ag498
ag498
ag498
ag498
ag498
ag498
ag498
ag498
ag498
ag498
ag498
ag498
asS'blots'
p499
(lp500
g52
asS'enrich'
p501
(lp502
g16
asS'thee'
p503
(lp504
g16
ag16
ag10
ag52
ag16
ag16
ag16
ag16
ag16
ag10
ag16
ag7
ag52
ag16
ag16
ag16
ag16
ag16
ag10
ag16
ag16
ag7
ag19
ag16
ag16
ag16
ag16
ag16
ag16
ag16
ag7
ag16
ag7
ag16
ag16
ag52
ag52
ag10
ag7
ag16
ag16
ag7
ag16
ag16
ag7
ag52
ag16
ag7
ag16
ag16
ag16
ag7
ag16
ag10
ag16
ag16
ag10
ag7
ag16
ag16
ag7
ag16
ag16
ag16
ag10
ag73
ag16
ag16
ag19
ag7
ag16
ag10
ag10
ag16
ag16
ag52
ag10
ag7
ag16
ag16
ag7
ag10
ag16
ag16
ag19
ag16
ag16
ag16
ag33
ag10
ag7
ag10
ag10
ag16
ag10
ag16
ag16
ag4
ag16
ag73
ag7
ag7
ag16
ag16
ag16
ag16
ag7
ag16
ag16
ag73
ag16
ag73
ag16
ag7
ag7
ag10
ag16
ag33
ag52
ag16
ag16
ag16
ag16
ag16
ag10
ag16
ag10
ag16
ag73
ag10
ag7
ag10
ag16
ag16
ag16
ag16
ag10
ag16
ag16
ag10
ag16
ag16
ag10
ag52
ag16
ag52
ag16
ag16
ag7
ag33
ag16
ag16
ag10
ag16
ag16
ag16
ag10
ag10
asS"truth's"
p505
(lp506
g10
asS'break'
p507
(lp508
g16
ag16
ag7
ag19
asS"winter's"
p509
(lp510
g7
ag10
ag16
asS'diseased'
p511
(lp512
g4
asS'they'
p513
(lp514
S'PRP'
p515
ag515
ag515
ag515
ag515
ag515
ag515
ag515
ag515
ag515
ag515
ag515
ag515
ag515
ag515
ag515
ag515
ag515
ag515
ag515
ag515
ag515
ag515
ag515
ag515
ag515
ag515
ag515
ag515
ag515
ag515
ag515
ag515
ag515
ag515
ag515
ag515
ag515
ag515
ag515
ag515
ag515
ag515
ag515
ag515
ag515
ag515
ag515
ag515
ag515
ag515
ag515
asS'glazed'
p516
(lp517
g4
asS'one'
p518
(lp519
S'CD'
p520
ag520
ag520
ag520
ag520
ag520
ag520
ag520
ag520
ag520
ag520
ag520
ag520
ag520
ag520
ag16
ag520
ag520
ag520
ag520
ag520
ag520
ag520
ag520
ag520
ag520
ag520
ag520
ag520
ag520
ag520
ag520
ag520
ag520
ag520
ag520
ag520
ag520
ag520
ag520
ag520
ag520
asS'silver'
p521
(lp522
g16
asS'shadows'
p523
(lp524
g18
ag52
ag52
asS'rhetoric'
p525
(lp526
g16
asS'brightness'
p527
(lp528
g16
asS'slavery'
p529
(lp530
g7
asS'rocks'
p531
(lp532
g52
asS'herald'
p533
(lp534
g16
asS'victories'
p535
(lp536
g52
asS'needing'
p537
(lp538
g10
asS'each'
p539
(lp540
S'DT'
p541
ag541
ag541
ag541
ag541
ag541
ag541
ag541
ag541
ag541
ag541
ag541
ag541
ag541
ag541
asS'wantonly'
p542
(lp543
g33
asS'dulness'
p544
(lp545
g16
asS'went'
p546
(lp547
S'VBD'
p548
asS'side'
p549
(lp550
g7
ag16
ag16
ag16
ag16
ag16
asS'luck'
p551
(lp552
g16
asS'true-telling'
p553
(lp554
g10
asS'woes'
p555
(lp556
g52
asS'concord'
p557
(lp558
g16
ag16
asS"'will'"
p559
(lp560
g7
ag7
aS'NNP'
p561
aS'POS'
p562
asS'taught'
p563
(lp564
g17
ag17
ag4
ag17
ag17
ag17
asS'forgot'
p565
(lp566
g16
ag4
ag4
ag17
asS'misprision'
p567
(lp568
g16
asS'whit'
p569
(lp570
g16
asS'truant'
p571
(lp572
g16
asS'array'
p573
(lp574
g19
asS'borne'
p575
(lp576
g19
ag10
asS'contend'
p577
(lp578
g7
asS'large'
p579
(lp580
S'JJ'
p581
ag581
ag581
ag581
ag581
asS'decree'
p582
(lp583
g7
asS'weakness'
p584
(lp585
S'NN'
p586
asS'sang'
p587
(lp588
g16
asS'god'
p589
(lp590
g18
ag16
asS'forty'
p591
(lp592
g16
asS"run'st"
p593
(lp594
g10
asS'content'
p595
(lp596
g16
ag16
asS'laid'
p597
(lp598
g4
ag4
ag4
ag16
asS'heart-inflaming'
p599
(lp600
g10
asS'heavenly'
p601
(lp602
g16
ag33
ag10
asS'got'
p603
(lp604
g17
ag17
ag17
asS'marigold'
p605
(lp606
g16
asS'forth'
p607
(lp608
g16
ag10
ag7
ag16
ag16
ag33
ag16
asS'prizing'
p609
(lp610
g26
asS'assured'
p611
(lp612
g4
ag17
ag10
ag10
asS'fadeth'
p613
(lp614
g16
asS'hang'
p615
(lp616
g19
ag16
ag33
asS'deceived'
p617
(lp618
g10
ag4
asS'eternal'
p619
(lp620
g10
ag10
ag10
ag10
ag10
ag10
asS'given'
p621
(lp622
S'VBN'
p623
ag623
ag623
ag623
asS'free'
p624
(lp625
g10
ag10
ag10
ag10
asS'mourning'
p626
(lp627
g26
ag26
asS'mistaking'
p628
(lp629
g26
asS'bestow'
p630
(lp631
g7
asS'whereupon'
p632
(lp633
g73
asS'evil'
p634
(lp635
g10
ag16
ag16
ag10
asS'crowned'
p636
(lp637
g4
ag4
ag4
ag4
asS'mistress'
p638
(lp639
g16
ag16
ag16
asS'knit'
p640
(lp641
g18
asS'wantonness'
p642
(lp643
g16
asS"receiv'st"
p644
(lp645
g18
ag16
asS'created'
p646
(lp647
g17
ag4
asS'days'
p648
(lp649
S'NNS'
p650
ag650
ag650
ag650
ag650
ag650
ag650
ag650
ag650
ag650
ag650
ag650
ag650
ag650
ag650
ag650
ag650
asS'sue'
p651
(lp652
g7
asS'bears'
p653
(lp654
g18
ag18
ag52
asS'renew'
p655
(lp656
g16
asS'tempting'
p657
(lp658
g26
asS'unknown'
p659
(lp660
g10
ag10
asS'tied'
p661
(lp662
g4
asS'potions'
p663
(lp664
g52
ag52
asS'loud'
p665
(lp666
g16
asS'ruinate'
p667
(lp668
g7
asS'user'
p669
(lp670
g16
asS'separable'
p671
(lp672
g10
asS'untutored'
p673
(lp674
g10
asS'already'
p675
(lp676
S'RB'
p677
asS'crowning'
p678
(lp679
g26
asS'hearsay'
p680
(lp681
g16
asS"'greeing"
p682
(lp683
g26
asS'rank'
p684
(lp685
g16
ag16
ag16
ag16
ag16
asS'hearing'
p686
(lp687
g26
asS'jealous'
p688
(lp689
g10
asS'featured'
p690
(lp691
g4
asS'another'
p692
(lp693
S'DT'
p694
ag694
ag694
ag694
ag694
ag694
ag694
ag694
asS'sober'
p695
(lp696
g16
asS'filching'
p697
(lp698
g16
asS'exchequer'
p699
(lp700
g16
asS'usurer'
p701
(lp702
g16
ag16
asS'top'
p703
(lp704
g16
asS'hawks'
p705
(lp706
g16
ag52
asS'millioned'
p707
(lp708
g10
asS'master'
p709
(lp710
g16
ag19
asS'too'
p711
(lp712
S'RB'
p713
ag713
ag713
ag713
ag713
ag713
ag713
ag713
ag713
ag713
ag713
ag713
ag713
ag713
ag713
ag713
ag713
asS'dwell'
p714
(lp715
g16
ag7
ag7
ag16
ag7
ag7
asS'bitter'
p716
(lp717
g7
ag7
asS'saith'
p718
(lp719
g16
asS'broils'
p720
(lp721
g52
asS'feathers'
p722
(lp723
g52
asS'griefs'
p724
(lp725
g52
asS'took'
p726
(lp727
S'VBD'
p728
ag728
ag728
ag728
ag728
asS'wisdom'
p729
(lp730
g10
asS'wardrobe'
p731
(lp732
g16
asS"youth's"
p733
(lp734
g33
asS'character'
p735
(lp736
g16
ag16
ag7
asS'begins'
p737
(lp738
g18
asS'distance'
p739
(lp740
g16
asS"here's"
p741
(lp742
S'PDT'
p743
asS'coward'
p744
(lp745
g10
asS"mother's"
p746
(lp747
g16
ag10
ag10
asS'bitterness'
p748
(lp749
g16
ag16
asS'idly'
p750
(lp751
g33
asS'matter'
p752
(lp753
g16
ag16
ag16
asS'idle'
p754
(lp755
g10
ag10
asS'titles'
p756
(lp757
g52
asS'flame'
p758
(lp759
g16
ag16
ag16
asS'friend'
p760
(lp761
g19
ag16
ag16
ag16
ag16
ag16
ag19
ag16
ag16
ag16
ag16
ag16
ag16
ag16
asS'deserving'
p762
(lp763
g26
asS'askance'
p764
(lp765
g16
asS'knights'
p766
(lp767
g52
asS'beard'
p768
(lp769
g10
asS'powers'
p770
(lp771
g52
asS'swift-footed'
p772
(lp773
g10
asS'fashion'
p774
(lp775
S'NN'
p776
ag776
asS'sees'
p777
(lp778
g18
asS'hue'
p779
(lp780
g16
ag16
ag16
ag16
ag16
asS"mind's"
p781
(lp782
g16
asS'modern'
p783
(lp784
g10
asS'mind'
p785
(lp786
g16
ag16
ag16
ag16
ag16
ag16
ag16
ag16
ag16
ag16
ag16
ag16
ag16
ag16
ag19
ag16
asS'mine'
p787
(lp788
g10
ag16
ag16
ag10
ag10
ag16
ag10
ag16
ag10
ag16
ag10
ag16
ag10
ag7
ag7
ag19
ag16
ag7
ag10
ag16
ag16
ag16
ag16
ag16
ag16
ag16
ag16
ag10
ag10
ag10
ag16
ag10
ag16
ag19
aS'PRP'
p789
ag16
ag10
ag16
ag10
ag16
ag16
ag10
ag16
ag10
ag16
ag19
ag10
ag16
ag16
ag10
ag4
ag16
ag10
ag16
ag16
ag7
ag7
ag10
ag10
ag10
ag10
ag10
ag16
asS'spent'
p790
(lp791
g4
ag10
ag17
ag4
ag4
ag4
asS'manner'
p792
(lp793
g16
asS'amiss'
p794
(lp795
g10
ag10
asS'bewailed'
p796
(lp797
g10
asS"deserv'st"
p798
(lp799
g16
asS'churl'
p800
(lp801
g16
ag19
asS'seem'
p802
(lp803
g19
ag16
ag19
ag7
ag16
ag7
ag19
ag7
ag7
ag7
ag19
ag19
asS'seek'
p804
(lp805
g19
ag10
ag7
ag16
asS'tells'
p806
(lp807
g18
ag18
asS'contents'
p808
(lp809
g52
asS'praising'
p810
(lp811
g26
ag26
asS'strength'
p812
(lp813
S'NN'
p814
ag814
ag814
ag814
ag814
asS'neck'
p815
(lp816
g16
asS'snow'
p817
(lp818
g10
asS'sound'
p819
(lp820
g16
ag16
asS'chest'
p821
(lp822
g16
ag16
ag16
asS'subjects'
p823
(lp824
g52
ag52
asS'laughed'
p825
(lp826
g4
asS'pilgrimage'
p827
(lp828
g16
ag16
asS'rider'
p829
(lp830
g16
asS'aggravate'
p831
(lp832
g7
asS'maiden'
p833
(lp834
g16
ag10
ag10
asS'though'
p835
(lp836
g73
ag73
ag73
ag73
ag73
ag73
ag73
ag73
ag73
ag73
ag73
ag73
ag73
ag73
ag73
ag73
ag73
ag73
ag73
ag73
ag73
ag73
ag73
ag73
ag73
ag73
ag73
ag73
ag33
ag73
ag73
ag73
asS'object'
p837
(lp838
g16
asS'dial'
p839
(lp840
g10
ag10
asS'justify'
p841
(lp842
g7
asS'dulling'
p843
(lp844
g26
asS'errors'
p845
(lp846
g52
ag52
ag52
ag52
asS'ashes'
p847
(lp848
g52
asS'disarmed'
p849
(lp850
g17
asS'grave'
p851
(lp852
g16
ag16
ag16
asS'shalt'
p853
(lp854
g17
ag16
ag16
ag7
ag17
ag16
ag16
ag10
ag16
ag16
ag16
asS'constancy'
p855
(lp856
g16
ag16
ag16
asS'consumed'
p857
(lp858
g4
asS'flow'
p859
(lp860
g7
asS'breathes'
p861
(lp862
g52
asS'steeled'
p863
(lp864
g10
asS'points'
p865
(lp866
g52
asS'breathed'
p867
(lp868
g10
asS'wrecked'
p869
(lp870
g4
asS'fitted'
p871
(lp872
g4
asS'reserve'
p873
(lp874
g7
ag7
asS'wild'
p875
(lp876
g10
asS'renewed'
p877
(lp878
g4
asS'bait'
p879
(lp880
g16
asS'oaths'
p881
(lp882
g10
ag52
ag52
asS'enjoyer'
p883
(lp884
g16
asS'ending'
p885
(lp886
S'VBG'
p887
asS'poison'
p888
(lp889
g19
asS'earth'
p890
(lp891
g16
ag16
ag16
ag16
ag16
ag10
ag16
ag381
ag16
ag16
ag10
ag16
asS'bail'
p892
(lp893
g16
ag16
asS'enjoyed'
p894
(lp895
g4
asS'bearer'
p896
(lp897
g16
asS'touches'
p898
(lp899
g52
ag18
ag52
ag52
asS'copy'
p900
(lp901
g16
ag19
asS'proposed'
p902
(lp903
g4
asS'spite'
p904
(lp905
g16
ag10
ag16
ag16
ag16
asS'herself'
p906
(lp907
g789
asS'cupid'
p908
(lp909
g10
ag10
asS'bliss'
p910
(lp911
g16
asS'touched'
p912
(lp913
g17
asS'rich'
p914
(lp915
g10
ag10
ag10
ag10
ag10
ag10
ag10
ag10
ag10
ag10
asS'pursuing'
p916
(lp917
g26
asS'mend'
p918
(lp919
g7
ag19
ag7
asS"'thou"
p920
(lp921
g520
asS'borrowed'
p922
(lp923
g4
ag17
asS'do'
p924
(lp925
g7
ag19
ag19
ag19
ag19
ag19
ag19
ag19
ag19
ag19
ag7
ag19
ag19
ag19
ag19
ag19
ag19
ag19
ag7
ag19
ag19
ag19
ag19
ag19
ag19
ag19
ag7
ag19
ag19
ag7
ag19
ag7
ag19
ag7
ag19
ag7
ag19
ag7
ag19
ag19
ag19
ag7
ag19
ag19
ag7
ag19
ag19
ag19
ag19
ag7
ag19
ag19
ag7
ag7
ag19
ag7
ag19
ag7
ag19
ag19
ag19
ag7
ag19
ag19
ag19
ag19
ag19
ag19
ag19
ag19
ag19
ag19
ag19
ag19
ag19
ag19
ag19
ag19
ag19
ag19
ag19
ag19
ag19
ag19
asS'blenches'
p926
(lp927
g52
asS'forsworn'
p928
(lp929
g16
ag16
ag4
ag4
asS"'i"
p930
(lp931
S'MD'
p932
ag520
ag10
asS'stop'
p933
(lp934
g7
ag7
asS'perceive'
p935
(lp936
g19
asS'leisure'
p937
(lp938
g16
ag16
ag16
ag16
asS'raiment'
p939
(lp940
g16
asS'gored'
p941
(lp942
g17
asS'bootless'
p943
(lp944
g16
asS'spirit'
p945
(lp946
g16
ag16
ag16
ag16
ag16
ag16
ag16
ag16
ag16
ag16
asS'despite'
p947
(lp948
S'IN'
p949
ag949
ag949
ag949
ag949
ag949
asS'report'
p950
(lp951
g16
ag16
ag16
ag16
asS'saturn'
p952
(lp953
g16
asS'seemly'
p954
(lp955
g10
asS'runs'
p956
(lp957
g18
asS'increasing'
p958
(lp959
g26
asS'bar'
p960
(lp961
g7
asS'exchanged'
p962
(lp963
g17
asS'beseem'
p964
(lp965
g73
asS'thrusts'
p966
(lp967
g52
asS'doting'
p968
(lp969
g10
asS'twice'
p970
(lp971
g33
ag33
asS'eyelids'
p972
(lp973
g52
ag52
asS'esteeming'
p974
(lp975
g26
asS'hasten'
p976
(lp977
g19
asS'steal'
p978
(lp979
g10
ag10
ag10
ag7
ag7
ag16
asS'farther'
p980
(lp981
g33
ag33
ag381
ag10
asS'unprovident'
p982
(lp983
g10
asS'penance'
p984
(lp985
g16
asS"wond'ring"
p986
(lp987
g26
asS'unrespected'
p988
(lp989
g4
ag10
asS'fair'
p990
(lp991
g10
ag10
ag10
ag10
ag16
ag16
ag10
ag10
ag10
ag16
ag10
ag10
ag10
ag10
ag16
ag10
ag10
ag10
ag10
ag10
ag16
ag10
ag10
ag10
ag10
ag10
ag10
ag10
ag7
ag10
ag10
ag10
ag10
ag10
ag16
ag10
ag10
ag10
ag10
ag18
ag16
ag10
ag16
asS'habit'
p992
(lp993
g16
asS'imitate'
p994
(lp995
g7
asS'proclaims'
p996
(lp997
g19
asS'depends'
p998
(lp999
g18
ag18
asS'corrupt'
p1000
(lp1001
g4
ag7
asS'best'
p1002
(lp1003
g49
aS'RBS'
p1004
ag1004
ag49
ag49
ag49
ag49
ag49
ag49
ag49
ag1004
ag49
ag1004
ag49
ag49
ag49
ag1004
ag49
ag49
ag49
ag49
ag49
ag49
asS'subject'
p1005
(lp1006
g16
ag10
ag10
ag16
ag10
asS'said'
p1007
(lp1008
S'VBD'
p1009
ag1009
ag1009
ag1009
asS'temptation'
p1010
(lp1011
g16
ag7
asS"bett'ring"
p1012
(lp1013
g16
asS'away'
p1014
(lp1015
g33
ag448
ag33
ag33
ag33
ag33
ag33
ag448
ag33
ag448
ag33
ag33
ag33
ag448
ag33
ag33
ag33
ag33
asS'sail'
p1016
(lp1017
g16
ag16
ag16
asS'bier'
p1018
(lp1019
g16
asS'madding'
p1020
(lp1021
g16
asS'wilful-slow'
p1022
(lp1023
g10
asS'mud'
p1024
(lp1025
g19
asS'score'
p1026
(lp1027
g7
asS'finger'
p1028
(lp1029
g16
asS'pebbled'
p1030
(lp1031
g4
asS'scorn'
p1032
(lp1033
g19
ag10
asS'drawn'
p1034
(lp1035
g16
ag4
ag16
asS'enlighten'
p1036
(lp1037
g7
asS'preserve'
p1038
(lp1039
g19
asS'warrior'
p1040
(lp1041
g16
asS'we'
p1042
(lp1043
S'PRP'
p1044
ag1044
ag1044
ag1044
ag1044
ag1044
ag1044
ag1044
ag1044
ag1044
ag1044
ag1044
ag1044
ag1044
ag1044
asS'men'
p1045
(lp1046
S'NNS'
p1047
ag1047
ag1047
ag1047
ag1047
ag1047
ag1047
ag1047
ag1047
ag1047
ag1047
ag1047
ag1047
ag1047
ag1047
asS'terms'
p1048
(lp1049
S'NNS'
p1050
asS'parallels'
p1051
(lp1052
g52
asS'nature'
p1053
(lp1054
g16
ag19
ag16
ag10
ag16
ag16
ag16
ag16
ag16
asS'weak'
p1055
(lp1056
S'JJ'
p1057
ag1057
asS'ignorance'
p1058
(lp1059
g16
ag16
asS'authorizing'
p1060
(lp1061
g26
asS'disdaineth'
p1062
(lp1063
g18
asS'wear'
p1064
(lp1065
g19
ag16
ag19
asS'diest'
p1066
(lp1067
g49
asS'news'
p1068
(lp1069
S'NN'
p1070
asS'debt'
p1071
(lp1072
S'NN'
p1073
asS'tempests'
p1074
(lp1075
g52
asS'pity'
p1076
(lp1077
g16
ag16
ag16
ag16
ag16
ag16
ag16
ag16
asS'foes'
p1078
(lp1079
g52
ag52
ag52
asS'goddess'
p1080
(lp1081
g16
ag16
asS'accident'
p1082
(lp1083
g16
asS'disdain'
p1084
(lp1085
g16
ag16
asS'fault'
p1086
(lp1087
g16
ag16
ag16
asS'ill'
p1088
(lp1089
g10
ag10
ag19
ag16
ag7
ag16
ag16
ag10
ag16
ag10
ag7
ag16
ag16
ag16
ag16
ag16
ag19
asS'against'
p1090
(lp1091
S'IN'
p1092
ag1092
ag1092
ag1092
ag1092
ag1092
ag1092
ag1092
ag1092
ag1092
ag1092
ag1092
ag1092
ag1092
ag1092
ag1092
ag1092
ag1092
asS'brag'
p1093
(lp1094
g16
asS'receives'
p1095
(lp1096
g18
ag52
ag18
asS'faces'
p1097
(lp1098
S'VBZ'
p1099
ag1099
asS'exceeds'
p1100
(lp1101
g52
asS'expense'
p1102
(lp1103
g16
ag16
ag16
asS'groans'
p1104
(lp1105
g52
asS'asked'
p1106
(lp1107
g4
asS'suggest'
p1108
(lp1109
g7
asS'vexed'
p1110
(lp1111
g10
asS'honouring'
p1112
(lp1113
g16
asS'burthen'
p1114
(lp1115
g16
ag16
asS'height'
p1116
(lp1117
g10
ag16
ag16
asS'hers'
p1118
(lp1119
g52
asS'prone'
p1120
(lp1121
g19
asS'springs'
p1122
(lp1123
g52
asS'over-plus'
p1124
(lp1125
g16
asS'trust'
p1126
(lp1127
g16
ag16
ag7
ag7
ag16
asS'heals'
p1128
(lp1129
g18
asS'speak'
p1130
(lp1131
g7
ag16
ag16
ag16
ag7
ag7
ag16
ag7
asS'yellowed'
p1132
(lp1133
g4
asS'unhappily'
p1134
(lp1135
g10
asS'puts'
p1136
(lp1137
g18
asS'eager'
p1138
(lp1139
g10
asS'time-bettering'
p1140
(lp1141
g10
asS'three'
p1142
(lp1143
S'CD'
p1144
ag1144
ag1144
ag1144
ag1144
ag1144
ag1144
asS'been'
p1145
(lp1146
S'VBN'
p1147
ag1147
ag1147
ag1147
ag1147
ag1147
asS'particulars'
p1148
(lp1149
g52
asS'twain'
p1150
(lp1151
g4
ag16
ag16
asS'much'
p1152
(lp1153
g33
ag33
ag33
ag10
ag10
ag10
ag33
ag10
ag33
ag10
ag10
ag10
ag33
ag33
ag10
ag10
ag10
asS'interest'
p1154
(lp1155
S'NN'
p1156
ag1156
asS'incertainty'
p1157
(lp1158
g16
asS'privilege'
p1159
(lp1160
g16
asS'vermilion'
p1161
(lp1162
g16
asS'lovely'
p1163
(lp1164
g10
ag33
ag33
ag33
ag33
ag10
ag10
asS'thrice'
p1165
(lp1166
g16
ag33
ag16
asS'idol'
p1167
(lp1168
g16
asS'threw'
p1169
(lp1170
g17
asS'life'
p1171
(lp1172
S'NN'
p1173
ag1173
ag1173
ag1173
ag1173
ag1173
ag1173
ag1173
ag1173
ag1173
ag1173
ag1173
ag1173
ag1173
ag1173
ag1173
ag1173
ag1173
ag1173
ag1173
ag1173
ag1173
ag1173
asS"brav'ry"
p1174
(lp1175
g16
asS'easy'
p1176
(lp1177
g10
asS'erred'
p1178
(lp1179
g4
asS'drugs'
p1180
(lp1181
S'NNS'
p1182
asS'maladies'
p1183
(lp1184
g52
ag52
asS'decrepit'
p1185
(lp1186
g16
asS'dote'
p1187
(lp1188
g7
ag19
asS'child'
p1189
(lp1190
g16
ag16
ag16
ag16
ag16
ag16
ag16
ag16
asS'catch'
p1191
(lp1192
g16
ag7
ag7
ag16
asS'doth'
p1193
(lp1194
S'CC'
p1195
ag16
ag19
ag16
ag16
ag16
ag10
ag18
ag33
ag19
ag19
ag484
ag7
ag16
ag10
ag19
ag10
aS'DT'
p1196
ag19
ag18
ag16
ag16
ag19
ag1196
ag16
ag16
ag16
ag1196
ag16
ag1196
ag10
ag484
ag18
ag18
ag1196
ag10
ag1196
ag10
ag1196
ag16
ag1196
ag52
ag33
ag18
ag16
ag1196
ag1195
ag52
ag18
ag16
ag16
ag52
ag16
ag1196
ag19
ag16
ag16
ag16
ag1196
ag16
ag1195
ag1195
ag16
ag18
ag1196
ag16
ag10
ag19
ag16
ag19
ag1196
ag18
ag18
ag10
ag16
ag7
ag19
ag10
ag18
ag1195
ag16
ag7
ag19
ag33
ag16
ag16
ag16
ag1196
asS'erst'
p1197
(lp1198
g19
asS'gracious'
p1199
(lp1200
g10
ag10
ag10
ag10
ag10
asS'physician'
p1201
(lp1202
g16
asS'east'
p1203
(lp1204
g10
asS'air'
p1205
(lp1206
g16
ag16
ag16
ag16
asS'lesser'
p1207
(lp1208
g381
asS'ugly'
p1209
(lp1210
g33
asS'near'
p1211
(lp1212
g10
ag73
ag73
ag73
ag73
asS'suppose'
p1213
(lp1214
g19
asS'aid'
p1215
(lp1216
g16
ag10
asS'voice'
p1217
(lp1218
g16
asS'weakens'
p1219
(lp1220
g18
asS'played'
p1221
(lp1222
g17
asS'is'
p1223
(lp1224
S'VBZ'
p1225
ag1225
ag1225
ag1225
ag1225
ag1225
ag1225
ag1225
ag1225
ag1225
ag1225
ag1225
ag1225
ag1225
ag1225
ag1225
ag1225
ag1225
ag1225
ag1225
ag1225
ag1225
ag1225
ag1225
ag1225
ag1225
ag1225
ag1225
ag1225
ag1225
ag1225
ag1225
ag1225
ag1225
ag1225
ag1225
ag1225
ag1225
ag1225
ag1225
ag1225
ag1225
ag1225
ag1225
ag1225
ag1225
ag1225
ag1225
ag1225
ag1225
ag1225
ag1225
ag1225
ag1225
ag1225
ag1225
ag1225
ag1225
ag1225
ag1225
ag1225
ag1225
ag1225
ag1225
ag1225
ag1225
ag1225
ag1225
ag1225
ag1225
ag1225
ag1225
ag1225
ag1225
ag1225
ag1225
ag1225
ag1225
ag1225
ag1225
ag1225
ag1225
ag1225
ag1225
ag1225
ag1225
ag1225
ag1225
ag1225
ag1225
ag1225
ag1225
ag1225
ag1225
ag1225
ag1225
ag1225
ag1225
ag1225
ag1225
ag1225
ag1225
ag1225
ag1225
ag1225
ag1225
ag1225
ag1225
ag1225
ag1225
ag1225
ag1225
ag1225
ag1225
ag1225
ag1225
ag1225
ag1225
ag1225
ag1225
ag1225
ag1225
ag1225
ag1225
ag1225
ag1225
ag1225
ag1225
ag1225
ag1225
ag1225
ag1225
ag1225
ag1225
ag1225
ag1225
ag1225
ag1225
ag1225
ag1225
ag1225
ag1225
ag1225
ag1225
ag1225
ag1225
ag1225
ag1225
ag1225
ag1225
ag1225
ag1225
ag1225
ag1225
ag1225
ag1225
ag1225
ag1225
ag1225
ag1225
ag1225
ag1225
ag1225
ag1225
ag1225
ag1225
ag1225
asS'it'
p1226
(lp1227
g789
ag789
ag789
ag789
ag789
ag789
ag789
ag789
ag789
ag789
ag789
ag789
ag789
ag789
ag789
ag789
ag789
ag789
ag789
ag789
ag789
ag789
ag789
ag789
ag789
ag789
ag789
ag789
ag789
ag789
ag789
ag789
ag789
ag789
ag789
ag789
ag789
ag789
ag789
ag789
ag789
ag789
ag789
ag789
ag789
ag789
ag789
ag789
ag789
ag789
ag789
ag789
ag789
ag789
ag789
ag789
ag789
ag789
ag789
ag789
ag789
ag789
ag789
ag789
ag789
ag789
ag789
ag789
ag789
ag789
ag789
ag789
ag789
ag789
ag789
ag789
ag789
ag789
ag789
ag789
ag789
ag789
ag789
ag789
ag789
ag789
ag789
ag789
ag789
ag789
ag789
ag789
ag789
ag789
ag789
ag789
ag789
ag789
ag789
ag789
ag789
ag789
ag789
ag789
ag789
ag789
ag789
ag789
ag789
ag789
asS'defeated'
p1228
(lp1229
g4
asS'shame'
p1230
(lp1231
g16
ag16
ag16
ag10
ag7
ag7
ag16
ag16
ag16
asS'to-morrow'
p1232
(lp1233
g10
ag10
ag16
asS'splendour'
p1234
(lp1235
g16
asS'watching'
p1236
(lp1237
g26
asS'in'
p1238
(lp1239
S'IN'
p1240
ag1240
ag1240
ag1240
ag1240
ag1240
ag1240
ag1240
ag1240
ag1240
ag1240
ag1240
ag1240
ag1240
ag1240
ag1240
ag1240
ag1240
ag1240
ag1240
ag1240
ag1240
ag1240
ag1240
ag1240
ag1240
ag1240
ag1240
ag1240
ag1240
ag1240
ag1240
ag1240
ag1240
ag1240
ag1240
ag1240
ag1240
ag1240
ag1240
ag1240
ag1240
ag1240
ag1240
ag1240
ag1240
ag1240
ag1240
ag1240
ag1240
ag1240
ag1240
ag1240
ag1240
ag1240
ag1240
ag1240
ag1240
ag1240
ag1240
ag1240
ag1240
ag1240
ag1240
ag1240
ag1240
ag1240
ag1240
ag1240
ag1240
ag1240
ag1240
ag1240
ag1240
ag1240
ag1240
ag1240
ag1240
ag1240
ag1240
ag1240
ag1240
ag1240
ag1240
ag1240
ag1240
ag1240
ag1240
ag1240
ag1240
ag1240
ag1240
ag1240
ag1240
ag1240
ag1240
ag1240
ag1240
ag1240
ag1240
ag1240
ag1240
ag1240
ag1240
ag1240
ag1240
ag1240
ag1240
ag1240
ag1240
ag1240
ag1240
ag1240
ag1240
ag1240
ag1240
ag1240
ag1240
ag1240
ag1240
ag1240
ag1240
ag1240
ag1240
ag1240
ag1240
ag1240
ag1240
ag1240
ag1240
ag1240
ag1240
ag1240
ag1240
ag1240
ag1240
ag1240
ag1240
ag1240
ag1240
ag1240
ag1240
ag1240
ag1240
ag1240
ag1240
ag1240
ag1240
ag1240
ag1240
ag1240
ag1240
ag1240
ag1240
ag1240
ag1240
ag1240
ag1240
ag1240
ag1240
ag1240
ag1240
ag1240
ag1240
ag1240
ag1240
ag1240
ag1240
ag1240
ag1240
ag1240
ag1240
ag1240
ag1240
ag1240
ag1240
ag1240
ag1240
ag1240
ag1240
ag1240
ag1240
ag1240
ag1240
ag1240
ag1240
ag1240
ag1240
ag1240
ag1240
ag1240
ag1240
ag1240
ag1240
ag1240
ag1240
ag1240
ag1240
ag1240
ag1240
ag1240
ag1240
ag1240
ag1240
ag1240
ag1240
ag1240
ag1240
ag1240
ag1240
ag1240
ag1240
ag1240
ag1240
ag1240
ag1240
ag1240
ag1240
ag1240
ag1240
ag1240
ag1240
ag1240
ag1240
ag1240
ag1240
ag1240
ag1240
ag1240
ag1240
ag1240
ag1240
ag1240
ag1240
ag1240
ag1240
ag1240
ag1240
ag1240
ag1240
ag1240
ag1240
ag1240
ag1240
ag1240
ag1240
ag1240
ag1240
ag1240
ag1240
ag1240
ag1240
ag1240
ag1240
ag1240
ag1240
ag1240
ag1240
ag1240
ag1240
ag1240
ag1240
ag1240
ag1240
ag1240
ag1240
ag1240
ag1240
ag1240
ag1240
ag1240
ag1240
ag1240
ag1240
ag1240
ag1240
ag1240
ag1240
ag1240
ag1240
ag1240
ag1240
ag1240
ag1240
ag1240
ag1240
ag1240
ag1240
ag1240
ag1240
ag1240
ag1240
ag1240
ag1240
ag1240
ag1240
ag1240
ag1240
ag1240
ag1240
ag1240
ag1240
ag1240
ag1240
ag1240
ag1240
ag1240
ag1240
ag1240
ag1240
ag1240
ag1240
ag1240
ag1240
ag1240
ag1240
ag1240
ag1240
ag1240
ag1240
asS'bounteous'
p1241
(lp1242
g10
ag10
asS'if'
p1243
(lp1244
S'IN'
p1245
ag1245
ag1245
ag1245
ag1245
ag1245
ag1245
ag1245
ag1245
ag1245
ag1245
ag1245
ag1245
ag1245
ag1245
ag1245
ag1245
ag1245
ag1245
ag1245
ag1245
ag1245
ag1245
ag1245
ag1245
ag1245
ag1245
ag1245
ag1245
ag1245
ag1245
ag1245
ag1245
ag1245
ag1245
ag1245
ag1245
ag1245
ag1245
ag1245
ag1245
ag1245
ag1245
ag1245
ag1245
ag1245
ag1245
ag1245
ag1245
ag1245
ag1245
ag1245
ag1245
ag1245
ag1245
ag1245
ag1245
ag1245
ag1245
ag1245
ag1245
ag1245
ag1245
ag1245
ag1245
ag1245
asS'grown'
p1246
(lp1247
g4
ag10
ag4
asS'wooing'
p1248
(lp1249
g26
asS'memorial'
p1250
(lp1251
g16
asS'awakes'
p1252
(lp1253
g52
asS'cools'
p1254
(lp1255
g18
asS'patent'
p1256
(lp1257
g16
asS'things'
p1258
(lp1259
S'NNS'
p1260
ag1260
ag1260
ag1260
ag1260
ag1260
ag1260
ag1260
ag1260
ag1260
ag1260
ag1260
ag1260
ag1260
asS'make'
p1261
(lp1262
g7
ag7
ag7
ag19
ag7
ag19
ag7
ag19
ag7
ag7
ag16
ag7
ag19
ag7
ag19
ag19
ag7
ag7
ag7
ag19
ag19
ag7
ag7
ag7
ag19
ag16
ag19
ag7
ag7
ag7
ag7
ag7
ag7
ag7
ag7
ag7
ag19
ag7
ag7
ag16
ag7
ag7
ag7
asS'wound'
p1263
(lp1264
g16
ag16
ag73
ag16
asS"lords'"
p1265
(lp1266
g10
asS'beside'
p1267
(lp1268
g73
ag16
asS'bosoms'
p1269
(lp1270
g52
asS"th'"
p1271
(lp1272
g10
ag19
ag16
ag16
ag16
ag10
ag73
ag10
ag18
asS'several'
p1273
(lp1274
S'JJ'
p1275
asS'grows'
p1276
(lp1277
g18
ag52
ag18
ag18
asS'entitled'
p1278
(lp1279
g4
asS'lusty'
p1280
(lp1281
g10
ag10
asS'fairly'
p1282
(lp1283
S'RB'
p1284
asS'tops'
p1285
(lp1286
g52
asS'rain'
p1287
(lp1288
g16
ag16
ag16
asS'hand'
p1289
(lp1290
S'NN'
p1291
ag1291
ag1291
ag1291
ag1291
ag1291
ag1291
ag1291
ag1291
ag1291
ag1291
ag1291
ag1291
ag1291
ag1291
ag1291
ag1291
asS'delight'
p1292
(lp1293
g16
ag16
ag10
ag16
ag16
ag10
ag4
ag16
asS'supposing'
p1294
(lp1295
g26
asS'dark'
p1296
(lp1297
g16
ag10
ag10
asS'bequest'
p1298
(lp1299
g49
asS'blamed'
p1300
(lp1301
g4
ag17
asS'thoughts'
p1302
(lp1303
g52
ag52
ag52
ag52
ag52
ag52
ag52
ag52
ag52
ag52
ag52
ag52
ag52
ag52
ag52
ag52
ag52
ag52
asS'censures'
p1304
(lp1305
g18
asS'kept'
p1306
(lp1307
g17
ag4
ag4
asS'thy'
p1308
(lp1309
g10
ag10
ag10
ag7
ag10
ag10
ag10
ag10
ag10
ag10
ag10
ag10
ag10
ag10
ag16
ag10
ag16
ag10
ag10
ag10
ag10
ag52
ag10
ag10
ag10
ag10
ag10
ag10
ag10
ag16
ag10
ag10
ag16
ag10
ag7
ag10
ag10
ag10
ag10
ag10
ag10
ag10
ag10
ag10
ag10
ag16
ag10
ag10
ag10
ag10
ag10
ag10
ag10
ag10
ag10
ag16
ag16
ag10
ag7
ag10
ag10
ag10
ag10
ag10
ag7
ag10
ag10
ag10
ag10
ag10
ag10
ag10
ag10
ag10
ag10
ag10
ag17
ag10
ag7
ag16
ag10
ag7
ag10
ag10
ag10
ag10
ag10
ag10
ag10
ag7
ag10
ag10
ag10
ag10
ag10
ag16
ag10
ag10
ag10
ag10
ag16
ag10
ag10
ag10
ag10
ag10
ag10
ag10
ag10
ag10
ag7
ag10
ag10
ag10
ag10
ag10
ag10
ag10
ag16
ag7
ag10
ag10
ag10
ag10
ag10
ag10
ag10
ag10
ag10
ag10
ag10
ag10
ag10
ag19
ag10
ag10
ag10
ag10
ag10
ag10
ag10
ag10
ag16
ag10
ag10
ag10
ag16
ag10
ag10
ag10
ag10
ag10
ag10
ag10
ag10
ag10
ag10
ag10
ag10
ag16
ag10
ag10
ag10
ag10
ag10
ag10
ag10
ag10
ag10
ag10
ag10
ag10
ag10
ag10
ag10
ag10
ag10
ag10
ag10
ag10
ag10
ag16
ag10
ag10
ag10
ag10
ag10
ag10
ag10
ag10
ag10
ag10
ag10
ag10
ag10
ag10
ag10
ag10
ag10
ag10
ag16
ag10
ag7
ag10
ag10
ag16
ag19
ag7
ag10
ag16
ag10
ag10
ag10
ag10
ag10
ag10
ag10
ag10
ag10
ag10
ag10
ag10
ag10
ag10
ag10
ag10
ag10
ag10
ag10
ag10
ag7
ag10
ag16
ag7
ag7
ag10
ag10
ag7
ag10
ag7
ag10
ag10
ag10
ag10
ag10
ag16
ag10
ag10
ag10
ag10
ag10
ag10
ag19
ag73
ag4
ag10
ag10
ag10
ag10
ag10
ag10
ag10
ag10
ag10
ag10
ag10
ag10
ag10
ag10
ag10
ag10
ag10
ag10
ag10
ag10
ag10
ag10
ag16
ag10
asS'singleness'
p1310
(lp1311
g16
asS'sweetness'
p1312
(lp1313
g16
ag16
asS'possessed'
p1314
(lp1315
g10
ag4
asS'humble'
p1316
(lp1317
g10
ag10
asS'inherit'
p1318
(lp1319
g7
asS'ocean'
p1320
(lp1321
g16
ag10
ag16
asS'ragged'
p1322
(lp1323
g10
asS'fulness'
p1324
(lp1325
g10
asS'greatest'
p1326
(lp1327
g49
asS'incapable'
p1328
(lp1329
g16
asS'mother'
p1330
(lp1331
g16
ag16
asS'hearts'
p1332
(lp1333
g52
ag52
ag52
ag52
asS'the'
p1334
(lp1335
S'DT'
p1336
ag1336
ag1336
ag1336
ag1336
ag1336
ag1336
ag1336
ag1336
ag1336
ag1336
ag1336
ag1336
ag1336
ag1336
ag1336
ag1336
ag1336
ag1336
ag1336
ag1336
ag1336
ag1336
ag1336
ag1336
ag1336
ag1336
ag1336
ag1336
ag1336
ag1336
ag1336
ag1336
ag1336
ag1336
ag1336
ag1336
ag1336
ag1336
ag1336
ag1336
ag1336
ag1336
ag1336
ag1336
ag1336
ag1336
ag1336
ag1336
ag1336
ag1336
ag1336
ag1336
ag1336
ag1336
ag1336
ag1336
ag1336
ag1336
ag1336
ag1336
ag1336
ag1336
ag1336
ag1336
ag1336
ag1336
ag1336
ag1336
ag1336
ag1336
ag1336
ag1336
ag1336
ag1336
ag1336
ag1336
ag1336
ag1336
ag1336
ag1336
ag1336
ag1336
ag1336
ag1336
ag1336
ag1336
ag1336
ag1336
ag1336
ag1336
ag1336
ag1336
ag1336
ag1336
ag1336
ag1336
ag1336
ag1336
ag1336
ag1336
ag1336
ag1336
ag1336
ag1336
ag1336
ag1336
ag1336
ag1336
ag1336
ag1336
ag1336
ag1336
ag1336
ag1336
ag1336
ag1336
ag1336
ag1336
ag1336
ag1336
ag1336
ag1336
ag1336
ag1336
ag1336
ag1336
ag1336
ag1336
ag1336
ag1336
ag1336
ag1336
ag1336
ag1336
ag1336
ag1336
ag1336
ag1336
ag1336
ag1336
ag1336
ag1336
ag1336
ag1336
ag1336
ag1336
ag1336
ag1336
ag1336
ag1336
ag1336
ag1336
ag1336
ag1336
ag1336
ag1336
ag1336
ag1336
ag1336
ag1336
ag1336
ag1336
ag1336
ag1336
ag1336
ag1336
ag1336
ag1336
ag1336
ag1336
ag1336
ag1336
ag1336
ag1336
ag1336
ag1336
ag1336
ag1336
ag1336
ag1336
ag1336
ag1336
ag1336
ag1336
ag1336
ag1336
ag1336
ag1336
ag1336
ag1336
ag1336
ag1336
ag1336
ag1336
ag1336
ag1336
ag1336
ag1336
ag1336
ag1336
ag1336
ag1336
ag1336
ag1336
ag1336
ag1336
ag1336
ag1336
ag1336
ag1336
ag1336
ag1336
ag1336
ag1336
ag1336
ag1336
ag1336
ag1336
ag1336
ag1336
ag1336
ag1336
ag1336
ag1336
ag1336
ag1336
ag1336
ag1336
ag1336
ag1336
ag1336
ag1336
ag1336
ag1336
ag1336
ag1336
ag1336
ag1336
ag1336
ag1336
ag1336
ag1336
ag1336
ag1336
ag1336
ag1336
ag1336
ag1336
ag1336
ag1336
ag1336
ag1336
ag1336
ag1336
ag1336
ag1336
ag1336
ag1336
ag1336
ag1336
ag1336
ag1336
ag1336
ag1336
ag1336
ag1336
ag1336
ag1336
ag1336
ag1336
ag1336
ag1336
ag1336
ag1336
ag1336
ag1336
ag1336
ag1336
ag1336
ag1336
ag1336
ag1336
ag1336
ag1336
ag1336
ag1336
ag1336
ag1336
ag1336
ag1336
ag1336
ag1336
ag1336
ag1336
ag1336
ag1336
ag1336
ag1336
ag1336
ag1336
ag1336
ag1336
ag1336
ag1336
ag1336
ag1336
ag1336
ag1336
ag1336
ag1336
ag1336
ag1336
ag1336
ag1336
ag1336
ag1336
ag1336
ag1336
ag1336
ag1336
ag1336
ag1336
ag1336
ag1336
ag1336
ag1336
ag1336
ag1336
ag1336
ag1336
ag1336
ag1336
ag1336
ag1336
ag1336
ag1336
ag1336
ag1336
ag1336
ag1336
ag1336
ag1336
ag1336
ag1336
ag1336
ag1336
ag1336
ag1336
ag1336
ag1336
ag1336
ag1336
ag1336
ag1336
ag1336
ag1336
ag1336
ag1336
ag1336
ag1336
ag1336
ag1336
ag1336
ag1336
ag1336
ag1336
ag1336
ag1336
ag1336
ag1336
ag1336
ag1336
ag1336
ag1336
ag1336
ag1336
ag1336
ag1336
ag1336
ag1336
ag1336
ag1336
ag1336
ag1336
ag1336
ag1336
ag1336
ag1336
ag1336
ag1336
ag1336
ag1336
ag1336
ag1336
ag1336
ag1336
ag1336
ag1336
ag1336
ag1336
ag1336
ag1336
ag1336
ag1336
ag1336
ag1336
ag1336
ag1336
ag1336
ag1336
ag1336
ag1336
ag1336
ag1336
ag1336
ag1336
ag1336
ag1336
ag1336
ag1336
ag1336
ag1336
ag1336
ag1336
ag1336
asS'cure'
p1337
(lp1338
g7
ag16
ag16
ag16
ag16
asS'yours'
p1339
(lp1340
g33
ag52
ag52
ag52
ag52
asS'left'
p1341
(lp1342
g17
ag17
ag17
ag17
ag17
asS'reeks'
p1343
(lp1344
g16
asS'just'
p1345
(lp1346
S'RB'
p1347
ag1347
ag1347
ag1347
asS'wasteful'
p1348
(lp1349
g10
ag10
asS'yea'
p1350
(lp1351
g52
asS"poet's"
p1352
(lp1353
g10
ag10
asS'unfair'
p1354
(lp1355
g10
asS'repose'
p1356
(lp1357
g10
asS'verses'
p1358
(lp1359
g52
asS'maketh'
p1360
(lp1361
g33
asS'thanks'
p1362
(lp1363
g52
asS'swears'
p1364
(lp1365
g52
asS'prognosticate'
p1366
(lp1367
g16
asS'plight'
p1368
(lp1369
g16
asS'yet'
p1370
(lp1371
g33
ag33
ag33
ag33
ag33
ag33
ag33
ag33
ag33
ag33
ag33
ag33
ag33
ag33
ag33
ag33
ag33
ag33
ag33
ag33
ag33
ag33
ag33
ag33
ag33
ag33
ag33
ag33
ag33
ag33
ag33
ag33
ag33
ag33
ag33
ag33
ag33
ag33
ag33
ag33
ag33
ag33
ag1195
ag33
ag33
ag33
ag33
ag33
ag33
asS'succeeding'
p1372
(lp1373
g26
asS'vices'
p1374
(lp1375
g52
asS'adding'
p1376
(lp1377
S'VBG'
p1378
asS'dearer'
p1379
(lp1380
g16
ag381
asS'compeers'
p1381
(lp1382
g52
asS'had'
p1383
(lp1384
g17
ag17
ag17
ag17
ag17
ag17
ag17
ag17
ag17
ag17
ag17
asS'counted'
p1385
(lp1386
g4
asS'presagers'
p1387
(lp1388
g52
asS'alchemy'
p1389
(lp1390
g16
ag18
asS'belongs'
p1391
(lp1392
g52
ag52
asS'beloved'
p1393
(lp1394
g17
ag4
ag4
ag4
ag4
asS'prison'
p1395
(lp1396
g16
asS'hap'
p1397
(lp1398
g16
asS'pitiful'
p1399
(lp1400
g10
asS'save'
p1401
(lp1402
g7
ag7
ag16
ag16
ag10
ag7
ag16
ag16
asS'gave'
p1403
(lp1404
S'VBD'
p1405
ag1405
ag1405
ag1405
ag1405
asS"others'"
p1406
(lp1407
g16
ag10
ag10
ag7
ag10
asS'dignity'
p1408
(lp1409
g16
asS'spacious'
p1410
(lp1411
g10
asS'reviewest'
p1412
(lp1413
g19
asS'birth'
p1414
(lp1415
g16
ag16
ag16
ag16
ag16
asS'wanting'
p1416
(lp1417
g26
ag26
asS'shadow'
p1418
(lp1419
g16
ag10
ag16
ag7
ag16
ag16
ag16
asS'dreams'
p1420
(lp1421
g52
ag52
asS"picture's"
p1422
(lp1423
g16
asS'desire'
p1424
(lp1425
g19
ag16
ag16
ag16
ag16
ag16
ag16
ag16
ag16
ag16
ag16
asS'brought'
p1426
(lp1427
g4
ag4
ag17
asS"feed'st"
p1428
(lp1429
g19
asS'gift'
p1430
(lp1431
g16
ag16
ag16
ag16
ag16
asS'new-found'
p1432
(lp1433
g10
asS'vilest'
p1434
(lp1435
g16
asS'offices'
p1436
(lp1437
S'NNS'
p1438
asS'night'
p1439
(lp1440
S'NN'
p1441
ag1441
ag1441
ag1441
ag1441
ag1441
ag1441
ag1441
ag1441
ag1441
ag1441
ag1441
ag1441
ag1441
ag1441
ag1441
ag1441
ag1441
ag1441
ag1441
ag1441
ag1441
asS'hung'
p1442
(lp1443
g16
ag16
asS'antique'
p1444
(lp1445
g16
ag16
ag16
ag10
ag10
asS'right'
p1446
(lp1447
g10
ag33
ag10
ag16
ag10
ag33
ag16
ag33
ag33
ag33
asS'old'
p1448
(lp1449
S'JJ'
p1450
ag1450
ag1450
ag1450
ag1450
ag1450
ag1450
ag1450
ag1450
ag1450
ag1450
ag1450
ag1450
ag1450
ag1450
ag1450
ag1450
ag1450
ag1450
ag1450
ag1450
ag1450
asS'flatter'
p1451
(lp1452
g10
ag484
ag16
asS"war's"
p1453
(lp1454
g10
asS'deaf'
p1455
(lp1456
g52
asS'short-numbered'
p1457
(lp1458
g10
asS'dead'
p1459
(lp1460
g10
ag10
ag10
ag10
ag10
ag10
ag10
ag10
ag10
ag10
ag10
ag10
ag10
ag10
ag10
ag10
asS'born'
p1461
(lp1462
g4
ag4
ag16
ag4
ag4
ag4
ag4
asS'dear'
p1463
(lp1464
g10
ag16
ag10
ag10
ag19
ag10
ag10
ag10
ag16
ag10
ag10
ag10
ag10
ag10
ag19
ag10
ag10
ag10
ag10
ag16
ag10
asS'altered'
p1465
(lp1466
g10
ag17
asS'bore'
p1467
(lp1468
g19
ag73
asS'guess'
p1469
(lp1470
g16
ag19
asS'creep'
p1471
(lp1472
g19
asS'enemies'
p1473
(lp1474
g52
ag52
asS'for'
p1475
(lp1476
S'IN'
p1477
ag1477
ag1477
ag1477
ag1477
ag1477
ag1477
ag1477
ag1477
ag1477
ag1477
ag1477
ag1477
ag1477
ag1477
ag1477
ag1477
ag1477
ag1477
ag1477
ag1477
ag1477
ag1477
ag1477
ag1477
ag1477
ag1477
ag1477
ag1477
ag1477
ag1477
ag1477
ag1477
ag1477
ag1477
ag1477
ag1477
ag1477
ag1477
ag1477
ag1477
ag1477
ag1477
ag1477
ag1477
ag1477
ag1477
ag1477
ag1477
ag1477
ag1477
ag1477
ag1477
ag1477
ag1477
ag1477
ag1477
ag1477
ag1477
ag1477
ag1477
ag1477
ag1477
ag1477
ag1477
ag1477
ag1477
ag1477
ag1477
ag1477
ag1477
ag1477
ag1477
ag1477
ag1477
ag1477
ag1477
ag1477
ag1477
ag1477
ag1477
ag1477
ag1477
ag1477
ag1477
ag1477
ag1477
ag1477
ag1477
ag1477
ag1477
ag1477
ag1477
ag1477
ag1477
ag1477
ag1477
ag1477
ag1477
ag1477
ag1477
ag1477
ag1477
ag1477
ag1477
ag1477
ag1477
ag1477
ag1477
ag1477
ag1477
ag1477
ag1477
ag1477
ag1477
ag1477
ag1477
ag1477
ag1477
ag1477
ag1477
ag1477
ag1477
ag1477
ag1477
ag1477
ag1477
ag1477
ag1477
ag1477
ag1477
ag1477
ag1477
ag1477
ag1477
ag1477
ag1477
ag1477
ag1477
ag1477
ag1477
ag1477
ag1477
ag1477
ag1477
ag1477
ag1477
ag1477
ag1477
ag1477
ag1477
ag1477
ag1477
ag1477
ag1477
ag1477
ag1477
ag1477
ag1477
ag1477
ag1477
ag1477
ag1477
ag1477
ag1477
ag1477
ag1477
ag1477
asS"bosom's"
p1478
(lp1479
g16
ag52
asS'rehearse'
p1480
(lp1481
g16
ag7
ag16
ag7
asS'comments'
p1482
(lp1483
S'NNS'
p1484
ag1484
asS'foe'
p1485
(lp1486
g16
asS'denied'
p1487
(lp1488
g4
asS'bold'
p1489
(lp1490
g16
ag10
asS'burn'
p1491
(lp1492
g7
ag7
ag16
asS'divining'
p1493
(lp1494
g26
asS'shifting'
p1495
(lp1496
g26
asS'losing'
p1497
(lp1498
g26
ag26
ag26
asS'taker'
p1499
(lp1500
g16
asS'peep'
p1501
(lp1502
g7
asS'disdains'
p1503
(lp1504
g18
asS'shaken'
p1505
(lp1506
g4
ag4
asS'proceed'
p1507
(lp1508
g7
asS'theirs'
p1509
(lp1510
g789
ag52
asS'coral'
p1511
(lp1512
g16
asS'haply'
p1513
(lp1514
g16
ag7
ag7
asS'frailer'
p1515
(lp1516
g16
asS'o'
(lp1517
g16
ag16
ag16
ag16
ag10
ag16
ag7
ag16
ag19
ag10
ag18
ag10
ag18
ag7
ag16
ag16
ag10
ag18
ag73
ag19
ag7
ag19
ag73
ag10
ag10
ag16
ag73
ag19
ag16
ag17
ag16
ag16
ag10
ag16
ag10
ag33
ag19
ag16
ag932
ag16
ag4
ag16
ag73
ag7
ag73
ag16
ag10
ag73
asS'costs'
p1518
(lp1519
g52
asS'despair'
p1520
(lp1521
g7
ag16
asS'felt'
p1522
(lp1523
g17
asS'cherish'
p1524
(lp1525
g16
asS'commit'
p1526
(lp1527
g16
asS'lacked'
p1528
(lp1529
g4
ag17
asS'bath'
p1530
(lp1531
g16
ag16
ag16
ag16
asS'raised'
p1532
(lp1533
g4
asS'faint'
p1534
(lp1535
g16
asS'presence'
p1536
(lp1537
S'NN'
p1538
ag1538
asS'civil'
p1539
(lp1540
S'JJ'
p1541
asS'pays'
p1542
(lp1543
g18
ag18
asS'nought'
p1544
(lp1545
g16
ag4
ag16
asS'bound'
p1546
(lp1547
g16
ag16
asS'son'
p1548
(lp1549
g16
ag16
ag16
asS'down'
p1550
(lp1551
g448
ag448
ag448
ag448
asS'lies'
p1552
(lp1553
g18
ag18
ag18
ag52
ag18
ag18
ag18
ag52
ag18
ag18
ag52
ag18
asS'refined'
p1554
(lp1555
g4
asS"pour'st"
p1556
(lp1557
g18
asS'methods'
p1558
(lp1559
g52
asS'strangely'
p1560
(lp1561
g33
ag33
asS'despised'
p1562
(lp1563
g10
ag17
ag17
asS'jealousy'
p1564
(lp1565
g16
asS'sovereign'
p1566
(lp1567
g10
ag10
ag10
asS'fight'
p1568
(lp1569
g16
ag16
ag16
asS'virgin'
p1570
(lp1571
g10
asS'way'
p1572
(lp1573
S'NN'
p1574
ag1574
ag1574
ag1574
ag1574
ag1574
asS'call'
p1575
(lp1576
g16
ag16
ag7
ag7
ag19
ag7
ag7
ag16
ag7
ag19
asS'was'
p1577
(lp1578
g17
ag17
ag17
ag17
ag17
ag17
ag17
ag17
ag17
ag17
ag17
ag17
ag17
ag17
ag17
ag17
ag17
ag17
ag17
ag17
ag17
ag17
ag17
ag17
ag17
ag17
ag17
ag17
ag17
asS'war'
p1579
(lp1580
S'NN'
p1581
ag1581
ag1581
ag1581
ag1581
ag1581
asS'happy'
p1582
(lp1583
g10
ag10
ag10
ag10
ag10
ag10
ag10
ag10
ag10
ag10
ag10
asS'head'
p1584
(lp1585
g16
ag16
ag16
ag16
ag16
ag16
asS'faring'
p1586
(lp1587
g26
asS'form'
p1588
(lp1589
g7
ag16
ag16
ag16
ag16
ag16
ag16
ag16
ag16
ag16
ag16
asS'statute'
p1590
(lp1591
g16
asS'crown'
p1592
(lp1593
g19
asS'becoming'
p1594
(lp1595
S'VBG'
p1596
ag1596
asS'forgetful'
p1597
(lp1598
g10
asS'fore'
p1599
(lp1600
g19
asS'back'
p1601
(lp1602
g448
ag33
ag33
ag33
ag33
ag33
ag33
ag33
asS'heinous'
p1603
(lp1604
g10
asS'pricked'
p1605
(lp1606
g17
asS'heat'
p1607
(lp1608
g16
ag16
ag16
ag16
asS'hear'
p1609
(lp1610
g7
ag7
ag7
ag19
ag7
ag16
asS'odours'
p1611
(lp1612
g52
asS'learned'
p1613
(lp1614
g17
asS'astonished'
p1615
(lp1616
g17
asS'blindness'
p1617
(lp1618
g7
asS'removed'
p1619
(lp1620
g4
ag17
ag17
ag17
asS'true'
p1621
(lp1622
S'JJ'
p1623
ag1623
ag1623
ag1623
ag1623
ag1623
ag1623
ag1623
ag1623
ag1623
ag1623
ag1623
ag1623
ag1623
ag1623
ag1623
ag1623
ag1623
ag1623
ag1623
ag1623
ag1623
ag1623
ag1623
ag1623
ag1623
ag1623
ag1623
ag1623
ag1623
ag1623
ag1623
ag1623
ag1623
ag1623
ag1623
ag1623
asS'deepest'
p1624
(lp1625
g49
asS'absent'
p1626
(lp1627
g10
ag10
ag10
asS'lilies'
p1628
(lp1629
g52
asS'captive'
p1630
(lp1631
g10
asS'extremity'
p1632
(lp1633
g16
asS"for't"
p1634
(lp1635
g10
asS'bids'
p1636
(lp1637
g52
asS'until'
p1638
(lp1639
S'IN'
p1640
asS'crystal'
p1641
(lp1642
g10
asS'unfathered'
p1643
(lp1644
g10
ag4
asS'adore'
p1645
(lp1646
g73
asS'anew'
p1647
(lp1648
g33
ag10
ag17
asS'engraft'
p1649
(lp1650
g19
asS'bide'
p1651
(lp1652
g33
ag7
asS'latch'
p1653
(lp1654
g16
asS'trim'
p1655
(lp1656
g10
asS'disgrace'
p1657
(lp1658
g16
ag16
ag16
ag16
ag16
ag16
ag16
asS'ornaments'
p1659
(lp1660
g52
asS'fury'
p1661
(lp1662
g16
asS'sinful'
p1663
(lp1664
g10
ag10
ag10
ag10
asS'steep-up'
p1665
(lp1666
g10
asS"beauty's"
p1667
(lp1668
g17
ag10
ag16
ag16
ag16
ag10
ag10
ag10
ag16
ag16
ag16
ag10
ag16
ag18
ag10
ag10
ag10
ag16
asS'hungry'
p1669
(lp1670
g10
ag10
asS'huswife'
p1671
(lp1672
g16
asS'sometime'
p1673
(lp1674
g33
ag10
ag33
ag33
ag33
ag33
asS'subsist'
p1675
(lp1676
g7
asS'shines'
p1677
(lp1678
g52
ag52
asS'face'
p1679
(lp1680
g16
ag16
ag16
ag16
ag16
ag16
ag16
ag16
ag16
ag16
ag16
ag16
ag16
ag16
ag16
ag16
ag16
ag16
ag16
asS'injurious'
p1681
(lp1682
g10
ag10
asS'posting'
p1683
(lp1684
g16
asS'willingly'
p1685
(lp1686
g7
asS'looked'
p1687
(lp1688
g17
ag4
asS'dying'
p1689
(lp1690
g10
asS'no'
p1691
(lp1692
g1196
ag1196
ag1196
ag33
ag1196
ag1196
ag1196
ag1196
ag1196
ag1196
ag1196
ag1196
ag33
ag1196
ag1196
ag1196
ag1196
ag1196
ag1196
ag1196
ag1196
ag1196
ag1196
ag1196
ag1196
ag1196
ag1196
ag1196
ag1196
ag1196
ag1196
ag1196
ag1196
ag1196
ag1196
ag1196
ag1196
ag33
ag33
ag1196
ag1196
ag1196
ag1196
ag1196
ag1196
ag1196
ag1196
ag1196
ag1196
ag1196
ag1196
ag1196
ag1196
ag1196
ag1196
ag1196
ag1196
ag1196
ag1196
ag1196
ag1196
ag1196
ag33
ag1196
ag1196
ag1196
ag1196
ag1196
ag1196
ag1196
ag1196
ag1196
ag1196
ag1196
ag1196
ag1196
ag1196
ag1196
ag1196
asS'excel'
p1693
(lp1694
g52
asS"lov'st"
p1695
(lp1696
g16
ag16
ag381
ag16
ag19
ag16
asS'actor'
p1697
(lp1698
g16
asS'thriftless'
p1699
(lp1700
g16
asS'despising'
p1701
(lp1702
g26
asS'falsely'
p1703
(lp1704
g33
asS'papers'
p1705
(lp1706
g52
asS'tie'
p1707
(lp1708
g7
ag7
asS'vanished'
p1709
(lp1710
g10
ag4
asS'smell'
p1711
(lp1712
g16
ag19
ag16
ag19
asS'eternity'
p1713
(lp1714
g7
ag16
ag16
asS'picture'
p1715
(lp1716
g16
ag16
ag16
asS'intend'
p1717
(lp1718
g19
asS'phoenix'
p1719
(lp1720
g16
asS'pyramids'
p1721
(lp1722
g52
asS'dies'
p1723
(lp1724
g18
asS'welcome'
p1725
(lp1726
g10
ag10
asS'first-born'
p1727
(lp1728
g10
asS'present-absent'
p1729
(lp1730
g10
asS'journey'
p1731
(lp1732
g16
ag16
asS'reign'
p1733
(lp1734
g16
ag16
asS'rolling'
p1735
(lp1736
g26
asS'pierced'
p1737
(lp1738
g4
asS'seeing'
p1739
(lp1740
g26
ag26
ag16
ag26
ag26
asS'died'
p1741
(lp1742
g17
ag17
asS'wrackful'
p1743
(lp1744
g10
asS'to-day'
p1745
(lp1746
g10
ag10
ag10
asS'longer'
p1747
(lp1748
g484
ag484
ag484
ag381
ag484
ag381
asS'blushing'
p1749
(lp1750
g26
asS'daily'
p1751
(lp1752
g33
ag10
ag10
asS'cheater'
p1753
(lp1754
g16
asS'teeth'
p1755
(lp1756
g16
asS"dian's"
p1757
(lp1758
g16
asS'laws'
p1759
(lp1760
S'NNS'
p1761
asS'restored'
p1762
(lp1763
g4
asS'songs'
p1764
(lp1765
g52
asS'whoever'
p1766
(lp1767
S'WP'
p1768
asS'varying'
p1769
(lp1770
g16
asS"perceiv'st"
p1771
(lp1772
g16
asS'souls'
p1773
(lp1774
g52
ag52
asS'invent'
p1775
(lp1776
g16
ag16
asS'engrafted'
p1777
(lp1778
g17
asS'leads'
p1779
(lp1780
g18
ag18
asS'continual'
p1781
(lp1782
g10
asS'slandered'
p1783
(lp1784
g4
asS'idolatry'
p1785
(lp1786
g16
asS'abundant'
p1787
(lp1788
g10
asS'retention'
p1789
(lp1790
g16
asS'mounted'
p1791
(lp1792
g4
asS'praises'
p1793
(lp1794
g52
ag52
ag52
ag52
asS'father'
p1795
(lp1796
g10
ag16
asS'confounds'
p1797
(lp1798
g18
ag18
ag52
asS'vex'
p1799
(lp1800
g73
ag16
asS'charge'
p1801
(lp1802
g16
asS'praised'
p1803
(lp1804
g10
ag4
asS'suffered'
p1805
(lp1806
g17
asS'addeth'
p1807
(lp1808
g16
asS'furrows'
p1809
(lp1810
g18
asS'abundance'
p1811
(lp1812
g16
ag16
ag16
ag16
asS'strumpeted'
p1813
(lp1814
g17
asS'string'
p1815
(lp1816
g16
asS'advantage'
p1817
(lp1818
g16
ag16
ag16
asS'drudge'
p1819
(lp1820
g16
asS'fleece'
p1821
(lp1822
g16
asS'votary'
p1823
(lp1824
g16
asS'mourn'
p1825
(lp1826
g16
ag19
ag7
asS'advised'
p1827
(lp1828
g10
asS'word'
p1829
(lp1830
S'NN'
p1831
ag1831
asS'trouble'
p1832
(lp1833
S'NN'
p1834
asS'feeble'
p1835
(lp1836
g10
asS'cool'
p1837
(lp1838
g10
asS"soul's"
p1839
(lp1840
g16
ag16
asS'perceived'
p1841
(lp1842
g17
asS'clouds'
p1843
(lp1844
g52
ag16
ag7
ag52
asS'level'
p1845
(lp1846
g16
ag16
asS'did'
p1847
(lp1848
S'VBD'
p1849
ag1849
ag1849
ag1849
ag1849
ag1849
ag1849
ag1849
ag1849
ag1849
ag1849
ag1849
ag1849
ag1849
ag1849
ag1849
ag1849
ag1849
ag1849
ag1849
ag1849
ag1849
ag1849
ag1849
asS'die'
p1850
(lp1851
g7
ag10
ag7
ag16
ag7
ag73
ag16
ag7
ag7
ag7
ag10
ag16
asS'dig'
p1852
(lp1853
g10
asS'leave'
p1854
(lp1855
g19
ag19
ag7
ag7
ag7
ag19
ag7
ag7
ag7
ag7
asS'excellence'
p1856
(lp1857
g16
ag16
asS'burned'
p1858
(lp1859
g17
asS'quick'
p1860
(lp1861
g10
ag10
ag10
asS'prevent'
p1862
(lp1863
g7
asS'brave'
p1864
(lp1865
g10
ag7
ag16
asS'says'
p1866
(lp1867
S'VBZ'
p1868
ag1868
ag1868
ag1868
ag1868
asS'fearing'
p1869
(lp1870
g16
asS"offender's"
p1871
(lp1872
g10
asS'double-vantage'
p1873
(lp1874
g10
asS'sigh'
p1875
(lp1876
g19
asS'wherefore'
p1877
(lp1878
g33
ag16
ag17
ag52
asS'cost'
p1879
(lp1880
g16
ag16
asS'patient'
p1881
(lp1882
g16
asS'fear'
p1883
(lp1884
g16
ag16
ag16
ag16
ag16
ag7
ag16
asS'indigest'
p1885
(lp1886
g19
asS'hymn'
p1887
(lp1888
g16
asS"fleet'st"
p1889
(lp1890
g16
asS'curse'
p1891
(lp1892
g7
ag16
asS'appear'
p1893
(lp1894
g19
ag19
ag19
ag19
asS'assistance'
p1895
(lp1896
g16
asS'contracted'
p1897
(lp1898
g17
ag17
asS'favour'
p1899
(lp1900
g52
ag16
ag16
asS'pleased'
p1901
(lp1902
g4
asS'suspect'
p1903
(lp1904
g10
ag16
ag16
asS'goes'
p1905
(lp1906
S'VBZ'
p1907
asS'pine'
p1908
(lp1909
g16
ag16
ag7
asS'appeal'
p1910
(lp1911
g16
asS'filled'
p1912
(lp1913
g4
ag17
ag17
asS"april's"
p1914
(lp1915
g10
asS'prescriptions'
p1916
(lp1917
g52
asS'wail'
p1918
(lp1919
g7
ag10
asS'honour'
p1920
(lp1921
g16
ag16
ag19
ag10
aS'PRP$'
p1922
ag16
ag52
asS'clerk'
p1923
(lp1924
g16
asS'water'
p1925
(lp1926
S'NN'
p1927
ag1927
ag1927
ag1927
ag1927
asS'entertain'
p1928
(lp1929
g7
asS'alone'
p1930
(lp1931
g33
ag33
ag33
ag33
ag33
ag33
ag10
ag33
ag33
ag19
ag33
ag33
ag33
ag16
ag33
ag33
ag33
ag33
ag33
asS'appears'
p1932
(lp1933
S'VBZ'
p1934
asS'change'
p1935
(lp1936
g16
ag7
ag7
ag16
ag7
ag16
ag16
ag16
ag16
ag16
ag7
ag7
asS'blunter'
p1937
(lp1938
g33
asS'boy'
p1939
(lp1940
g16
ag16
asS'boast'
p1941
(lp1942
g73
ag7
ag16
ag19
ag73
asS'root'
p1943
(lp1944
g19
ag16
asS'wherever'
p1945
(lp1946
g16
asS'bow'
p1947
(lp1948
g16
ag16
asS'spheres'
p1949
(lp1950
g52
asS'shook'
p1951
(lp1952
g17
asS'recounting'
p1953
(lp1954
g26
asS'stained'
p1955
(lp1956
g4
asS'love'
p1957
(lp1958
g16
ag7
ag16
ag16
ag73
ag16
ag16
ag16
ag16
ag16
ag16
ag17
ag16
ag16
ag16
ag16
ag7
ag16
ag16
ag16
ag7
ag16
ag16
ag16
ag16
ag16
ag19
ag16
ag16
ag16
ag16
ag16
ag16
ag7
ag16
ag16
ag16
ag7
ag16
ag7
ag19
ag16
ag16
ag16
ag16
ag16
ag19
ag16
ag7
ag16
ag16
ag16
ag16
ag19
ag7
ag16
ag16
ag73
ag7
ag16
ag16
ag16
ag16
ag16
ag16
ag16
ag19
ag7
ag7
ag19
ag16
ag16
ag7
ag7
ag7
ag73
ag7
ag16
ag16
ag16
ag7
ag16
ag16
ag7
ag7
ag16
ag16
ag16
ag7
ag16
ag16
ag19
ag16
ag16
ag16
ag17
ag16
ag16
ag16
ag10
ag7
ag16
ag16
ag16
ag16
ag16
ag16
ag16
ag16
ag16
ag7
ag19
ag16
ag7
ag7
ag16
ag16
ag16
ag16
ag16
ag16
ag16
ag7
ag19
ag16
ag7
ag19
ag7
ag16
ag16
ag16
ag7
ag16
ag16
ag16
ag7
ag7
ag7
ag16
ag16
ag19
ag16
ag16
ag16
ag7
ag16
ag19
ag19
ag7
ag19
ag16
ag16
ag16
ag16
ag16
ag16
ag7
ag16
ag16
ag16
ag7
asS'humour'
p1959
(lp1960
g16
ag16
asS'tempteth'
p1961
(lp1962
g16
asS'bloody'
p1963
(lp1964
g16
ag10
ag10
asS'withal'
p1965
(lp1966
g743
asS'betraying'
p1967
(lp1968
g26
asS'surmount'
p1969
(lp1970
g16
asS'swallowed'
p1971
(lp1972
g10
asS"suff'ring"
p1973
(lp1974
g26
asS"o'erworn"
p1975
(lp1976
g17
asS'voices'
p1977
(lp1978
g52
asS'wealth'
p1979
(lp1980
g16
ag16
ag16
ag16
ag16
ag16
asS'prove'
p1981
(lp1982
g16
ag52
ag73
ag19
ag16
ag16
ag7
ag7
ag19
ag19
ag7
ag19
asS'sake'
p1983
(lp1984
g16
ag16
ag16
ag16
ag16
ag16
ag16
ag16
asS'confounded'
p1985
(lp1986
g17
asS'angry'
p1987
(lp1988
g16
asS'give'
p1989
(lp1990
g7
ag19
ag7
ag7
ag7
ag10
ag19
ag7
ag10
ag7
ag7
ag7
ag19
ag19
ag7
ag7
ag19
ag7
ag7
ag19
ag10
ag7
ag7
ag19
ag7
ag10
ag7
asS'only'
p1991
(lp1992
g33
ag33
ag33
ag33
ag33
ag33
asS"batt'ring"
p1993
(lp1994
g26
asS'wrongs'
p1995
(lp1996
g52
ag52
asS'live'
p1997
(lp1998
g19
ag10
ag7
ag19
ag7
ag7
ag7
ag19
ag10
ag10
ag10
ag10
ag19
ag19
ag19
ag7
ag7
ag7
ag7
ag10
ag19
ag7
ag7
ag10
ag7
ag10
ag10
ag19
ag10
asS'wood'
p1999
(lp2000
g16
ag16
asS'prey'
p2001
(lp2002
g16
ag16
asS'memory'
p2003
(lp2004
g16
ag16
ag16
ag16
ag16
ag16
ag16
ag16
asS'scope'
p2005
(lp2006
g16
ag16
ag16
ag16
ag16
asS'loving'
p2007
(lp2008
g16
ag26
ag10
ag10
ag26
ag10
ag10
ag26
ag26
asS"love's"
p2009
(lp2010
g10
ag16
ag10
ag16
ag16
ag7
ag16
ag19
ag10
ag10
ag10
ag10
ag10
ag10
ag10
ag10
ag10
ag16
ag19
ag381
ag7
ag10
ag16
ag16
asS'fierce'
p2011
(lp2012
g10
ag10
asS'riot'
p2013
(lp2014
g16
asS'sessions'
p2015
(lp2016
g52
asS'towers'
p2017
(lp2018
g52
asS'neglected'
p2019
(lp2020
g10
asS'acceptable'
p2021
(lp2022
g10
asS"strength's"
p2023
(lp2024
g10
asS'drown'
p2025
(lp2026
g448
asS'everywhere'
p2027
(lp2028
g33
ag33
asS'virtue'
p2029
(lp2030
g16
ag16
ag16
ag10
ag16
ag16
ag16
asS'robe'
p2031
(lp2032
g16
asS'epitaph'
p2033
(lp2034
g16
asS'fly'
p2035
(lp2036
g7
asS'impair'
p2037
(lp2038
g16
asS'sheds'
p2039
(lp2040
g52
asS'car'
p2041
(lp2042
S'NN'
p2043
asS'soul'
p2044
(lp2045
g16
ag16
ag16
ag16
ag16
ag16
ag16
ag16
ag17
ag10
asS'purge'
p2046
(lp2047
g19
asS'hardest'
p2048
(lp2049
g49
asS'sour'
p2050
(lp2051
g10
ag16
asS'can'
p2052
(lp2053
S'MD'
p2054
ag2054
ag2054
ag2054
ag2054
ag2054
ag2054
ag2054
ag2054
ag2054
ag2054
ag2054
ag2054
ag2054
ag2054
ag2054
ag2054
ag2054
ag2054
ag2054
ag2054
ag2054
ag2054
ag2054
ag2054
ag2054
ag2054
ag2054
ag2054
ag2054
ag2054
ag2054
ag2054
ag2054
ag2054
ag2054
ag2054
ag2054
ag2054
ag2054
ag2054
ag2054
ag2054
ag2054
asS'growing'
p2055
(lp2056
g26
ag26
ag26
asS'making'
p2057
(lp2058
g26
ag26
ag16
ag26
ag26
ag26
ag26
ag26
ag26
ag16
ag26
ag26
asS"prevent'st"
p2059
(lp2060
g73
asS'deceased'
p2061
(lp2062
g4
ag17
asS'breeds'
p2063
(lp2064
g52
asS'heart'
p2065
(lp2066
S'NN'
p2067
ag2067
ag2067
ag2067
ag2067
ag2067
ag2067
ag2067
ag2067
ag2067
ag2067
ag2067
ag2067
ag2067
ag2067
ag2067
ag2067
ag2067
ag2067
ag2067
ag2067
ag2067
ag2067
ag2067
ag2067
ag2067
ag2067
ag2067
ag2067
ag2067
ag2067
ag2067
ag2067
ag2067
ag2067
ag2067
ag2067
ag2067
ag2067
ag2067
ag2067
ag2067
ag2067
ag2067
ag2067
ag2067
ag2067
ag2067
ag2067
ag2067
asS'dedicated'
p2068
(lp2069
g10
asS"servant's"
p2070
(lp2071
g10
asS'want'
p2072
(lp2073
g19
ag19
ag19
ag16
asS'figure'
p2074
(lp2075
g16
asS'predict'
p2076
(lp2077
g16
asS'sense'
p2078
(lp2079
g16
ag16
ag16
ag16
asS'distillation'
p2080
(lp2081
g16
asS'heard'
p2082
(lp2083
g4
asS'critic'
p2084
(lp2085
g7
asS'purity'
p2086
(lp2087
g16
asS'hides'
p2088
(lp2089
g18
asS"mak'st"
p2090
(lp2091
g16
ag16
asS'provoke'
p2092
(lp2093
g17
asS'stole'
p2094
(lp2095
g17
asS'bereft'
p2096
(lp2097
g4
asS'churls'
p2098
(lp2099
g19
asS'winter'
p2100
(lp2101
g16
ag16
ag16
ag16
ag381
asS'dress'
p2102
(lp2103
g7
asS'divided'
p2104
(lp2105
g17
asS'undivided'
p2106
(lp2107
g10
asS'cloak'
p2108
(lp2109
g16
asS'trophies'
p2110
(lp2111
g52
asS"lour'st"
p2112
(lp2113
g16
asS'write'
p2114
(lp2115
g7
ag10
ag7
ag16
ag33
ag7
ag33
ag7
ag7
ag7
asS'till'
p2116
(lp2117
g10
ag7
ag16
ag16
ag10
ag16
ag7
ag19
ag7
ag16
ag7
ag7
ag7
ag7
asS'sword'
p2118
(lp2119
g16
asS'husbandry'
p2120
(lp2121
g16
ag16
asS'sworn'
p2122
(lp2123
g4
ag4
ag4
asS"eye's"
p2124
(lp2125
g16
ag16
ag7
asS'map'
p2126
(lp2127
g16
ag16
asS'mar'
p2128
(lp2129
g7
asS'where-through'
p2130
(lp2131
g73
asS'all-tyrant'
p2132
(lp2133
g10
asS'may'
p2134
(lp2135
S'MD'
p2136
ag2136
ag2136
ag2136
ag2136
ag2136
ag2136
ag2136
ag2136
ag2136
ag2136
ag2136
ag2136
ag2136
ag2136
ag2136
ag2136
ag2136
ag2136
ag2136
ag2136
ag2136
ag2136
ag2136
ag2136
ag2136
ag2136
asS'fed'
p2137
(lp2138
g4
asS'spot'
p2139
(lp2140
g17
asS'siren'
p2141
(lp2142
g10
asS'mad'
p2143
(lp2144
g16
ag16
ag16
ag10
ag10
ag10
asS'date'
p2145
(lp2146
S'NN'
p2147
ag2147
ag2147
ag2147
ag2147
asS'end'
p2148
(lp2149
g16
ag16
ag16
ag16
ag16
ag10
ag16
ag16
ag16
ag16
asS'hateth'
p2150
(lp2151
g18
asS'flourish'
p2152
(lp2153
g10
asS'grow'
p2154
(lp2155
g7
ag16
ag16
ag7
ag16
ag10
ag19
ag7
asS'man'
p2156
(lp2157
S'NN'
p2158
ag2158
ag2158
ag2158
ag2158
asS'temperate'
p2159
(lp2160
g10
asS'remember'
p2161
(lp2162
g7
ag7
asS'liquid'
p2163
(lp2164
g10
asS'candles'
p2165
(lp2166
g52
asS'rather'
p2167
(lp2168
S'RB'
p2169
asS'so'
p2170
(lp2171
g33
ag33
ag33
ag33
ag33
ag33
ag33
ag33
ag33
ag73
ag33
ag33
ag33
ag33
ag33
ag33
ag33
ag33
ag33
ag33
ag33
ag33
ag33
ag73
ag33
ag33
ag73
ag33
ag33
ag33
ag73
ag73
ag33
ag33
ag33
ag73
ag33
ag33
ag73
ag33
ag33
ag33
ag33
ag33
ag33
ag33
ag33
ag33
ag73
ag33
ag33
ag33
ag33
ag33
ag33
ag33
ag33
ag33
ag33
ag33
ag33
ag33
ag33
ag33
ag33
ag73
ag33
ag33
ag73
ag33
ag33
ag33
ag33
ag33
ag33
ag33
ag33
ag73
ag33
ag33
ag33
ag33
ag33
ag33
ag33
ag33
ag33
ag73
ag33
ag33
ag33
ag33
ag33
ag33
ag33
ag33
ag33
ag33
ag33
ag33
ag33
ag33
ag33
ag33
ag33
ag33
ag33
ag33
ag33
ag33
ag33
ag33
ag33
ag33
ag33
ag33
ag73
ag33
ag33
ag33
ag73
ag33
ag33
ag73
ag73
ag33
ag33
ag73
ag33
ag33
ag33
ag33
ag33
ag33
ag33
ag33
ag33
ag33
ag33
ag33
ag33
ag33
ag33
ag33
ag33
asS'silence'
p2172
(lp2173
g16
ag16
ag7
asS'deceive'
p2174
(lp2175
g10
ag10
asS'thorns'
p2176
(lp2177
g52
ag52
asS'tall'
p2178
(lp2179
g10
asS'increase'
p2180
(lp2181
g7
ag7
ag16
ag16
asS'forced'
p2182
(lp2183
g4
asS'serving'
p2184
(lp2185
g26
ag26
asS'receivest'
p2186
(lp2187
g16
asS'indeed'
p2188
(lp2189
S'RB'
p2190
asS'forfeit'
p2191
(lp2192
g16
ag16
asS'wishing'
p2193
(lp2194
g26
asS'years'
p2195
(lp2196
S'NNS'
p2197
ag2197
asS'course'
p2198
(lp2199
S'NN'
p2200
ag2200
ag2200
asS'pitch'
p2201
(lp2202
g16
ag16
asS'cold'
p2203
(lp2204
g10
ag10
ag16
ag10
ag16
ag19
ag10
asS'still'
p2205
(lp2206
S'RB'
p2207
ag2207
ag2207
ag2207
ag2207
ag2207
ag2207
ag2207
ag2207
ag2207
ag2207
ag2207
ag2207
ag2207
ag2207
ag2207
ag2207
ag2207
ag2207
ag2207
ag2207
ag2207
ag2207
ag2207
ag2207
ag2207
ag2207
ag2207
ag2207
ag2207
ag2207
ag2207
ag2207
ag2207
ag2207
ag2207
ag2207
ag2207
ag2207
asS'birds'
p2208
(lp2209
g52
ag52
ag52
asS'trifle'
p2210
(lp2211
g16
asS'limbs'
p2212
(lp2213
g52
ag52
asS'derive'
p2214
(lp2215
g19
asS'thank'
p2216
(lp2217
g7
asS'acknowledge'
p2218
(lp2219
g16
asS'muses'
p2220
(lp2221
g52
asS'chips'
p2222
(lp2223
S'NNS'
p2224
asS'inferior'
p2225
(lp2226
g16
asS'curls'
p2227
(lp2228
g16
asS'maid'
p2229
(lp2230
g16
asS'tillage'
p2231
(lp2232
g16
asS"play'st"
p2233
(lp2234
g16
asS'policy'
p2235
(lp2236
S'NN'
p2237
ag2237
asS"stol'n"
p2238
(lp2239
g16
ag4
asS'main'
p2240
(lp2241
S'JJ'
p2242
ag2242
ag2242
asS'into'
p2243
(lp2244
S'IN'
p2245
ag2245
ag2245
ag2245
ag2245
asS'correspondence'
p2246
(lp2247
g16
asS'closure'
p2248
(lp2249
g16
asS'truest'
p2250
(lp2251
g16
asS'equipage'
p2252
(lp2253
g16
asS'thereby'
p2254
(lp2255
g16
ag16
asS'sooner'
p2256
(lp2257
g16
ag16
asS'delighted'
p2258
(lp2259
g17
asS'records'
p2260
(lp2261
g52
asS'half'
p2262
(lp2263
g1196
ag743
ag16
asS'not'
p2264
(lp2265
S'RB'
p2266
ag2266
ag2266
ag2266
ag2266
ag2266
ag2266
ag2266
ag2266
ag2266
ag2266
ag2266
ag2266
ag2266
ag2266
ag2266
ag2266
ag2266
ag2266
ag2266
ag2266
ag2266
ag2266
ag2266
ag2266
ag2266
ag2266
ag2266
ag2266
ag2266
ag2266
ag2266
ag2266
ag2266
ag2266
ag2266
ag2266
ag2266
ag2266
ag2266
ag2266
ag2266
ag2266
ag2266
ag2266
ag2266
ag2266
ag2266
ag2266
ag2266
ag2266
ag2266
ag2266
ag2266
ag2266
ag2266
ag2266
ag2266
ag2266
ag2266
ag2266
ag2266
ag2266
ag2266
ag2266
ag2266
ag2266
ag2266
ag2266
ag2266
ag2266
ag2266
ag2266
ag2266
ag2266
ag2266
ag2266
ag2266
ag2266
ag2266
ag2266
ag2266
ag2266
ag2266
ag2266
ag2266
ag2266
ag2266
ag2266
ag2266
ag2266
ag2266
ag2266
ag2266
ag2266
ag2266
ag2266
ag2266
ag2266
ag2266
ag2266
ag2266
ag2266
ag2266
ag2266
ag2266
ag2266
ag2266
ag2266
ag2266
ag2266
ag2266
ag2266
ag2266
ag2266
ag2266
ag2266
ag2266
ag2266
ag2266
ag2266
ag2266
ag2266
ag2266
ag2266
ag2266
ag2266
ag2266
ag2266
ag2266
ag2266
ag2266
ag2266
ag2266
ag2266
ag2266
ag2266
ag2266
ag2266
ag2266
ag2266
ag2266
ag2266
ag2266
ag2266
ag2266
ag2266
ag2266
ag2266
ag2266
ag2266
ag2266
ag2266
ag2266
ag2266
ag2266
ag2266
ag2266
ag2266
ag2266
ag2266
ag2266
ag2266
ag2266
asS'now'
p2267
(lp2268
S'RB'
p2269
ag2269
ag2269
ag2269
ag2269
ag2269
ag2269
ag2269
ag2269
ag2269
ag2269
ag2269
ag2269
ag2269
ag2269
ag2269
ag2269
ag2269
ag2269
ag2269
ag2269
ag2269
ag2269
ag2269
ag2269
ag2269
ag2269
ag2269
ag2269
ag2269
ag2269
ag2269
ag2269
ag2269
ag2269
ag2269
ag2269
ag2269
ag2269
ag2269
ag2269
ag2269
ag2269
ag2269
ag2269
asS'twilight'
p2270
(lp2271
g16
asS'nor'
p2272
(lp2273
S'CC'
p2274
ag2274
ag2274
ag2274
ag2274
ag2274
ag2274
ag2274
ag2274
ag2274
ag2274
ag2274
ag2274
ag2274
ag2274
ag2274
ag2274
ag2274
ag2274
ag2274
ag2274
ag2274
ag2274
ag2274
ag2274
ag2274
ag2274
ag2274
ag2274
ag2274
ag2274
ag2274
ag2274
ag2274
ag2274
ag2274
ag2274
ag2274
ag2274
ag2274
ag2274
ag2274
ag2274
ag2274
ag2274
ag2274
ag2274
ag2274
ag2274
ag2274
asS'wont'
p2275
(lp2276
g10
asS'term'
p2277
(lp2278
S'NN'
p2279
asS'name'
p2280
(lp2281
g16
ag16
ag10
ag16
ag16
ag16
ag16
ag16
ag16
ag16
ag16
ag16
ag16
ag16
ag16
ag16
ag16
asS'servant'
p2282
(lp2283
g16
asS'uncertain'
p2284
(lp2285
g10
asS'drop'
p2286
(lp2287
g7
asS'breach'
p2288
(lp2289
g19
asS'veins'
p2290
(lp2291
g52
asS'orphans'
p2292
(lp2293
g52
asS'surfeit'
p2294
(lp2295
g10
asS"another's"
p2296
(lp2297
g16
ag16
ag16
asS'receipt'
p2298
(lp2299
g16
asS'richly'
p2300
(lp2301
g33
asS'fever'
p2302
(lp2303
g16
ag16
asS'farewell'
p2304
(lp2305
g16
asS'seeting'
p2306
(lp2307
g26
asS'year'
p2308
(lp2309
S'NN'
p2310
ag2310
ag2310
ag2310
ag2310
asS'hymns'
p2311
(lp2312
g19
ag16
asS'living'
p2313
(lp2314
g16
ag26
ag16
ag16
ag16
ag16
ag26
asS'shown'
p2315
(lp2316
S'VBN'
p2317
ag2317
asS'followed'
p2318
(lp2319
g17
asS'mouths'
p2320
(lp2321
g52
asS'space'
p2322
(lp2323
S'NN'
p2324
asS'profit'
p2325
(lp2326
g7
asS'confine'
p2327
(lp2328
g16
asS'abide'
p2329
(lp2330
g19
ag19
asS'looking'
p2331
(lp2332
S'VBG'
p2333
ag2333
ag2333
asS'boundless'
p2334
(lp2335
g10
asS'grecian'
p2336
(lp2337
g10
asS'receiving'
p2338
(lp2339
g26
asS'correct'
p2340
(lp2341
g7
asS'shows'
p2342
(lp2343
g18
ag18
ag52
ag18
ag18
ag52
asS'worthiness'
p2344
(lp2345
g10
asS'siege'
p2346
(lp2347
g16
asS'cars'
p2348
(lp2349
S'NNS'
p2350
asS'sweet-seasoned'
p2351
(lp2352
g10
asS'quite'
p2353
(lp2354
g33
ag33
ag16
ag33
ag33
asS'rebel'
p2355
(lp2356
g10
asS'plea'
p2357
(lp2358
g16
ag16
ag16
asS"feel'st"
p2359
(lp2360
g17
asS'care'
p2361
(lp2362
g7
ag16
ag16
ag16
ag16
ag16
asS'advance'
p2363
(lp2364
g16
asS"age's"
p2365
(lp2366
g7
ag10
asS'embassage'
p2367
(lp2368
g16
asS'contented'
p2369
(lp2370
g4
ag4
ag4
asS"wand'rest"
p2371
(lp2372
g49
asS'honest'
p2373
(lp2374
g49
asS'motion'
p2375
(lp2376
g16
ag16
ag16
ag16
ag16
asS'thing'
p2377
(lp2378
S'NN'
p2379
ag2379
ag2379
ag2379
ag2379
ag2379
ag2379
ag2379
ag2379
ag2379
ag2379
ag2379
asS'thine'
p2380
(lp2381
g7
ag10
ag10
ag16
ag10
ag10
ag16
ag7
ag16
ag16
ag16
ag16
ag16
ag10
ag10
ag16
ag18
ag10
ag16
ag16
ag10
ag16
ag10
ag10
ag16
ag16
ag10
ag73
ag7
ag10
ag16
ag16
ag19
ag10
ag16
ag10
ag16
ag10
ag16
ag10
ag16
ag16
ag10
ag10
asS'place'
p2382
(lp2383
g16
ag16
ag16
ag16
ag16
ag16
ag16
ag19
ag16
ag16
asS'recompense'
p2384
(lp2385
g16
asS'sufferance'
p2386
(lp2387
g7
asS'widow'
p2388
(lp2389
g16
ag16
asS'warning'
p2390
(lp2391
g16
asS'think'
p2392
(lp2393
g19
ag19
ag19
ag7
ag16
ag19
ag7
ag19
ag19
ag19
ag19
ag7
ag19
ag7
ag7
asS'frequent'
p2394
(lp2395
g4
asS'first'
p2396
(lp2397
g33
ag10
ag33
ag10
ag10
ag33
ag10
ag10
ag10
ag10
ag10
ag10
asS'blind'
p2398
(lp2399
g16
ag10
ag10
ag73
ag73
ag33
asS'mayst'
p2400
(lp2401
g16
ag16
ag16
ag16
ag16
ag16
ag16
ag16
ag52
ag16
ag16
ag52
asS'waves'
p2402
(lp2403
g52
asS'teachest'
p2404
(lp2405
g7
asS'nativity'
p2406
(lp2407
g16
asS'consecrate'
p2408
(lp2409
g16
asS'long'
p2410
(lp2411
g33
ag33
ag33
ag33
ag10
ag10
ag33
ag33
ag33
ag33
ag33
asS'directly'
p2412
(lp2413
S'RB'
p2414
asS'habitation'
p2415
(lp2416
g16
asS'carry'
p2417
(lp2418
g7
asS'ill-used'
p2419
(lp2420
g10
asS'sounds'
p2421
(lp2422
g52
ag18
asS'tame'
p2423
(lp2424
g16
asS'open'
p2425
(lp2426
g10
ag10
asS'affords'
p2427
(lp2428
g52
ag52
asS'millions'
p2429
(lp2430
S'NNS'
p2431
asS'interchange'
p2432
(lp2433
g16
asS'little'
p2434
(lp2435
g10
ag10
asS'checked'
p2436
(lp2437
g4
ag4
asS'silent'
p2438
(lp2439
g10
ag10
asS'breed'
p2440
(lp2441
g7
ag4
asS'fiery'
p2442
(lp2443
g16
asS'bounty'
p2444
(lp2445
g16
ag16
asS'white'
p2446
(lp2447
S'JJ'
p2448
ag2448
ag2448
ag2448
ag2448
asS"tiger's"
p2449
(lp2450
g16
asS'speaking'
p2451
(lp2452
g16
ag16
ag16
ag26
asS'gives'
p2453
(lp2454
S'VBZ'
p2455
ag2455
ag2455
ag2455
ag2455
ag2455
ag2455
ag2455
asS'gaudy'
p2456
(lp2457
g16
asS'eyes'
p2458
(lp2459
g52
ag52
ag52
ag52
ag52
ag52
ag52
ag52
ag52
ag52
ag52
ag52
ag52
ag52
ag7
ag52
ag7
ag52
ag52
ag52
ag52
ag52
ag52
ag52
ag52
ag52
ag52
ag18
ag52
ag52
ag52
ag52
ag52
ag52
ag52
ag52
ag52
ag52
ag52
ag52
ag52
ag52
ag52
ag52
ag52
ag52
ag18
ag52
ag52
ag52
ag52
ag52
asS'pomp'
p2460
(lp2461
g16
asS'blazon'
p2462
(lp2463
g16
asS'that'
p2464
(lp2465
g1196
ag73
ag380
ag380
ag73
ag73
ag380
ag380
ag380
ag380
ag73
ag1196
ag73
ag380
ag1196
ag380
ag73
ag73
ag73
ag1196
ag73
ag73
ag380
ag73
ag73
ag73
ag380
ag380
ag73
ag380
ag73
ag73
ag1196
ag1196
ag73
ag73
ag73
ag1196
ag73
ag1196
ag73
ag73
ag1196
ag380
ag73
ag380
ag1196
ag380
ag73
ag73
ag73
ag1196
ag1196
ag73
ag73
ag73
ag1196
ag73
ag1196
ag73
ag380
ag73
ag73
ag73
ag73
ag380
ag73
ag380
ag380
ag1196
ag1196
ag73
ag73
ag73
ag73
ag380
ag73
ag73
ag73
ag1196
ag73
ag73
ag1196
ag1196
ag1196
ag73
ag1196
ag1196
ag1196
ag1196
ag73
ag73
ag380
ag1196
ag1196
ag1196
ag1196
ag380
ag73
ag1196
ag1196
ag1196
ag73
ag73
ag380
ag1196
ag73
ag380
ag73
ag1196
ag73
ag73
ag1196
ag380
ag380
ag380
ag73
ag73
ag73
ag1196
ag1196
ag73
ag1196
ag73
ag73
ag73
ag380
ag380
ag73
ag380
ag73
ag380
ag73
ag380
ag73
ag73
ag380
ag1196
ag1196
ag380
ag380
ag1196
ag1196
ag1196
ag1196
ag73
ag1196
ag73
ag380
ag380
ag1196
ag73
ag1196
ag73
ag1196
ag73
ag380
ag73
ag1196
ag73
ag380
ag73
ag73
ag1196
ag73
ag73
ag73
ag380
ag1196
ag73
ag380
ag1196
ag73
ag1196
ag380
ag1196
ag1196
ag1196
ag73
ag1196
ag73
ag380
ag380
ag1196
ag73
ag73
ag380
ag73
ag380
ag73
ag380
ag380
ag73
ag1196
ag73
ag73
ag73
ag73
ag73
ag73
ag73
ag73
ag1196
ag73
ag73
ag380
ag73
ag73
ag380
ag73
ag73
ag380
ag73
ag73
ag73
ag73
ag73
ag73
ag73
ag73
ag73
ag380
ag73
ag1196
ag380
ag73
ag73
ag73
ag73
ag380
ag73
ag73
ag73
ag1196
ag380
ag73
ag73
ag1196
ag73
ag73
ag380
ag73
ag380
ag73
ag73
ag73
ag73
ag1196
ag380
ag380
ag73
ag380
ag73
ag73
ag73
ag380
ag73
ag380
ag380
ag73
ag73
ag380
ag1196
ag380
ag73
ag73
ag1196
ag380
ag380
ag73
ag1196
ag1196
ag73
ag73
ag380
ag73
ag73
ag73
ag73
ag73
ag73
ag73
ag73
ag73
ag380
ag73
ag380
ag380
ag73
ag1196
ag1196
ag73
ag1196
ag380
ag380
ag73
ag73
ag73
ag380
ag1196
ag380
ag1196
ag1196
ag73
ag73
ag1196
ag1196
ag73
ag73
ag380
ag380
ag73
ag73
ag73
ag73
ag73
ag1196
ag380
ag73
ag1196
asS'brains'
p2466
(lp2467
g52
asS"men's"
p2468
(lp2469
g19
ag10
ag10
ag10
ag16
ag18
asS'proving'
p2470
(lp2471
g26
asS'hurt'
p2472
(lp2473
g7
asS'alas'
p2474
(lp2475
g10
ag52
asS'eyed'
p2476
(lp2477
g17
asS'girded'
p2478
(lp2479
g17
asS'reproving'
p2480
(lp2481
g26
asS'flowers'
p2482
(lp2483
g52
ag52
ag52
ag52
ag52
ag52
ag52
asS'than'
p2484
(lp2485
S'IN'
p2486
ag2486
ag2486
ag2486
ag2486
ag2486
ag2486
ag2486
ag2486
ag2486
ag2486
ag2486
ag2486
ag2486
ag2486
ag2486
ag2486
ag2486
ag2486
ag2486
ag2486
ag2486
ag2486
ag2486
ag2486
ag2486
ag2486
ag2486
ag2486
ag2486
ag2486
ag2486
ag2486
ag2486
ag2486
ag2486
ag2486
ag2486
ag2486
ag2486
ag2486
ag2486
ag2486
ag2486
ag2486
ag2486
ag2486
ag2486
asS"stick'st"
p2487
(lp2488
g18
asS'wide'
p2489
(lp2490
S'JJ'
p2491
ag2491
ag2491
ag2491
ag2491
ag2491
ag2491
asS'wert'
p2492
(lp2493
g16
ag16
ag10
asS'require'
p2494
(lp2495
g19
asS'folly'
p2496
(lp2497
g33
ag33
asS'transferred'
p2498
(lp2499
g17
asS'were'
p2500
(lp2501
S'VBD'
p2502
ag2502
ag2502
ag2502
ag2502
ag2502
ag2502
ag2502
ag2502
ag2502
ag2502
ag2502
ag2502
ag2502
ag2502
ag2502
ag2502
ag2502
ag2502
ag2502
ag2502
ag2502
ag2502
ag2502
ag2502
ag2502
ag2502
ag2502
ag2502
asS'carcanet'
p2503
(lp2504
g16
asS'and'
p2505
(lp2506
S'CC'
p2507
ag2507
ag2507
ag2507
ag2507
ag2507
ag2507
ag2507
ag2507
ag2507
ag2507
ag2507
ag2507
ag2507
ag2507
ag2507
ag2507
ag2507
ag2507
ag2507
ag2507
ag2507
ag2507
ag2507
ag2507
ag2507
ag2507
ag2507
ag2507
ag2507
ag2507
ag2507
ag2507
ag2507
ag2507
ag2507
ag2507
ag2507
ag2507
ag2507
ag2507
ag2507
ag2507
ag2507
ag2507
ag2507
ag2507
ag2507
ag2507
ag2507
ag2507
ag2507
ag2507
ag2507
ag2507
ag2507
ag2507
ag2507
ag2507
ag2507
ag2507
ag2507
ag2507
ag2507
ag2507
ag2507
ag2507
ag2507
ag2507
ag2507
ag2507
ag2507
ag2507
ag2507
ag2507
ag2507
ag2507
ag2507
ag2507
ag2507
ag2507
ag2507
ag2507
ag2507
ag2507
ag2507
ag2507
ag2507
ag2507
ag2507
ag2507
ag2507
ag2507
ag2507
ag2507
ag2507
ag2507
ag2507
ag2507
ag2507
ag2507
ag2507
ag2507
ag2507
ag2507
ag2507
ag2507
ag2507
ag2507
ag2507
ag2507
ag2507
ag2507
ag2507
ag2507
ag2507
ag2507
ag2507
ag2507
ag2507
ag2507
ag2507
ag2507
ag2507
ag2507
ag2507
ag2507
ag2507
ag2507
ag2507
ag2507
ag2507
ag2507
ag2507
ag2507
ag2507
ag2507
ag2507
ag2507
ag2507
ag2507
ag2507
ag2507
ag2507
ag2507
ag2507
ag2507
ag2507
ag2507
ag2507
ag2507
ag2507
ag2507
ag2507
ag2507
ag2507
ag2507
ag2507
ag2507
ag2507
ag2507
ag2507
ag2507
ag2507
ag2507
ag2507
ag2507
ag2507
ag2507
ag2507
ag2507
ag2507
ag2507
ag2507
ag2507
ag2507
ag2507
ag2507
ag2507
ag2507
ag2507
ag2507
ag2507
ag2507
ag2507
ag2507
ag2507
ag2507
ag2507
ag2507
ag2507
ag2507
ag2507
ag2507
ag2507
ag2507
ag2507
ag2507
ag2507
ag2507
ag2507
ag2507
ag2507
ag2507
ag2507
ag2507
ag2507
ag2507
ag2507
ag2507
ag2507
ag2507
ag2507
ag2507
ag2507
ag2507
ag2507
ag2507
ag2507
ag2507
ag2507
ag2507
ag2507
ag2507
ag2507
ag2507
ag2507
ag2507
ag2507
ag2507
ag2507
ag2507
ag2507
ag2507
ag2507
ag2507
ag2507
ag2507
ag2507
ag2507
ag2507
ag2507
ag2507
ag2507
ag2507
ag2507
ag2507
ag2507
ag2507
ag2507
ag2507
ag2507
ag2507
ag2507
ag2507
ag2507
ag2507
ag2507
ag2507
ag2507
ag2507
ag2507
ag2507
ag2507
ag2507
ag2507
ag2507
ag2507
ag2507
ag2507
ag2507
ag2507
ag2507
ag2507
ag2507
ag2507
ag2507
ag2507
ag2507
ag2507
ag2507
ag2507
ag2507
ag2507
ag2507
ag2507
ag2507
ag2507
ag2507
ag2507
ag2507
ag2507
ag2507
ag2507
ag2507
ag2507
ag2507
ag2507
ag2507
ag2507
ag2507
ag2507
ag2507
ag2507
ag2507
ag2507
ag2507
ag2507
ag2507
ag2507
ag2507
ag2507
ag2507
ag2507
ag2507
ag2507
ag2507
ag2507
ag2507
ag2507
ag2507
ag2507
ag2507
ag2507
ag2507
ag2507
ag2507
ag2507
ag2507
ag2507
ag2507
ag2507
ag2507
ag2507
ag2507
ag2507
ag2507
ag2507
ag2507
ag2507
ag2507
ag2507
ag2507
ag2507
ag2507
ag2507
ag2507
ag2507
ag2507
ag2507
ag2507
ag2507
ag2507
ag2507
ag2507
ag2507
ag2507
ag2507
ag2507
ag2507
ag2507
ag2507
ag2507
ag2507
ag2507
ag2507
ag2507
ag2507
ag2507
ag2507
ag2507
ag2507
ag2507
ag2507
ag2507
ag2507
ag2507
ag2507
ag2507
ag2507
ag2507
ag2507
ag2507
ag2507
ag2507
ag2507
ag2507
ag2507
ag2507
ag2507
ag2507
ag2507
ag2507
ag2507
ag2507
ag2507
ag2507
ag2507
ag2507
ag2507
ag2507
ag2507
ag2507
ag2507
ag2507
ag2507
ag2507
ag2507
ag2507
ag2507
ag2507
ag2507
ag2507
ag2507
ag2507
ag2507
ag2507
ag2507
ag2507
ag2507
ag2507
ag2507
ag2507
ag2507
ag2507
ag2507
ag2507
ag2507
ag2507
ag2507
ag2507
ag2507
ag2507
ag2507
ag2507
ag2507
ag2507
ag2507
ag2507
ag2507
ag2507
ag2507
ag2507
ag2507
ag2507
ag2507
ag2507
ag2507
ag2507
ag2507
ag2507
ag2507
ag2507
ag2507
ag2507
ag2507
ag2507
ag2507
ag2507
ag2507
ag2507
ag2507
ag2507
ag2507
ag2507
ag2507
ag2507
ag2507
ag2507
ag2507
ag2507
ag2507
ag2507
ag2507
ag2507
ag2507
ag2507
ag2507
ag2507
ag2507
ag2507
ag2507
ag2507
ag2507
ag2507
asS'desperate'
p2508
(lp2509
g19
asS'angel'
p2510
(lp2511
g16
ag16
ag16
ag16
ag16
asS'slay'
p2512
(lp2513
g7
asS'correction'
p2514
(lp2515
g16
asS'confessed'
p2516
(lp2517
g4
asS'turned'
p2518
(lp2519
g4
ag4
asS'argument'
p2520
(lp2521
g16
ag16
ag10
ag16
ag16
ag16
asS'jewels'
p2522
(lp2523
g52
ag52
asS'sad'
p2524
(lp2525
g10
ag10
ag10
ag10
ag10
ag10
ag10
asS'entombed'
p2526
(lp2527
g19
asS'say'
p2528
(lp2529
g7
ag19
ag7
ag7
ag7
ag7
ag19
ag7
ag7
ag19
ag19
ag7
ag19
ag19
ag19
ag19
ag19
ag19
ag19
ag19
ag7
ag7
ag19
ag7
ag16
ag19
ag7
ag19
asS'perfumes'
p2530
(lp2531
g52
ag52
asS'buried'
p2532
(lp2533
g4
ag17
ag4
ag4
ag4
asS'foiled'
p2534
(lp2535
g4
asS'anger'
p2536
(lp2537
g10
asS'sap'
p2538
(lp2539
g18
ag16
asS'pry'
p2540
(lp2541
g7
asS'any'
p2542
(lp2543
S'DT'
p2544
ag2544
ag2544
ag2544
ag2544
ag2544
ag2544
ag2544
ag2544
ag2544
ag2544
asS'jacks'
p2545
(lp2546
g52
ag52
asS'sport'
p2547
(lp2548
g16
ag16
asS'defaced'
p2549
(lp2550
g17
asS'mourners'
p2551
(lp2552
g52
ag52
asS'aside'
p2553
(lp2554
g33
ag73
asS'note'
p2555
(lp2556
g16
ag19
asS'wretch'
p2557
(lp2558
g16
ag16
asS'take'
p2559
(lp2560
g19
ag16
ag7
ag7
ag7
ag19
ag7
ag19
ag7
ag7
ag7
ag19
ag7
asS'resembling'
p2561
(lp2562
g26
ag26
asS'green'
p2563
(lp2564
g10
ag10
ag10
ag10
ag10
asS'blunt'
p2565
(lp2566
g16
ag16
ag16
asS'flattered'
p2567
(lp2568
g17
asS'urge'
p2569
(lp2570
g16
ag16
asS'begin'
p2571
(lp2572
g7
asS'sure'
p2573
(lp2574
g10
ag16
ag10
asS'pain'
p2575
(lp2576
g16
ag16
ag16
ag16
ag19
asS'busy'
p2577
(lp2578
g10
asS'tallies'
p2579
(lp2580
g52
asS'knew'
p2581
(lp2582
g17
asS'clearer'
p2583
(lp2584
g16
ag16
asS'paid'
p2585
(lp2586
g4
asS'remover'
p2587
(lp2588
g16
asS'unkindness'
p2589
(lp2590
g10
ag10
asS'staineth'
p2591
(lp2592
g17
asS'flatterer'
p2593
(lp2594
g7
asS'tract'
p2595
(lp2596
g16
asS'palate'
p2597
(lp2598
g16
ag10
asS'winters'
p2599
(lp2600
g52
ag52
asS'garments'
p2601
(lp2602
g52
asS'proud'
p2603
(lp2604
g10
ag10
ag10
ag16
ag10
ag10
ag10
ag10
ag10
ag10
ag10
ag16
asS"travel's"
p2605
(lp2606
g10
asS'wing'
p2607
(lp2608
g16
asS"perfect'st"
p2609
(lp2610
g16
asS'sunset'
p2611
(lp2612
g16
asS'amis'
p2613
(lp2614
g73
asS'glutton'
p2615
(lp2616
g16
asS'perfumed'
p2617
(lp2618
g10
asS'sourest'
p2619
(lp2620
g4
asS'buriest'
p2621
(lp2622
g49
asS'shop'
p2623
(lp2624
g16
asS'show'
p2625
(lp2626
g19
ag7
ag7
ag7
ag7
ag16
ag7
ag19
ag16
ag7
ag7
ag7
ag19
ag16
ag7
ag16
ag7
ag16
ag7
ag16
ag7
ag16
ag7
asS'cheap'
p2627
(lp2628
g10
asS'merit'
p2629
(lp2630
g16
ag16
ag16
ag16
ag18
asS'trespass'
p2631
(lp2632
g16
ag16
asS'bright'
p2633
(lp2634
g10
ag10
ag10
ag16
ag16
ag4
ag10
ag10
ag10
ag33
ag16
asS'saying'
p2635
(lp2636
g26
asS'untold'
p2637
(lp2638
g10
asS'ground'
p2639
(lp2640
g16
ag16
ag16
asS'slow'
p2641
(lp2642
g10
ag10
ag7
ag73
asS'woos'
p2643
(lp2644
g18
asS'unkind'
p2645
(lp2646
g10
ag10
ag10
asS'stormy'
p2647
(lp2648
g10
asS'title'
p2649
(lp2650
g16
ag16
asS'treasure'
p2651
(lp2652
g16
ag16
ag16
ag16
ag16
ag16
ag16
ag16
asS'robs'
p2653
(lp2654
g19
ag18
asS'written'
p2655
(lp2656
S'VBN'
p2657
asS'crime'
p2658
(lp2659
S'NN'
p2660
ag2660
ag2660
ag2660
asS'tears'
p2661
(lp2662
g52
ag52
ag52
ag52
ag52
asS'going'
p2663
(lp2664
S'VBG'
p2665
asS'black'
p2666
(lp2667
S'JJ'
p2668
ag2668
ag2668
ag2668
ag2668
ag2668
ag2668
ag2668
ag2668
ag2668
ag2668
ag2668
ag2668
asS'partake'
p2669
(lp2670
g19
asS'stain'
p2671
(lp2672
g7
ag19
ag16
asS'wilfully'
p2673
(lp2674
g33
asS'hindmost'
p2675
(lp2676
g16
asS'get'
p2677
(lp2678
g19
asS"'tis"
p2679
(lp2680
g562
ag932
ag520
ag520
ag10
aS"''"
p2681
ag562
ag73
ag562
ag73
ag7
ag562
asS'limbecks'
p2682
(lp2683
g52
asS'truly'
p2684
(lp2685
g33
ag7
ag33
ag33
ag33
asS'cannot'
p2686
(lp2687
g18
ag19
ag16
ag19
ag16
ag16
ag52
ag16
ag19
ag16
asS'nearly'
p2688
(lp2689
S'RB'
p2690
asS'dye'
p2691
(lp2692
g16
asS'prime'
p2693
(lp2694
g10
ag10
ag10
ag10
asS'seldom'
p2695
(lp2696
g10
ag16
asS'yield'
p2697
(lp2698
g7
ag16
asS'morning'
p2699
(lp2700
S'NN'
p2701
ag2701
asS'naked'
p2702
(lp2703
g4
asS'miles'
p2704
(lp2705
S'NNS'
p2706
ag2706
asS'where'
p2707
(lp2708
S'WRB'
p2709
ag2709
ag2709
ag2709
ag2709
ag2709
ag2709
ag2709
ag2709
ag2709
ag2709
ag2709
ag2709
ag2709
ag2709
ag2709
ag2709
ag2709
ag2709
ag2709
ag2709
ag2709
ag2709
ag2709
ag2709
ag2709
ag2709
ag2709
ag2709
ag2709
ag2709
ag2709
ag2709
ag2709
ag2709
ag2709
ag2709
ag2709
ag2709
ag2709
asS'husband'
p2710
(lp2711
g16
ag16
ag16
asS"monarch's"
p2712
(lp2713
g16
asS'committed'
p2714
(lp2715
g17
asS'up'
p2716
(lp2717
g448
ag448
ag448
ag448
ag448
ag448
ag448
ag448
ag448
ag448
ag448
ag448
ag448
ag448
asS"fortune's"
p2718
(lp2719
g10
ag16
ag7
asS'asleep'
p2720
(lp2721
g33
ag10
asS'expiate'
p2722
(lp2723
g7
asS'successive'
p2724
(lp2725
g10
asS'seal'
p2726
(lp2727
g16
asS'salutation'
p2728
(lp2729
g16
asS'ruined'
p2730
(lp2731
g4
ag4
asS'prayers'
p2732
(lp2733
g52
asS'purest'
p2734
(lp2735
g16
asS'wonder'
p2736
(lp2737
g16
ag16
ag7
asS'invoked'
p2738
(lp2739
g4
asS'tongue-tied'
p2740
(lp2741
g10
ag10
ag10
ag10
asS'compounds'
p2742
(lp2743
g52
ag52
asS'crooked'
p2744
(lp2745
g10
ag10
asS'review'
p2746
(lp2747
g19
asS'amen'
p2748
(lp2749
g52
asS'ornament'
p2750
(lp2751
g16
ag16
ag16
ag16
ag16
asS'behind'
p2752
(lp2753
g448
ag73
ag73
ag73
asS'departest'
p2754
(lp2755
g16
asS'complexion'
p2756
(lp2757
g16
ag16
asS'sable'
p2758
(lp2759
g10
asS'import'
p2760
(lp2761
g7
asS'enjoys'
p2762
(lp2763
g18
asS'presage'
p2764
(lp2765
g16
asS'untainted'
p2766
(lp2767
g10
asS'forsake'
p2768
(lp2769
g7
ag7
asS'lays'
p2770
(lp2771
g52
ag52
ag52
ag52
asS'discloses'
p2772
(lp2773
g52
asS'pluck'
p2774
(lp2775
g16
ag17
ag17
asS'blame'
p2776
(lp2777
g7
ag7
ag7
ag10
asS'faults'
p2778
(lp2779
g52
ag52
ag52
ag52
ag7
ag52
ag52
ag52
asS'countenance'
p2780
(lp2781
g16
asS'reigns'
p2782
(lp2783
g52
asS'profitless'
p2784
(lp2785
g16
asS'come'
p2786
(lp2787
g7
ag7
ag19
ag16
ag7
ag10
ag7
ag19
ag19
ag7
ag19
ag7
ag4
ag19
ag7
asS'grieved'
p2788
(lp2789
g4
asS'dates'
p2790
(lp2791
g52
asS'many'
p2792
(lp2793
S'JJ'
p2794
ag2794
ag2794
ag2794
ag2794
ag2794
ag2794
ag2794
ag2794
ag2794
ag2794
ag2794
ag2794
asS'region'
p2795
(lp2796
S'NN'
p2797
asS'quiet'
p2798
(lp2799
g10
asS'dwellers'
p2800
(lp2801
g52
asS'awards'
p2802
(lp2803
g52
asS"sea's"
p2804
(lp2805
g16
asS'duty'
p2806
(lp2807
g16
ag16
ag16
asS'among'
p2808
(lp2809
S'IN'
p2810
ag2810
ag2810
asS'unthrifts'
p2811
(lp2812
g10
asS'madness'
p2813
(lp2814
g16
asS'spoil'
p2815
(lp2816
g16
asS'unthrifty'
p2817
(lp2818
g10
asS'lace'
p2819
(lp2820
g7
asS'swerving'
p2821
(lp2822
g26
asS'dispatch'
p2823
(lp2824
g16
asS'slain'
p2825
(lp2826
g10
ag16
asS'stretched'
p2827
(lp2828
g17
asS'learning'
p2829
(lp2830
g10
ag26
asS'proved'
p2831
(lp2832
g17
ag17
ag17
asS'hounds'
p2833
(lp2834
g18
asS'boat'
p2835
(lp2836
g16
asS'doctor-like'
p2837
(lp2838
g10
asS'arts'
p2839
(lp2840
g52
asS'self-doing'
p2841
(lp2842
g10
asS'west'
p2843
(lp2844
g7
ag16
ag16
asS'dross'
p2845
(lp2846
g16
asS'mark'
p2847
(lp2848
g16
ag16
ag10
ag16
asS'breath'
p2849
(lp2850
g19
ag16
ag16
ag16
ag16
asS'subscribes'
p2851
(lp2852
g7
asS"self's"
p2853
(lp2854
g16
asS'mars'
p2855
(lp2856
g52
asS'informer'
p2857
(lp2858
g381
asS'straying'
p2859
(lp2860
g26
asS'robbed'
p2861
(lp2862
g4
asS'thousand'
p2863
(lp2864
g10
ag10
ag10
asS'blessing'
p2865
(lp2866
g16
asS'nobler'
p2867
(lp2868
g10
asS'wake'
p2869
(lp2870
g16
asS'external'
p2871
(lp2872
g10
asS'frantic-mad'
p2873
(lp2874
g10
asS'masonry'
p2875
(lp2876
g52
asS'careful'
p2877
(lp2878
g16
ag10
asS'deceivest'
p2879
(lp2880
g16
asS'those'
p2881
(lp2882
S'DT'
p2883
ag2883
ag2883
ag2883
ag2883
ag2883
ag2883
ag2883
ag2883
ag2883
ag2883
ag2883
ag2883
ag2883
ag2883
ag2883
ag2883
ag2883
ag2883
ag2883
ag2883
ag2883
ag2883
ag2883
ag2883
ag2883
ag2883
ag2883
ag2883
ag2883
ag2883
ag2883
ag2883
asS'case'
p2884
(lp2885
S'NN'
p2886
ag2886
ag2886
asS'clears'
p2887
(lp2888
g52
asS'profane'
p2889
(lp2890
g16
asS'scarlet'
p2891
(lp2892
g16
asS'these'
p2893
(lp2894
S'DT'
p2895
ag2895
ag2895
ag2895
ag2895
ag2895
ag2895
ag2895
ag2895
ag2895
ag2895
ag2895
ag2895
ag2895
ag2895
ag2895
ag2895
ag2895
ag2895
ag2895
ag2895
ag2895
asS'sheaves'
p2896
(lp2897
g52
asS'compile'
p2898
(lp2899
g19
asS'cast'
p2900
(lp2901
g17
ag4
asS'proves'
p2902
(lp2903
g52
ag18
asS'cancelled'
p2904
(lp2905
g4
asS'situation'
p2906
(lp2907
S'NN'
p2908
asS'endured'
p2909
(lp2910
g17
asS'fool'
p2911
(lp2912
g16
ag16
ag10
asS'endowed'
p2913
(lp2914
g17
asS'brow'
p2915
(lp2916
g16
ag16
ag16
ag16
ag16
ag16
ag16
ag16
asS'gluttoning'
p2917
(lp2918
g26
asS'middle'
p2919
(lp2920
g10
asS'limping'
p2921
(lp2922
g26
asS'return'
p2923
(lp2924
g16
ag16
ag16
ag19
ag19
ag19
asS'fame'
p2925
(lp2926
g16
ag7
ag16
asS'different'
p2927
(lp2928
S'JJ'
p2929
asS'harsh'
p2930
(lp2931
g16
asS"tyrants'"
p2932
(lp2933
g16
asS'strains'
p2934
(lp2935
g52
asS'pay'
p2936
(lp2937
g19
ag16
ag16
asS'same'
p2938
(lp2939
S'JJ'
p2940
ag2940
ag2940
ag2940
ag2940
ag2940
asS'check'
p2941
(lp2942
g16
ag16
asS'shifts'
p2943
(lp2944
g52
asS'distilled'
p2945
(lp2946
g17
ag4
ag4
asS'figures'
p2947
(lp2948
g52
asS'ladies'
p2949
(lp2950
g52
asS"'truth"
p2951
(lp2952
g520
asS'wires'
p2953
(lp2954
g52
ag52
asS'faculty'
p2955
(lp2956
g4
asS'sickness'
p2957
(lp2958
g16
asS'tyrannous'
p2959
(lp2960
g10
asS'defy'
p2961
(lp2962
g16
asS'weed'
p2963
(lp2964
g16
ag16
ag16
asS'fruit'
p2965
(lp2966
g16
asS'scorned'
p2967
(lp2968
g4
asS'conquered'
p2969
(lp2970
g10
asS'extern'
p2971
(lp2972
g10
asS'changing'
p2973
(lp2974
g26
ag26
asS'weep'
p2975
(lp2976
g7
ag10
ag7
asS"slander's"
p2977
(lp2978
g10
asS'vowed'
p2979
(lp2980
g17
asS'vantage'
p2981
(lp2982
g16
asS'dear-purchased'
p2983
(lp2984
g10
asS'throned'
p2985
(lp2986
g10
asS'random'
p2987
(lp2988
g16
asS'vacant'
p2989
(lp2990
g10
asS'without'
p2991
(lp2992
S'IN'
p2993
ag2993
ag2993
ag2993
ag2993
ag2993
ag2993
ag2993
asS'relief'
p2994
(lp2995
g16
asS'charged'
p2996
(lp2997
g4
asS'distills'
p2998
(lp2999
g18
asS'summer'
p3000
(lp3001
S'NN'
p3002
ag3002
ag3002
ag3002
ag3002
ag3002
ag3002
ag3002
asS'ransoms'
p3003
(lp3004
g16
asS'being'
p3005
(lp3006
S'VBG'
p3007
ag3007
ag3007
ag3007
ag3007
ag3007
ag3007
ag3007
ag3007
ag3007
ag3007
ag3007
ag3007
ag3007
ag3007
ag3007
ag3007
ag3007
ag3007
ag3007
ag3007
ag3007
ag3007
ag3007
ag3007
ag3007
ag3007
ag3007
ag3007
ag3007
ag3007
ag3007
asS'when'
p3008
(lp3009
g59
ag59
ag59
ag59
ag59
ag59
ag59
ag59
ag59
ag59
ag59
ag59
ag59
ag59
ag59
ag59
ag59
ag59
ag59
ag59
ag59
ag59
ag59
ag59
ag59
ag59
ag59
ag59
ag59
ag59
ag59
ag59
ag59
ag59
ag59
ag59
ag59
ag59
ag59
ag59
ag59
ag59
ag59
ag59
ag59
ag59
ag59
ag59
ag59
ag59
ag59
ag59
ag59
ag59
ag59
ag59
ag59
ag59
ag59
ag59
ag59
ag59
ag59
ag59
ag59
ag59
ag59
ag59
ag59
ag59
ag59
ag59
ag59
ag59
ag59
ag59
ag59
ag59
ag59
ag59
ag59
ag59
ag59
ag59
ag59
ag59
ag59
ag59
ag59
ag59
ag59
ag59
ag59
ag59
ag59
ag59
ag59
ag59
ag59
ag59
ag59
ag59
ag59
ag59
ag59
ag59
asS'compound'
p3010
(lp3011
g16
asS'shamefully'
p3012
(lp3013
g33
asS'rest'
p3014
(lp3015
g16
ag16
ag16
ag16
ag16
ag16
asS'imprint'
p3016
(lp3017
g16
asS'bareness'
p3018
(lp3019
g16
ag16
asS'cease'
p3020
(lp3021
g7
asS'disperse'
p3022
(lp3023
g16
asS'aspect'
p3024
(lp3025
g16
asS'touch'
p3026
(lp3027
g7
asS'speed'
p3028
(lp3029
g4
ag19
ag16
asS'guides'
p3030
(lp3031
g18
asS'afterwards'
p3032
(lp3033
g7
asS'blow'
p3034
(lp3035
g16
asS'blot'
p3036
(lp3037
g7
ag16
ag16
asS'unwooed'
p3038
(lp3039
g10
asS'charactered'
p3040
(lp3041
g4
asS'thinking'
p3042
(lp3043
g16
ag26
ag26
asS'rose'
p3044
(lp3045
S'VBD'
p3046
ag3046
ag3046
ag3046
ag3046
ag3046
asS'seems'
p3047
(lp3048
S'VBZ'
p3049
ag3049
asS"summer's"
p3050
(lp3051
g10
ag16
ag10
ag7
ag10
ag33
ag7
ag16
ag10
ag10
ag10
asS"summers'"
p3052
(lp3053
g16
asS'verse'
p3054
(lp3055
g16
ag10
ag16
ag10
ag16
ag10
ag16
ag16
ag16
ag16
ag16
ag16
ag16
ag16
ag16
asS'suppressed'
p3056
(lp3057
g17
asS'worthier'
p3058
(lp3059
g16
asS'throw'
p3060
(lp3061
g19
asS'dully'
p3062
(lp3063
g33
asS'bond'
p3064
(lp3065
S'NN'
p3066
asS'valley-fountain'
p3067
(lp3068
g16
asS'struck'
p3069
(lp3070
g17
asS'kingdom'
p3071
(lp3072
g16
asS'frown'
p3073
(lp3074
g16
ag4
ag10
asS'kills'
p3075
(lp3076
g52
asS'read'
p3077
(lp3078
g19
ag7
ag17
ag19
ag19
asS'offence'
p3079
(lp3080
g16
ag16
asS'sums'
p3081
(lp3082
g52
asS'dart'
p3083
(lp3084
g7
asS'basest'
p3085
(lp3086
g49
ag49
ag49
asS'traffic'
p3087
(lp3088
S'NN'
p3089
asS'confined'
p3090
(lp3091
g17
ag4
ag4
asS'world'
p3092
(lp3093
S'NN'
p3094
ag3094
ag3094
ag3094
ag3094
ag3094
ag3094
ag3094
ag3094
ag3094
ag3094
ag3094
ag3094
ag3094
ag3094
ag3094
ag3094
ag3094
ag3094
ag3094
ag3094
ag3094
ag3094
ag3094
ag3094
ag3094
ag3094
asS'reap'
p3095
(lp3096
g16
asS'dare'
p3097
(lp3098
g16
ag19
ag10
ag19
asS'acquainted'
p3099
(lp3100
g4
ag4
asS'fortune'
p3101
(lp3102
g16
ag16
ag16
ag16
ag52
ag52
asS'achieve'
p3103
(lp3104
g7
asS'miracle'
p3105
(lp3106
g16
asS'benefit'
p3107
(lp3108
g16
ag16
asS"wretch's"
p3109
(lp3110
g10
asS'either'
p3111
(lp3112
g33
ag1195
asS'robbery'
p3113
(lp3114
g16
asS'offenders'
p3115
(lp3116
g52
asS'warrantise'
p3117
(lp3118
g16
asS'tombed'
p3119
(lp3120
g4
asS'fulfil'
p3121
(lp3122
g16
ag7
asS'falsehood'
p3123
(lp3124
g16
ag16
asS'kings'
p3125
(lp3126
g52
ag52
asS'images'
p3127
(lp3128
g52
asS'divine'
p3129
(lp3130
g19
ag19
asS'thinks'
p3131
(lp3132
g18
ag18
asS'gross'
p3133
(lp3134
S'JJ'
p3135
ag3135
asS'courses'
p3136
(lp3137
g52
asS'noon'
p3138
(lp3139
g16
asS'lend'
p3140
(lp3141
g19
ag16
ag7
ag7
ag7
asS'stops'
p3142
(lp3143
g18
asS'moon'
p3144
(lp3145
g16
ag16
ag16
asS'forgoing'
p3146
(lp3147
g26
asS'expressing'
p3148
(lp3149
g26
asS'self-loving'
p3150
(lp3151
g10
asS'knife'
p3152
(lp3153
g16
ag16
ag10
ag16
asS'destroys'
p3154
(lp3155
g18
asS'shorn'
p3156
(lp3157
g4
asS'power'
p3158
(lp3159
S'NN'
p3160
ag3160
ag3160
ag3160
ag3160
ag3160
ag3160
ag3160
asS'seconds'
p3161
(lp3162
g52
asS'blest'
p3163
(lp3164
g16
ag49
asS'strained'
p3165
(lp3166
g17
asS'olives'
p3167
(lp3168
g52
asS'forgetfulness'
p3169
(lp3170
g16
asS'broken'
p3171
(lp3172
g4
asS"o'er-green"
p3173
(lp3174
g10
asS'assemble'
p3175
(lp3176
g10
asS'feeds'
p3177
(lp3178
g52
ag18
asS'death-bed'
p3179
(lp3180
g10
asS'on'
p3181
(lp3182
S'IN'
p3183
ag3183
ag3183
ag3183
ag3183
ag3183
ag3183
ag3183
ag3183
ag3183
ag3183
ag3183
ag3183
ag3183
ag3183
ag3183
ag3183
ag3183
ag3183
ag3183
ag3183
ag3183
ag3183
ag3183
ag3183
ag3183
ag3183
ag3183
ag3183
ag3183
ag3183
ag3183
ag3183
ag3183
ag3183
ag3183
ag3183
ag3183
ag3183
ag3183
ag3183
ag3183
ag3183
ag3183
ag3183
ag3183
ag3183
ag3183
ag3183
ag3183
ag3183
ag3183
ag3183
ag3183
ag3183
ag3183
ag3183
ag3183
ag3183
ag3183
ag3183
ag3183
ag3183
ag3183
ag3183
ag3183
ag3183
ag3183
ag3183
ag3183
ag3183
ag3183
ag3183
ag3183
ag3183
ag3183
ag3183
ag3183
asS'stone'
p3184
(lp3185
g16
ag16
ag16
asS'subdued'
p3186
(lp3187
g4
asS'zealous'
p3188
(lp3189
g10
asS'of'
p3190
(lp3191
S'IN'
p3192
ag3192
ag3192
ag3192
ag3192
ag3192
ag3192
ag3192
ag3192
ag3192
ag3192
ag3192
ag3192
ag3192
ag3192
ag3192
ag3192
ag3192
ag3192
ag3192
ag3192
ag3192
ag3192
ag3192
ag3192
ag3192
ag3192
ag3192
ag3192
ag3192
ag3192
ag3192
ag3192
ag3192
ag3192
ag3192
ag3192
ag3192
ag3192
ag3192
ag3192
ag3192
ag3192
ag3192
ag3192
ag3192
ag3192
ag3192
ag3192
ag3192
ag3192
ag3192
ag3192
ag3192
ag3192
ag3192
ag3192
ag3192
ag3192
ag3192
ag3192
ag3192
ag3192
ag3192
ag3192
ag3192
ag3192
ag3192
ag3192
ag3192
ag3192
ag3192
ag3192
ag3192
ag3192
ag3192
ag3192
ag3192
ag3192
ag3192
ag3192
ag3192
ag3192
ag3192
ag3192
ag3192
ag3192
ag3192
ag3192
ag3192
ag3192
ag3192
ag3192
ag3192
ag3192
ag3192
ag3192
ag3192
ag3192
ag3192
ag3192
ag3192
ag3192
ag3192
ag3192
ag3192
ag3192
ag3192
ag3192
ag3192
ag3192
ag3192
ag3192
ag3192
ag3192
ag3192
ag3192
ag3192
ag3192
ag3192
ag3192
ag3192
ag3192
ag3192
ag3192
ag3192
ag3192
ag3192
ag3192
ag3192
ag3192
ag3192
ag3192
ag3192
ag3192
ag3192
ag3192
ag3192
ag3192
ag3192
ag3192
ag3192
ag3192
ag3192
ag3192
ag3192
ag3192
ag3192
ag3192
ag3192
ag3192
ag3192
ag3192
ag3192
ag3192
ag3192
ag3192
ag3192
ag3192
ag3192
ag3192
ag3192
ag3192
ag3192
ag3192
ag3192
ag3192
ag3192
ag3192
ag3192
ag3192
ag3192
ag3192
ag3192
ag3192
ag3192
ag3192
ag3192
ag3192
ag3192
ag3192
ag3192
ag3192
ag3192
ag3192
ag3192
ag3192
ag3192
ag3192
ag3192
ag3192
ag3192
ag3192
ag3192
ag3192
ag3192
ag3192
ag3192
ag3192
ag3192
ag3192
ag3192
ag3192
ag3192
ag3192
ag3192
ag3192
ag3192
ag3192
ag3192
ag3192
ag3192
ag3192
ag3192
ag3192
ag3192
ag3192
ag3192
ag3192
ag3192
ag3192
ag3192
ag3192
ag3192
ag3192
ag3192
ag3192
ag3192
ag3192
ag3192
ag3192
ag3192
ag3192
ag3192
ag3192
ag3192
ag3192
ag3192
ag3192
ag3192
ag3192
ag3192
ag3192
ag3192
ag3192
ag3192
ag3192
ag3192
ag3192
ag3192
ag3192
ag3192
ag3192
ag3192
ag3192
ag3192
ag3192
ag3192
ag3192
ag3192
ag3192
ag3192
ag3192
ag3192
ag3192
ag3192
ag3192
ag3192
ag3192
ag3192
ag3192
ag3192
ag3192
ag3192
ag3192
ag3192
ag3192
ag3192
ag3192
ag3192
ag3192
ag3192
ag3192
ag3192
ag3192
ag3192
ag3192
ag3192
ag3192
ag3192
ag3192
ag3192
ag3192
ag3192
ag3192
ag3192
ag3192
ag3192
ag3192
ag3192
ag3192
ag3192
ag3192
ag3192
ag3192
ag3192
ag3192
ag3192
ag3192
ag3192
ag3192
ag3192
ag3192
ag3192
ag3192
ag3192
ag3192
ag3192
ag3192
ag3192
ag3192
ag3192
ag3192
ag3192
ag3192
ag3192
ag3192
ag3192
ag3192
ag3192
ag3192
ag3192
ag3192
ag3192
ag3192
ag3192
ag3192
ag3192
ag3192
ag3192
ag3192
ag3192
ag3192
ag3192
ag3192
ag3192
ag3192
ag3192
ag3192
ag3192
ag3192
ag3192
ag3192
ag3192
ag3192
ag3192
ag3192
ag3192
ag3192
ag3192
ag3192
ag3192
ag3192
ag3192
ag3192
ag3192
asS'choirs'
p3193
(lp3194
g52
asS'feil'
p3195
(lp3196
g10
asS'whence'
p3197
(lp3198
g16
ag16
asS'fell'
p3199
(lp3200
S'VBD'
p3201
ag3201
ag3201
ag3201
asS'wolf'
p3202
(lp3203
g16
asS'stand'
p3204
(lp3205
g19
ag16
ag7
ag7
ag19
ag16
ag7
asS'act'
p3206
(lp3207
g16
asS'mixed'
p3208
(lp3209
g10
asS"bear'st"
p3210
(lp3211
g1004
asS'or'
p3212
(lp3213
S'CC'
p3214
ag3214
ag3214
ag3214
ag3214
ag3214
ag3214
ag3214
ag3214
ag3214
ag3214
ag3214
ag3214
ag3214
ag3214
ag3214
ag3214
ag3214
ag3214
ag3214
ag3214
ag3214
ag3214
ag3214
ag3214
ag3214
ag3214
ag3214
ag3214
ag3214
ag3214
ag3214
ag3214
ag3214
ag3214
ag3214
ag3214
ag3214
ag3214
ag3214
ag3214
ag3214
ag3214
ag3214
ag3214
ag3214
ag3214
ag3214
ag3214
ag3214
ag3214
ag3214
ag3214
ag3214
ag3214
ag3214
ag3214
ag3214
ag3214
ag3214
ag3214
ag3214
ag3214
ag3214
ag3214
ag3214
ag3214
ag3214
ag3214
ag3214
ag3214
ag3214
ag3214
ag3214
ag3214
ag3214
ag3214
ag3214
asS'imitated'
p3215
(lp3216
g4
asS'widowed'
p3217
(lp3218
g4
asS'long-lived'
p3219
(lp3220
g10
asS'burning'
p3221
(lp3222
g26
asS"put'st"
p3223
(lp3224
g18
asS'distempered'
p3225
(lp3226
g10
asS'image'
p3227
(lp3228
S'NN'
p3229
ag3229
ag3229
ag3229
asS'blessed'
p3230
(lp3231
g10
ag4
ag10
ag4
ag10
ag17
ag17
asS'rising'
p3232
(lp3233
g26
asS'lively'
p3234
(lp3235
g33
ag33
asS'dreaming'
p3236
(lp3237
g26
asS'blesses'
p3238
(lp3239
g18
asS'your'
p3240
(lp3241
S'PRP$'
p3242
ag3242
ag3242
ag3242
ag3242
ag3242
ag3242
ag3242
ag3242
ag3242
ag3242
ag3242
ag3242
ag3242
ag3242
ag3242
ag3242
ag3242
ag3242
ag3242
ag3242
ag3242
ag3242
ag3242
ag3242
ag3242
ag3242
ag3242
ag3242
ag3242
ag3242
ag3242
ag3242
ag3242
ag3242
ag3242
ag3242
ag3242
ag3242
ag3242
ag3242
ag3242
ag3242
ag3242
ag3242
ag3242
ag3242
ag3242
ag3242
ag3242
ag3242
ag3242
ag3242
ag3242
ag3242
ag3242
ag3242
ag3242
ag3242
ag3242
ag3242
ag3242
ag3242
ag3242
ag3242
ag3242
ag3242
ag3242
ag3242
ag3242
ag3242
ag3242
ag3242
ag3242
ag3242
ag3242
ag3242
ag3242
ag3242
ag3242
ag3242
ag3242
ag3242
ag3242
ag3242
ag3242
ag3242
ag3242
ag3242
ag3242
ag3242
ag3242
ag3242
ag3242
ag3242
ag3242
ag3242
ag3242
ag3242
ag3242
asS'buds'
p3243
(lp3244
g52
ag16
ag16
asS"oaths'"
p3245
(lp3246
g52
asS'fast'
p3247
(lp3248
g33
ag10
ag33
ag33
asS'prepare'
p3249
(lp3250
g7
ag19
asS'there'
p3251
(lp3252
g345
ag33
ag345
ag345
ag345
ag345
ag345
ag345
ag345
ag345
ag345
ag33
ag33
ag345
ag33
ag345
ag345
ag33
asS'disposed'
p3253
(lp3254
g4
asS'sides'
p3255
(lp3256
S'NNS'
p3257
asS'stealth'
p3258
(lp3259
g16
asS'gaze'
p3260
(lp3261
g16
ag7
asS"seasons'"
p3262
(lp3263
g10
asS'stars'
p3264
(lp3265
g52
ag52
ag52
ag52
ag52
asS'jaws'
p3266
(lp3267
g16
asS'groan'
p3268
(lp3269
g16
ag16
ag16
ag7
asS'enough'
p3270
(lp3271
g7
ag10
ag33
ag10
ag33
ag10
asS"you'"
p3272
(lp3273
g10
asS'petty'
p3274
(lp3275
g16
asS"dyer's"
p3276
(lp3277
g10
asS'strikes'
p3278
(lp3279
g52
asS'meetness'
p3280
(lp3281
g16
asS'suffers'
p3282
(lp3283
g18
asS'with'
p3284
(lp3285
S'IN'
p3286
ag3286
ag3286
ag3286
ag3286
ag3286
ag3286
ag3286
ag3286
ag3286
ag3286
ag3286
ag3286
ag3286
ag3286
ag3286
ag3286
ag3286
ag3286
ag3286
ag3286
ag3286
ag3286
ag3286
ag3286
ag3286
ag3286
ag3286
ag3286
ag3286
ag3286
ag3286
ag3286
ag3286
ag3286
ag3286
ag3286
ag3286
ag3286
ag3286
ag3286
ag3286
ag3286
ag3286
ag3286
ag3286
ag3286
ag3286
ag3286
ag3286
ag3286
ag3286
ag3286
ag3286
ag3286
ag3286
ag3286
ag3286
ag3286
ag3286
ag3286
ag3286
ag3286
ag3286
ag3286
ag3286
ag3286
ag3286
ag3286
ag3286
ag3286
ag3286
ag3286
ag3286
ag3286
ag3286
ag3286
ag3286
ag3286
ag3286
ag3286
ag3286
ag3286
ag3286
ag3286
ag3286
ag3286
ag3286
ag3286
ag3286
ag3286
ag3286
ag3286
ag3286
ag3286
ag3286
ag3286
ag3286
ag3286
ag3286
ag3286
ag3286
ag3286
ag3286
ag3286
ag3286
ag3286
ag3286
ag3286
ag3286
ag3286
ag3286
ag3286
ag3286
ag3286
ag3286
ag3286
ag3286
ag3286
ag3286
ag3286
ag3286
ag3286
ag3286
ag3286
ag3286
ag3286
ag3286
ag3286
ag3286
ag3286
ag3286
ag3286
ag3286
ag3286
ag3286
ag3286
ag3286
ag3286
ag3286
ag3286
ag3286
ag3286
ag3286
ag3286
ag3286
ag3286
ag3286
ag3286
ag3286
ag3286
ag3286
ag3286
ag3286
ag3286
ag3286
ag3286
ag3286
ag3286
ag3286
ag3286
ag3286
ag3286
ag3286
ag3286
ag3286
ag3286
ag3286
ag3286
ag3286
ag3286
ag3286
ag3286
ag3286
ag3286
ag3286
ag3286
ag3286
ag3286
ag3286
ag3286
asS'happies'
p3287
(lp3288
g18
asS'abused'
p3289
(lp3290
g4
asS'applying'
p3291
(lp3292
g26
asS'rage'
p3293
(lp3294
g16
ag16
ag16
ag16
ag16
asS'niggarding'
p3295
(lp3296
g26
asS'self-same'
p3297
(lp3298
g10
asS'impute'
p3299
(lp3300
g7
asS'abuses'
p3301
(lp3302
g52
asS'strongly'
p3303
(lp3304
g33
ag33
asS'gone'
p3305
(lp3306
S'VBN'
p3307
ag3307
ag3307
ag3307
ag3307
ag3307
ag3307
ag3307
ag3307
asS'intents'
p3308
(lp3309
g52
asS'celestial'
p3310
(lp3311
g10
asS'fist'
p3312
(lp3313
g16
asS'taste'
p3314
(lp3315
g16
ag16
ag16
ag19
asS'ah'
p3316
(lp3317
g16
ag16
ag7
ag18
ag16
ag16
ag16
asS'accents'
p3318
(lp3319
g52
asS'stealing'
p3320
(lp3321
g26
ag26
asS'am'
p3322
(lp3323
S'VBP'
p3324
ag3324
ag3324
ag3324
ag3324
ag3324
ag3324
ag3324
ag3324
ag3324
ag3324
ag3324
ag3324
ag3324
ag3324
ag3324
ag3324
ag3324
ag3324
ag3324
ag3324
ag3324
ag3324
ag3324
ag3324
ag3324
ag3324
ag3324
ag3324
ag3324
ag3324
ag3324
ag3324
ag3324
ag3324
asS'deep'
p3325
(lp3326
g10
ag16
ag10
ag10
ag10
ag10
ag10
ag10
asS'an'
p3327
(lp3328
g1196
ag1196
ag1196
ag1196
ag1196
ag1196
ag1196
ag1196
ag1196
ag1196
ag1196
ag1196
ag1196
ag1196
ag1196
ag1196
ag1196
asS'toiled'
p3329
(lp3330
g17
asS'excusing'
p3331
(lp3332
g26
asS'deem'
p3333
(lp3334
g18
asS'carved'
p3335
(lp3336
g17
asS'pen'
p3337
(lp3338
g10
ag17
ag16
ag10
ag16
ag16
ag10
ag448
ag7
ag16
asS'ay'
p3339
(lp3340
g73
ag16
asS'spends'
p3341
(lp3342
g18
asS'fill'
p3343
(lp3344
g16
ag16
ag7
asS'again'
p3345
(lp3346
S'RB'
p3347
ag3347
ag3347
ag3347
ag3347
ag3347
ag3347
ag3347
ag3347
ag3347
asS'proudly'
p3348
(lp3349
g33
asS"judgment's"
p3350
(lp3351
g10
asS'deserve'
p3352
(lp3353
g7
asS'ever-fixed'
p3354
(lp3355
g10
asS"helen's"
p3356
(lp3357
g52
asS'repent'
p3358
(lp3359
g16
asS'incertainties'
p3360
(lp3361
g52
asS'roses'
p3362
(lp3363
g52
ag52
ag52
ag52
ag52
ag52
asS"wand'ring"
p3364
(lp3365
g16
asS'you'
p3366
(lp3367
S'PRP'
p3368
ag3368
ag3368
ag3368
ag3368
ag3368
ag3368
ag3368
ag3368
ag3368
ag3368
ag3368
ag3368
ag3368
ag3368
ag3368
ag3368
ag3368
ag3368
ag3368
ag3368
ag3368
ag3368
ag3368
ag3368
ag3368
ag3368
ag3368
ag3368
ag3368
ag3368
ag3368
ag3368
ag3368
ag3368
ag3368
ag3368
ag3368
ag3368
ag3368
ag3368
ag3368
ag3368
ag3368
ag3368
ag3368
ag3368
ag3368
ag3368
ag3368
ag3368
ag3368
ag3368
ag3368
ag3368
ag3368
ag3368
ag3368
ag3368
ag3368
ag3368
ag3368
ag3368
ag3368
ag3368
ag3368
ag3368
ag3368
ag3368
ag3368
ag3368
ag3368
ag3368
ag3368
ag3368
ag3368
ag3368
ag3368
ag3368
ag3368
ag3368
ag3368
ag3368
ag3368
ag3368
ag3368
ag3368
ag3368
ag3368
ag3368
ag3368
ag3368
ag3368
ag3368
ag3368
ag3368
ag3368
ag3368
ag3368
ag3368
ag3368
ag3368
ag3368
ag3368
ag3368
ag3368
ag3368
ag3368
ag3368
ag3368
ag3368
asS'abysm'
p3369
(lp3370
g16
asS'poor'
p3371
(lp3372
S'JJ'
p3373
ag3373
ag3373
ag3373
ag3373
ag3373
ag3373
ag3373
ag3373
ag3373
ag3373
ag3373
ag3373
ag3373
ag3373
asS'time'
p3374
(lp3375
S'NN'
p3376
ag3376
ag3376
ag3376
ag3376
ag3376
ag3376
ag3376
ag3376
ag3376
ag3376
ag3376
ag3376
ag3376
ag3376
ag3376
ag3376
ag3376
ag3376
ag3376
ag3376
ag3376
ag3376
ag3376
ag3376
ag3376
ag3376
ag3376
ag3376
ag3376
ag3376
ag3376
ag3376
ag3376
ag3376
ag3376
ag3376
ag3376
ag3376
ag3376
ag3376
ag3376
ag3376
ag3376
ag3376
ag3376
ag3376
ag3376
ag3376
ag3376
ag3376
ag3376
asS'gifts'
p3377
(lp3378
g52
asS'flower'
p3379
(lp3380
g16
ag381
ag16
ag16
ag16
asS'suited'
p3381
(lp3382
g4
asS'brass'
p3383
(lp3384
g10
ag16
ag16
ag16
asS'sequent'
p3385
(lp3386
g10
asS'building'
p3387
(lp3388
g16
asS'backward'
p3389
(lp3390
g16
asS'remote'
p3391
(lp3392
g19
asS'calls'
p3393
(lp3394
g18
ag18
ag18
ag18
ag18
asS'wife'
p3395
(lp3396
S'NN'
p3397
asS"life's"
p3398
(lp3399
g10
asS'dyed'
p3400
(lp3401
g4
asS'repay'
p3402
(lp3403
g19
asS'hugely'
p3404
(lp3405
g33
asS'treason'
p3406
(lp3407
g16
asS'apparel'
p3408
(lp3409
g16
asS'tanned'
p3410
(lp3411
g10
asS'unset'
p3412
(lp3413
g4
asS'all'
p3414
(lp3415
g1196
ag743
ag1196
ag1196
ag1196
ag1196
ag1196
ag1196
ag1196
ag1196
ag1196
ag1196
ag1196
ag743
ag1196
ag1196
ag1196
ag1196
ag1196
ag743
ag1196
ag1196
ag743
ag1196
ag1196
ag1196
ag1196
ag1196
ag1196
ag1196
ag1196
ag743
ag1196
ag1196
ag1196
ag1196
ag1196
ag1196
ag743
ag1196
ag1196
ag1196
ag1196
ag1196
ag1196
ag1196
ag1196
ag1196
ag1196
ag1196
ag1196
ag1196
ag743
ag743
ag743
ag1196
ag1196
ag1196
ag1196
ag1196
ag1196
ag1196
ag1196
ag1196
ag1196
ag1196
ag1196
ag743
ag743
ag743
ag1196
ag1196
ag1196
ag1196
ag743
ag1196
ag743
ag1196
ag1196
ag1196
ag743
ag1196
ag1196
ag1196
ag1196
ag743
ag1196
ag1196
ag1196
ag1196
ag1196
ag1196
ag1196
ag743
ag1196
ag743
ag1196
ag1196
ag743
ag1196
ag1196
ag1196
ag1196
ag743
ag1196
ag1196
ag1196
ag1196
ag1196
ag1196
ag1196
ag1196
ag1196
ag1196
ag1196
ag1196
asS'consider'
p3416
(lp3417
g19
asS'pointing'
p3418
(lp3419
g26
asS'suns'
p3420
(lp3421
g52
asS'forbidden'
p3422
(lp3423
g10
asS'lack'
p3424
(lp3425
g16
ag381
ag16
ag16
asS'neigh'
p3426
(lp3427
g7
asS'worms'
p3428
(lp3429
g52
ag52
ag52
ag52
asS'importune'
p3430
(lp3431
g16
asS'seals'
p3432
(lp3433
g18
asS'sunk'
p3434
(lp3435
g16
asS"'gainst"
p3436
(lp3437
g18
ag2681
ag562
ag562
ag562
ag562
asS'forged'
p3438
(lp3439
g17
asS'welfare'
p3440
(lp3441
g16
asS'follow'
p3442
(lp3443
g7
ag10
asS'meditation'
p3444
(lp3445
g16
asS'faster'
p3446
(lp3447
g484
asS'religious'
p3448
(lp3449
g10
asS"gild'st"
p3450
(lp3451
g19
asS'wakened'
p3452
(lp3453
g10
asS'wanton'
p3454
(lp3455
g16
asS'homage'
p3456
(lp3457
g16
asS'sparkling'
p3458
(lp3459
g26
asS'former'
p3460
(lp3461
S'JJ'
p3462
ag3462
ag3462
ag3462
asS"keep'st"
p3463
(lp3464
g7
asS'to'
p3465
(lp3466
S'TO'
p3467
ag3467
ag3467
ag3467
ag3467
ag3467
ag3467
ag3467
ag3467
ag3467
ag3467
ag3467
ag3467
ag3467
ag3467
ag3467
ag3467
ag3467
ag3467
ag3467
ag3467
ag3467
ag3467
ag3467
ag3467
ag3467
ag3467
ag3467
ag3467
ag3467
ag3467
ag3467
ag3467
ag3467
ag3467
ag3467
ag3467
ag3467
ag3467
ag3467
ag3467
ag3467
ag3467
ag3467
ag3467
ag3467
ag3467
ag3467
ag3467
ag3467
ag3467
ag3467
ag3467
ag3467
ag3467
ag3467
ag3467
ag3467
ag3467
ag3467
ag3467
ag3467
ag3467
ag3467
ag3467
ag3467
ag3467
ag3467
ag3467
ag3467
ag3467
ag3467
ag3467
ag3467
ag3467
ag3467
ag3467
ag3467
ag3467
ag3467
ag3467
ag3467
ag3467
ag3467
ag3467
ag3467
ag3467
ag3467
ag3467
ag3467
ag3467
ag3467
ag3467
ag3467
ag3467
ag3467
ag3467
ag3467
ag3467
ag3467
ag3467
ag3467
ag3467
ag3467
ag3467
ag3467
ag3467
ag3467
ag3467
ag3467
ag3467
ag3467
ag3467
ag3467
ag3467
ag3467
ag3467
ag3467
ag3467
ag3467
ag3467
ag3467
ag3467
ag3467
ag3467
ag3467
ag3467
ag3467
ag3467
ag3467
ag3467
ag3467
ag3467
ag3467
ag3467
ag3467
ag3467
ag3467
ag3467
ag3467
ag3467
ag3467
ag3467
ag3467
ag3467
ag3467
ag3467
ag3467
ag3467
ag3467
ag3467
ag3467
ag3467
ag3467
ag3467
ag3467
ag3467
ag3467
ag3467
ag3467
ag3467
ag3467
ag3467
ag3467
ag3467
ag3467
ag3467
ag3467
ag3467
ag3467
ag3467
ag3467
ag3467
ag3467
ag3467
ag3467
ag3467
ag3467
ag3467
ag3467
ag3467
ag3467
ag3467
ag3467
ag3467
ag3467
ag3467
ag3467
ag3467
ag3467
ag3467
ag3467
ag3467
ag3467
ag3467
ag3467
ag3467
ag3467
ag3467
ag3467
ag3467
ag3467
ag3467
ag3467
ag3467
ag3467
ag3467
ag3467
ag3467
ag3467
ag3467
ag3467
ag3467
ag3467
ag3467
ag3467
ag3467
ag3467
ag3467
ag3467
ag3467
ag3467
ag3467
ag3467
ag3467
ag3467
ag3467
ag3467
ag3467
ag3467
ag3467
ag3467
ag3467
ag3467
ag3467
ag3467
ag3467
ag3467
ag3467
ag3467
ag3467
ag3467
ag3467
ag3467
ag3467
ag3467
ag3467
ag3467
ag3467
ag3467
ag3467
ag3467
ag3467
ag3467
ag3467
ag3467
ag3467
ag3467
ag3467
ag3467
ag3467
ag3467
ag3467
ag3467
ag3467
ag3467
ag3467
ag3467
ag3467
ag3467
ag3467
ag3467
ag3467
ag3467
ag3467
ag3467
ag3467
ag3467
ag3467
ag3467
ag3467
ag3467
ag3467
ag3467
ag3467
ag3467
ag3467
ag3467
ag3467
ag3467
ag3467
ag3467
ag3467
ag3467
ag3467
ag3467
ag3467
ag3467
ag3467
ag3467
ag3467
ag3467
ag3467
ag3467
ag3467
ag3467
ag3467
ag3467
ag3467
ag3467
ag3467
ag3467
ag3467
ag3467
ag3467
ag3467
ag3467
ag3467
ag3467
ag3467
ag3467
ag3467
ag3467
ag3467
ag3467
ag3467
ag3467
ag3467
ag3467
ag3467
ag3467
ag3467
ag3467
ag3467
ag3467
ag3467
ag3467
ag3467
ag3467
ag3467
ag3467
ag3467
ag3467
ag3467
ag3467
ag3467
ag3467
ag3467
ag3467
ag3467
ag3467
ag3467
ag3467
ag3467
ag3467
ag3467
ag3467
ag3467
ag3467
ag3467
ag3467
ag3467
ag3467
ag3467
ag3467
ag3467
ag3467
ag3467
ag3467
ag3467
ag3467
ag3467
ag3467
ag3467
ag3467
ag3467
ag3467
ag3467
ag3467
ag3467
ag3467
ag3467
ag3467
ag3467
ag3467
ag3467
ag3467
ag3467
ag3467
ag3467
ag3467
ag3467
ag3467
ag3467
ag3467
ag3467
ag3467
ag3467
ag3467
ag3467
ag3467
ag3467
ag3467
ag3467
asS'present'
p3468
(lp3469
g10
ag10
ag10
ag10
ag10
asS'dressing'
p3470
(lp3471
g26
asS'nurseth'
p3472
(lp3473
g18
asS'hideous'
p3474
(lp3475
g10
ag10
asS'weeks'
p3476
(lp3477
S'NNS'
p3478
asS'paying'
p3479
(lp3480
S'VBG'
p3481
asS'woman'
p3482
(lp3483
S'NN'
p3484
ag3484
ag3484
asS'returned'
p3485
(lp3486
g17
asS'song'
p3487
(lp3488
g16
ag16
ag16
ag16
asS'very'
p3489
(lp3490
g33
ag33
ag33
ag33
ag33
ag33
ag33
asS"'will"
p3491
(lp3492
g932
asS'saved'
p3493
(lp3494
g17
asS'coloured'
p3495
(lp3496
g17
asS'oblation'
p3497
(lp3498
g16
asS'medicine'
p3499
(lp3500
g7
asS'worst'
p3501
(lp3502
g7
ag49
ag49
ag7
ag49
ag49
ag49
asS'minded'
p3503
(lp3504
g4
asS'fall'
p3505
(lp3506
g16
ag16
ag16
asS'hems'
p3507
(lp3508
g18
asS'difference'
p3509
(lp3510
S'NN'
p3511
asS'vouchsafe'
p3512
(lp3513
g7
ag10
asS'heaven'
p3514
(lp3515
g10
ag4
ag10
ag18
ag16
ag33
ag19
ag10
ag16
ag16
ag16
ag4
ag33
asS'list'
p3516
(lp3517
g7
asS'silvered'
p3518
(lp3519
g17
asS'fearful'
p3520
(lp3521
g10
asS'small'
p3522
(lp3523
S'JJ'
p3524
ag3524
asS"t'"
p3525
(lp3526
g16
asS'tender'
p3527
(lp3528
g16
ag16
ag16
ag16
ag16
ag16
ag16
asS"i'll"
p3529
(lp3530
g16
ag10
ag16
ag10
ag16
ag19
ag16
asS'quicker'
p3531
(lp3532
g381
asS'ten'
p3533
(lp3534
g7
ag7
ag16
ag52
ag4
ag4
ag17
asS'outworn'
p3535
(lp3536
g10
ag4
asS'past'
p3537
(lp3538
g73
ag73
ag73
ag16
ag73
ag10
ag73
ag73
ag10
asS'winds'
p3539
(lp3540
g52
ag52
asS'invention'
p3541
(lp3542
g16
ag16
ag16
ag16
ag16
asS'perspective'
p3543
(lp3544
g16
asS'pass'
p3545
(lp3546
g16
ag16
ag7
asS'savage'
p3547
(lp3548
g10
asS'affable'
p3549
(lp3550
g10
asS'befriends'
p3551
(lp3552
g52
asS'crests'
p3553
(lp3554
g52
asS'creatures'
p3555
(lp3556
g52
ag52
asS'conscience'
p3557
(lp3558
g16
ag16
ag16
asS'gazers'
p3559
(lp3560
g52
asS'what'
p3561
(lp3562
g1768
ag1768
ag1768
ag1768
ag1768
ag1768
ag1768
ag1768
ag1768
ag380
ag1768
ag1768
ag1768
ag1768
ag1768
ag1768
ag1768
ag1768
ag1768
ag1768
ag1768
ag1768
ag1768
ag1768
ag1768
ag1768
ag1768
ag1768
ag1768
ag1768
ag1768
ag1768
ag1768
ag1768
ag1768
ag1768
ag1768
ag1768
ag1768
ag1768
ag1768
ag1768
ag1768
ag1768
ag1768
ag1768
ag1768
ag1768
ag1768
ag1768
ag1768
ag1768
ag1768
ag1768
ag1768
ag1768
ag1768
ag1768
ag1768
ag1768
ag1768
ag1768
ag1768
ag1768
ag1768
ag1768
ag1768
ag1768
ag1768
ag1768
asS'defence'
p3563
(lp3564
g16
ag16
ag16
asS'darkness'
p3565
(lp3566
g16
asS'sweetly'
p3567
(lp3568
g33
ag33
asS'clock'
p3569
(lp3570
g16
ag16
asS'sun'
p3571
(lp3572
g16
ag16
ag16
ag16
ag16
ag16
ag16
ag16
ag10
ag16
ag16
asS'sum'
p3573
(lp3574
g7
ag16
ag16
ag16
asS'brief'
p3575
(lp3576
g7
ag16
ag10
asS'prevailed'
p3577
(lp3578
g4
asS'foison'
p3579
(lp3580
g16
asS'ill-wresting'
p3581
(lp3582
g10
asS'nurse'
p3583
(lp3584
g73
asS'shun'
p3585
(lp3586
g7
ag7
asS'public'
p3587
(lp3588
g10
ag10
ag10
ag10
asS'womb'
p3589
(lp3590
g16
ag16
asS'quenched'
p3591
(lp3592
g17
asS'full'
p3593
(lp3594
S'JJ'
p3595
ag3595
ag3595
ag3595
ag3595
ag3595
ag3595
ag3595
ag3595
ag3595
ag3595
ag3595
ag3595
asS'ranged'
p3596
(lp3597
g4
asS'love-suit'
p3598
(lp3599
g10
asS'answers'
p3600
(lp3601
g18
asS'revenge'
p3602
(lp3603
g16
asS'hours'
p3604
(lp3605
S'NNS'
p3606
ag3606
ag3606
ag3606
ag3606
ag3606
ag3606
ag3606
ag3606
ag3606
ag3606
ag3606
asS'ensconce'
p3607
(lp3608
g7
asS'excess'
p3609
(lp3610
g10
asS'hast'
p3611
(lp3612
g16
ag16
ag19
ag16
ag17
ag17
ag743
ag16
ag16
ag16
ag16
ag16
ag16
ag16
ag16
asS'depend'
p3613
(lp3614
g19
asS'strong'
p3615
(lp3616
S'JJ'
p3617
ag3617
ag3617
ag3617
ag3617
ag3617
ag3617
ag3617
ag3617
asS'respect'
p3618
(lp3619
g16
ag16
ag19
ag16
asS'enmity'
p3620
(lp3621
g16
asS'losses'
p3622
(lp3623
S'NNS'
p3624
asS'dearths'
p3625
(lp3626
g52
asS'reason'
p3627
(lp3628
S'NN'
p3629
ag3629
ag3629
ag3629
ag3629
ag3629
asS'simply'
p3630
(lp3631
S'RB'
p3632
asS'action'
p3633
(lp3634
S'NN'
p3635
ag3635
ag3635
asS'steepy'
p3636
(lp3637
g10
asS'extant'
p3638
(lp3639
g10
asS"day's"
p3640
(lp3641
g16
asS'depart'
p3642
(lp3643
g16
ag16
asS'impiety'
p3644
(lp3645
g16
asS'tendered'
p3646
(lp3647
g17
asS'sealed'
p3648
(lp3649
g17
asS"lion's"
p3650
(lp3651
g16
asS'estimate'
p3652
(lp3653
g16
asS'unthrift'
p3654
(lp3655
g16
asS'self-love'
p3656
(lp3657
g16
ag10
ag10
asS'eye'
p3658
(lp3659
S'NN'
p3660
ag3660
ag3660
ag3660
ag3660
ag3660
ag3660
ag3660
ag3660
ag3660
ag3660
ag3660
ag3660
ag3660
ag3660
ag3660
ag3660
ag3660
ag3660
ag3660
ag3660
ag3660
ag3660
ag3660
ag3660
ag3660
ag3660
ag3660
ag3660
ag3660
ag3660
ag3660
ag3660
ag3660
ag3660
ag3660
ag3660
asS'takes'
p3661
(lp3662
S'VBZ'
p3663
ag3663
ag3663
asS'cherubins'
p3664
(lp3665
g52
asS'contains'
p3666
(lp3667
g18
asS'two'
p3668
(lp3669
S'CD'
p3670
ag3670
ag3670
ag3670
ag3670
ag3670
ag3670
ag3670
ag3670
asS'pearl'
p3671
(lp3672
g10
asS'morn'
p3673
(lp3674
g16
ag10
asS'soil'
p3675
(lp3676
g16
ag16
asS'taken'
p3677
(lp3678
S'VBN'
p3679
ag3679
ag3679
asS'injury'
p3680
(lp3681
g16
ag16
ag16
asS'more'
p3682
(lp3683
g484
ag484
ag484
ag484
ag484
ag381
ag381
ag484
ag381
ag381
ag484
ag381
ag484
ag484
ag484
ag381
ag484
ag484
ag484
ag381
ag484
ag484
ag381
ag484
ag484
ag484
ag381
ag484
ag484
ag484
ag381
ag381
ag381
ag484
ag381
ag381
ag381
ag381
ag484
ag381
ag381
ag484
ag381
ag484
ag381
ag484
ag381
ag484
ag381
ag381
ag484
ag484
ag381
ag484
ag381
ag484
ag381
ag484
ag484
ag381
ag484
ag484
ag484
asS'horses'
p3684
(lp3685
g52
asS'wretched'
p3686
(lp3687
g4
ag17
asS'unlearned'
p3688
(lp3689
g4
asS'knows'
p3690
(lp3691
g18
ag52
ag18
ag18
ag18
ag18
ag52
ag18
ag18
ag18
ag18
asS'delves'
p3692
(lp3693
g18
asS"ow'st"
p3694
(lp3695
g16
asS'foregone'
p3696
(lp3697
g16
asS'spoils'
p3698
(lp3699
g52
asS'woeful'
p3700
(lp3701
g10
asS'excuse'
p3702
(lp3703
g7
ag73
ag16
ag7
ag73
ag7
asS'lameness'
p3704
(lp3705
g16
asS'controlling'
p3706
(lp3707
g26
ag26
asS'broke'
p3708
(lp3709
g17
ag16
asS'graven'
p3710
(lp3711
g16
asS'known'
p3712
(lp3713
g10
asS'doom'
p3714
(lp3715
g16
ag16
ag16
ag16
ag16
asS'glad'
p3716
(lp3717
g16
ag7
asS'cunning'
p3718
(lp3719
g16
ag26
ag26
asS'commanded'
p3720
(lp3721
g4
asS'over-goes'
p3722
(lp3723
g10
asS'none'
p3724
(lp3725
g16
ag16
ag33
ag16
ag16
ag16
ag16
ag16
ag16
ag16
ag16
asS'hour'
p3726
(lp3727
S'NN'
p3728
ag3728
ag3728
asS'besides'
p3729
(lp3730
g73
asS'remain'
p3731
(lp3732
g19
ag19
ag19
asS'nine'
p3733
(lp3734
S'CD'
p3735
asS'learn'
p3736
(lp3737
g16
ag19
asS'marble'
p3738
(lp3739
g10
asS'history'
p3740
(lp3741
S'NN'
p3742
asS'beautiful'
p3743
(lp3744
g10
asS'compare'
p3745
(lp3746
g16
ag16
ag7
ag10
ag16
ag16
asS'attainted'
p3747
(lp3748
g4
asS'visage'
p3749
(lp3750
g16
asS'trial'
p3751
(lp3752
S'NN'
p3753
asS'share'
p3754
(lp3755
S'NN'
p3756
asS'conspire'
p3757
(lp3758
g7
asS'thievish'
p3759
(lp3760
g19
ag10
asS'well-seeing'
p3761
(lp3762
g26
asS'numbers'
p3763
(lp3764
S'NNS'
p3765
ag3765
ag3765
ag3765
asS'well-tuned'
p3766
(lp3767
g10
asS'sharp'
p3768
(lp3769
S'JJ'
p3770
asS'allege'
p3771
(lp3772
g7
asS'huge'
p3773
(lp3774
S'JJ'
p3775
ag3775
asS'needs'
p3776
(lp3777
g52
ag18
ag18
ag52
ag52
asS'drained'
p3778
(lp3779
g4
asS'needy'
p3780
(lp3781
g10
asS"'thus"
p3782
(lp3783
g33
asS'comfort'
p3784
(lp3785
g16
ag16
ag16
ag16
asS'chopt'
p3786
(lp3787
g7
asS"adder's"
p3788
(lp3789
g10
asS'glowing'
p3790
(lp3791
g16
asS"heart's"
p3792
(lp3793
g10
ag16
ag10
ag7
ag16
ag10
ag16
asS'sacred'
p3794
(lp3795
g10
ag17
asS'new-fangled'
p3796
(lp3797
g10
asS'creature'
p3798
(lp3799
g16
asS'simplicity'
p3800
(lp3801
g16
asS'rude'
p3802
(lp3803
g16
ag16
ag16
ag16
asS'disgraced'
p3804
(lp3805
g4
asS'mended'
p3806
(lp3807
g4
asS'blood'
p3808
(lp3809
g16
ag16
ag16
ag16
ag16
ag16
ag16
ag16
asS'coming'
p3810
(lp3811
g26
ag26
asS'monsters'
p3812
(lp3813
g52
asS'replete'
p3814
(lp3815
g16
ag10
asS'a'
(lp3816
S'DT'
p3817
ag3817
ag3817
ag3817
ag3817
ag3817
ag3817
ag3817
ag3817
ag3817
ag3817
ag3817
ag3817
ag3817
ag3817
ag3817
ag3817
ag3817
ag3817
ag3817
ag3817
ag3817
ag3817
ag3817
ag3817
ag3817
ag3817
ag3817
ag3817
ag3817
ag3817
ag3817
ag3817
ag3817
ag3817
ag3817
ag3817
ag3817
ag3817
ag3817
ag3817
ag3817
ag3817
ag3817
ag3817
ag3817
ag3817
ag3817
ag3817
ag3817
ag3817
ag3817
ag3817
ag3817
ag3817
ag3817
ag3817
ag3817
ag3817
ag3817
ag3817
ag3817
ag3817
ag3817
ag3817
ag3817
ag3817
ag3817
ag3817
ag3817
ag3817
ag3817
ag3817
ag3817
ag3817
ag3817
ag3817
ag3817
ag3817
ag3817
ag3817
ag3817
ag3817
ag3817
ag3817
ag3817
ag3817
ag3817
ag3817
ag3817
ag3817
ag3817
ag3817
ag3817
ag3817
ag3817
ag3817
ag3817
ag3817
ag3817
ag3817
ag3817
ag3817
ag3817
ag3817
ag3817
ag3817
ag3817
ag3817
ag3817
ag3817
ag3817
ag3817
ag3817
ag3817
ag3817
ag3817
ag3817
ag3817
ag3817
ag3817
ag3817
ag3817
ag3817
ag3817
ag3817
ag3817
ag3817
ag3817
ag3817
ag3817
ag3817
ag3817
ag3817
ag3817
ag3817
ag3817
ag3817
ag3817
ag3817
ag3817
ag3817
ag3817
ag3817
ag3817
ag3817
ag3817
ag3817
ag3817
ag3817
ag3817
ag3817
ag3817
ag3817
ag3817
ag3817
ag3817
ag3817
ag3817
ag3817
ag3817
asS'refuse'
p3818
(lp3819
g16
asS'short'
p3820
(lp3821
g10
ag10
ag10
ag33
asS'resemble'
p3822
(lp3823
g10
asS'shady'
p3824
(lp3825
g10
asS'register'
p3826
(lp3827
g7
asS"present'st"
p3828
(lp3829
g19
asS'shore'
p3830
(lp3831
g16
ag16
ag16
asS'shade'
p3832
(lp3833
g16
ag10
ag17
ag16
asS'perjured'
p3834
(lp3835
g4
ag4
ag10
asS'banks'
p3836
(lp3837
S'NNS'
p3838
asS'pleasure'
p3839
(lp3840
g16
ag16
ag16
ag16
ag16
ag16
ag16
ag16
ag16
ag16
asS"gav'st"
p3841
(lp3842
g16
ag16
ag16
asS'penury'
p3843
(lp3844
g16
asS'dream'
p3845
(lp3846
g16
ag16
asS"that's"
p3847
(lp3848
g16
asS'recite'
p3849
(lp3850
g7
asS'help'
p3851
(lp3852
g16
ag16
ag16
ag16
asS'winged'
p3853
(lp3854
g10
asS'stays'
p3855
(lp3856
g18
asS'soon'
p3857
(lp3858
S'RB'
p3859
ag3859
ag3859
asS'disabled'
p3860
(lp3861
g17
asS'held'
p3862
(lp3863
g4
ag16
asS'paper'
p3864
(lp3865
S'NN'
p3866
asS'through'
p3867
(lp3868
g73
ag73
ag73
ag73
ag73
ag73
asS'signs'
p3869
(lp3870
S'NNS'
p3871
asS'hell'
p3872
(lp3873
g16
ag16
ag16
ag16
ag7
ag16
ag7
ag16
asS'smiling'
p3874
(lp3875
g26
asS'suffer'
p3876
(lp3877
g7
ag7
asS'saucy'
p3878
(lp3879
g16
ag16
asS'style'
p3880
(lp3881
S'NN'
p3882
ag3882
ag3882
asS'pent'
p3883
(lp3884
g16
ag16
asS'render'
p3885
(lp3886
g16
asS'termed'
p3887
(lp3888
g4
asS'pray'
p3889
(lp3890
g16
asS'inward'
p3891
(lp3892
g10
ag33
ag16
ag16
asS'deeds'
p3893
(lp3894
g18
ag52
ag52
ag52
ag52
ag52
ag52
ag52
ag52
ag52
asS'bosom'
p3895
(lp3896
g16
ag16
asS'teeming'
p3897
(lp3898
g26
asS'famished'
p3899
(lp3900
g4
asS'late'
p3901
(lp3902
g33
asS'resort'
p3903
(lp3904
g16
asS'absence'
p3905
(lp3906
g16
ag16
ag16
ag16
ag16
asS'strange'
p3907
(lp3908
g10
ag10
ag10
ag19
ag16
ag10
asS'threescore'
p3909
(lp3910
g73
asS'ruining'
p3911
(lp3912
g26
asS'self-willed'
p3913
(lp3914
g10
asS'might'
p3915
(lp3916
S'MD'
p3917
ag3917
ag3917
ag3917
ag3917
ag3917
ag3917
ag3917
ag3917
ag3917
ag3917
ag3917
ag3917
ag3917
ag3917
ag3917
ag3917
ag3917
ag3917
ag3917
ag3917
ag3917
ag3917
ag3917
ag3917
ag3917
asS'alter'
p3918
(lp3919
g18
asS'crawls'
p3920
(lp3921
g52
asS'forbear'
p3922
(lp3923
g10
ag16
asS'tune'
p3924
(lp3925
g16
asS'good'
p3926
(lp3927
g10
ag10
ag10
ag10
ag10
ag10
ag10
ag10
ag10
ag10
ag10
ag10
ag10
ag10
ag10
asS'tyrants'
p3928
(lp3929
g52
asS'kingly'
p3930
(lp3931
g33
asS'seeking'
p3932
(lp3933
S'VBG'
p3934
asS'food'
p3935
(lp3936
S'NN'
p3937
asS'ye'
p3938
(lp3939
g10
ag16
asS'storm-beaten'
p3940
(lp3941
g10
asS'speechless'
p3942
(lp3943
g16
ag16
asS'walls'
p3944
(lp3945
g52
ag52
asS'nymphs'
p3946
(lp3947
g52
asS'thereof'
p3948
(lp3949
g16
asS'weeds'
p3950
(lp3951
g52
ag7
ag52
ag52
asS'foot'
p3952
(lp3953
g16
ag16
ag16
asS'hunted'
p3954
(lp3955
g4
asS'breathers'
p3956
(lp3957
g52
asS"mistress'"
p3958
(lp3959
g10
ag10
ag16
ag10
ag16
asS'complain'
p3960
(lp3961
g7
asS'likeness'
p3962
(lp3963
g16
asS'imprisoned'
p3964
(lp3965
g10
ag17
asS'bent'
p3966
(lp3967
g10
ag10
asS'always'
p3968
(lp3969
S'RB'
p3970
asS'truths'
p3971
(lp3972
g52
asS'eloquence'
p3973
(lp3974
g16
asS'tear'
p3975
(lp3976
g10
asS'stopped'
p3977
(lp3978
g52
asS'turns'
p3979
(lp3980
g18
ag52
ag18
ag18
asS'found'
p3981
(lp3982
g17
ag4
ag17
ag7
ag17
ag4
ag17
ag17
ag17
asS'heavy'
p3983
(lp3984
g10
ag10
ag10
ag10
ag10
ag10
asS'weighs'
p3985
(lp3986
g18
asS'proud-pied'
p3987
(lp3988
g10
asS'bends'
p3989
(lp3990
g18
asS'weight'
p3991
(lp3992
g16
asS'house'
p3993
(lp3994
S'NN'
p3995
asS'hard'
p3996
(lp3997
g10
asS'oppressed'
p3998
(lp3999
g4
ag4
asS'surly'
p4000
(lp4001
g10
asS"nature's"
p4002
(lp4003
g10
ag10
ag10
ag10
ag16
ag10
asS'beyond'
p4004
(lp4005
S'IN'
p4006
asS'orient'
p4007
(lp4008
g16
asS'travels'
p4009
(lp4010
g18
asS'lovers'
p4011
(lp4012
g52
asS'missed'
p4013
(lp4014
g4
asS'since'
p4015
(lp4016
S'IN'
p4017
ag4017
ag4017
ag4017
ag4017
ag4017
ag4017
ag4017
ag4017
ag4017
ag4017
ag4017
ag4017
ag4017
ag4017
ag4017
ag4017
ag4017
ag4017
ag4017
ag4017
ag4017
ag4017
ag4017
asS'publish'
p4018
(lp4019
g10
asS'admired'
p4020
(lp4021
g17
asS'health'
p4022
(lp4023
S'NN'
p4024
ag4024
asS'hill'
p4025
(lp4026
g16
asS'print'
p4027
(lp4028
g16
asS'darling'
p4029
(lp4030
g26
asS'issue'
p4031
(lp4032
g7
ag16
asS'sympathized'
p4033
(lp4034
g4
asS'stewards'
p4035
(lp4036
g52
asS'boldness'
p4037
(lp4038
g16
asS'belied'
p4039
(lp4040
g17
ag4
asS'commits'
p4041
(lp4042
g52
ag52
asS'fore-bemoaned'
p4043
(lp4044
g10
asS'forgive'
p4045
(lp4046
g10
asS'pleasant'
p4047
(lp4048
g10
asS'qualify'
p4049
(lp4050
g7
asS'base'
p4051
(lp4052
g16
ag16
ag10
ag10
ag7
asS'impeached'
p4053
(lp4054
g10
asS'put'
p4055
(lp4056
g4
ag17
ag17
ag17
ag4
ag7
ag17
asS'teach'
p4057
(lp4058
g19
ag19
ag7
asS'reproach'
p4059
(lp4060
g16
asS"know'st"
p4061
(lp4062
g16
ag7
ag16
ag16
asS'beast'
p4063
(lp4064
g16
ag16
asS'owners'
p4065
(lp4066
S'NNS'
p4067
asS'service'
p4068
(lp4069
g16
asS"woman's"
p4070
(lp4071
g10
ag10
ag17
asS'noted'
p4072
(lp4073
g10
asS'sicken'
p4074
(lp4075
g19
asS'pure'
p4076
(lp4077
g16
ag16
asS'twenty'
p4078
(lp4079
g16
asS'corrupting'
p4080
(lp4081
g26
asS'feed'
p4082
(lp4083
g16
asS'gazed'
p4084
(lp4085
g4
asS'seeming'
p4086
(lp4087
g26
ag16
ag26
ag26
asS'forwards'
p4088
(lp4089
g52
asS'blush'
p4090
(lp4091
g7
asS'feel'
p4092
(lp4093
g19
ag7
asS'number'
p4094
(lp4095
S'NN'
p4096
ag4096
ag4096
asS'antiquity'
p4097
(lp4098
g16
ag16
asS'elder'
p4099
(lp4100
g381
asS'enlarged'
p4101
(lp4102
g17
asS'revolution'
p4103
(lp4104
g16
asS'done'
p4105
(lp4106
S'VBN'
p4107
ag4107
ag4107
ag4107
ag4107
asS'defects'
p4108
(lp4109
g52
asS'dreading'
p4110
(lp4111
g26
asS'slept'
p4112
(lp4113
g19
asS'rents'
p4114
(lp4115
g52
asS'moan'
p4116
(lp4117
g16
ag16
ag16
ag16
ag16
asS'horse'
p4118
(lp4119
g16
ag16
asS'guest'
p4120
(lp4121
g16
ag16
asS'become'
p4122
(lp4123
g4
asS'rondure'
p4124
(lp4125
g16
asS'together'
p4126
(lp4127
g33
asS'slanderers'
p4128
(lp4129
g52
asS'least'
p4130
(lp4131
g49
ag49
ag49
ag49
ag49
asS'hallowed'
p4132
(lp4133
g17
asS'shamed'
p4134
(lp4135
g4
asS'passed'
p4136
(lp4137
g4
ag4
asS'essays'
p4138
(lp4139
g52
asS'hundred'
p4140
(lp4141
g10
asS'store'
p4142
(lp4143
g16
ag7
ag16
ag16
ag16
ag16
ag16
ag16
ag16
asS'lease'
p4144
(lp4145
g10
ag381
ag16
ag16
asS'youngly'
p4146
(lp4147
g33
asS'selling'
p4148
(lp4149
g26
asS'imperfect'
p4150
(lp4151
g16
asS'saint'
p4152
(lp4153
g16
asS'longing'
p4154
(lp4155
g16
asS'adonis'
p4156
(lp4157
g16
asS'part'
p4158
(lp4159
S'NN'
p4160
ag4160
ag4160
ag4160
ag4160
ag4160
ag4160
ag4160
ag4160
ag4160
ag4160
ag4160
ag4160
ag4160
ag4160
ag4160
ag4160
ag4160
ag4160
ag4160
asS'bower'
p4161
(lp4162
g381
asS'believe'
p4163
(lp4164
g7
ag7
ag19
ag7
asS'grace'
p4165
(lp4166
g7
ag19
ag16
ag16
ag16
ag19
ag16
ag16
ag16
ag16
ag7
asS'king'
p4167
(lp4168
g16
ag16
asS'kind'
p4169
(lp4170
S'NN'
p4171
ag4171
ag4171
ag4171
ag4171
ag4171
ag4171
ag4171
ag4171
ag4171
ag4171
asS'grew'
p4172
(lp4173
S'VBD'
p4174
ag4174
ag4174
ag4174
ag4174
asS'mortality'
p4175
(lp4176
g16
asS'vial'
p4177
(lp4178
g10
asS'double'
p4179
(lp4180
g10
ag10
asS'anticipate'
p4181
(lp4182
g19
asS'mortgaged'
p4183
(lp4184
g4
asS'grey'
p4185
(lp4186
g10
asS'shallowest'
p4187
(lp4188
g49
asS'youth'
p4189
(lp4190
g16
ag16
ag16
ag16
ag16
ag16
ag16
ag16
ag16
ag16
ag33
ag33
ag16
ag16
ag16
asS'autumn'
p4191
(lp4192
g16
ag16
asS'determined'
p4193
(lp4194
g4
asS'contrary'
p4195
(lp4196
g10
asS'supposed'
p4197
(lp4198
g4
ag4
asS'toward'
p4199
(lp4200
S'IN'
p4201
asS'restful'
p4202
(lp4203
g10
asS'afar'
p4204
(lp4205
g16
asS'tongues'
p4206
(lp4207
g52
ag52
ag52
ag52
asS'trifles'
p4208
(lp4209
g52
asS'ages'
p4210
(lp4211
g52
asS'defect'
p4212
(lp4213
g16
ag16
asS'livery'
p4214
(lp4215
g16
asS'new-fired'
p4216
(lp4217
g17
asS'alike'
p4218
(lp4219
g73
asS'showers'
p4220
(lp4221
g52
ag52
asS'travail'
p4222
(lp4223
g16
asS'fading'
p4224
(lp4225
g10
ag26
asS'sensual'
p4226
(lp4227
g10
ag10
asS'sell'
p4228
(lp4229
g7
asS'mountain'
p4230
(lp4231
g16
ag16
asS'nights'
p4232
(lp4233
g52
ag52
asS'built'
p4234
(lp4235
g4
ag4
asS'dancing'
p4236
(lp4237
g26
asS'self'
p4238
(lp4239
g16
ag52
ag16
ag16
ag16
ag16
ag16
ag16
ag16
ag16
ag789
ag16
ag16
ag16
ag16
ag789
ag16
ag16
ag16
ag16
ag10
ag16
ag789
ag16
ag16
ag16
ag16
ag10
ag16
ag743
ag789
ag16
ag16
ag16
ag789
ag16
ag16
ag16
ag16
ag16
ag789
ag789
ag16
ag16
ag789
ag789
ag789
ag16
ag789
ag789
ag16
ag16
ag16
ag16
ag10
ag16
ag789
ag7
ag10
ag16
ag16
ag789
ag16
ag789
ag16
ag16
ag16
ag16
ag16
ag16
ag17
ag16
ag10
ag16
ag16
ag52
asS'onset'
p4240
(lp4241
g16
asS'lifts'
p4242
(lp4243
g18
asS'lip'
p4244
(lp4245
g16
asS'finding'
p4246
(lp4247
g26
ag26
asS'drinks'
p4248
(lp4249
g18
asS'chary'
p4250
(lp4251
g10
asS"art's"
p4252
(lp4253
g10
asS"'had"
p4254
(lp4255
g562
asS'towards'
p4256
(lp4257
g52
ag73
asS'reckon'
p4258
(lp4259
g19
asS'drowns'
p4260
(lp4261
g52
asS'unswayed'
p4262
(lp4263
g17
asS'unused'
p4264
(lp4265
g10
ag10
ag10
ag10
asS'most'
p4266
(lp4267
g1004
ag49
ag1004
ag1004
ag1004
ag1004
ag49
ag1004
ag49
ag1004
ag1004
ag1004
ag1004
ag1004
ag1004
ag1004
ag1004
ag1004
ag49
ag1004
ag1004
ag1004
ag1004
ag49
ag49
ag1004
ag49
asS'offences'
p4268
(lp4269
g52
asS'blunting'
p4270
(lp4271
g26
asS'amazeth'
p4272
(lp4273
g52
asS'nothing'
p4274
(lp4275
S'NN'
p4276
ag4276
ag4276
ag4276
ag4276
ag4276
ag4276
ag4276
ag4276
ag4276
ag4276
ag4276
ag4276
ag4276
ag4276
ag4276
ag4276
ag4276
ag4276
asS'seasons'
p4277
(lp4278
g52
ag52
asS"o'ercharged"
p4279
(lp4280
g4
asS'wastes'
p4281
(lp4282
g52
ag18
asS'measured'
p4283
(lp4284
g4
asS'stands'
p4285
(lp4286
g52
ag18
ag52
asS'chronicle'
p4287
(lp4288
g16
asS'feasting'
p4289
(lp4290
g26
asS'windows'
p4291
(lp4292
g52
ag52
ag52
asS'builded'
p4293
(lp4294
g4
asS'clear'
p4295
(lp4296
g10
ag10
ag10
asS'sometimes'
p4297
(lp4298
g33
asS'cover'
p4299
(lp4300
g33
ag7
ag7
asS'unbred'
p4301
(lp4302
g17
asS'reeleth'
p4303
(lp4304
g18
asS'barren'
p4305
(lp4306
g52
ag10
ag10
ag33
ag10
asS'convertest'
p4307
(lp4308
g16
asS'eisel'
p4309
(lp4310
g16
asS'lying'
p4311
(lp4312
g26
asS'stones'
p4313
(lp4314
g52
asS'self-substantial'
p4315
(lp4316
g10
asS'despise'
p4317
(lp4318
g19
ag7
asS'gold'
p4319
(lp4320
g10
ag10
asS'gates'
p4321
(lp4322
g52
asS"y'have"
p4323
(lp4324
g19
asS'wailing'
p4325
(lp4326
g16
asS'fond'
p4327
(lp4328
g7
ag16
asS'bending'
p4329
(lp4330
g26
ag26
asS'rhymers'
p4331
(lp4332
g52
asS'wasted'
p4333
(lp4334
g10
asS'registers'
p4335
(lp4336
g52
asS'fine'
p4337
(lp4338
g10
ag10
asS'find'
p4339
(lp4340
g19
ag52
ag7
ag7
ag19
ag7
ag7
ag7
ag7
ag19
ag7
ag7
ag19
ag19
ag19
ag7
asS'viewest'
p4341
(lp4342
g16
asS'sportive'
p4343
(lp4344
g10
asS'gilded'
p4345
(lp4346
g10
ag17
ag10
asS'flattery'
p4347
(lp4348
g16
ag16
ag16
asS'shouldst'
p4349
(lp4350
g10
ag10
ag16
ag10
ag19
ag16
asS'deserts'
p4351
(lp4352
g52
ag52
asS'ruin'
p4353
(lp4354
g10
asS'less'
p4355
(lp4356
g381
ag381
ag484
ag484
ag381
ag484
ag381
asS'waiting'
p4357
(lp4358
g26
asS'vision'
p4359
(lp4360
g16
asS'betray'
p4361
(lp4362
g16
ag7
asS'beauteous'
p4363
(lp4364
g10
ag10
ag10
ag10
ag10
ag10
ag10
ag10
ag10
asS'fiend'
p4365
(lp4366
g10
ag16
asS"painter's"
p4367
(lp4368
g10
asS'niggard'
p4369
(lp4370
g33
ag10
asS'gains'
p4371
(lp4372
S'NNS'
p4373
asS'mercy'
p4374
(lp4375
g7
asS'compiled'
p4376
(lp4377
g17
asS'express'
p4378
(lp4379
g7
ag19
asS'impregnable'
p4380
(lp4381
g19
asS'trees'
p4382
(lp4383
g52
asS'remedy'
p4384
(lp4385
g16
ag16
asS'hid'
p4386
(lp4387
g19
ag16
asS'breast'
p4388
(lp4389
g16
ag16
ag16
ag16
ag16
ag16
ag16
asS'compass'
p4390
(lp4391
g16
asS'swart-complexioned'
p4392
(lp4393
g10
asS'sepulchres'
p4394
(lp4395
g52
asS"send'st"
p4396
(lp4397
g16
asS'him'
p4398
(lp4399
S'PRP'
p4400
ag4400
ag4400
ag4400
ag4400
ag4400
ag4400
ag4400
ag4400
ag4400
ag4400
ag4400
ag4400
ag4400
ag4400
ag4400
ag4400
ag4400
ag4400
ag4400
ag4400
ag4400
ag4400
ag4400
ag4400
ag4400
ag4400
ag4400
ag4400
ag4400
ag4400
ag4400
ag4400
ag4400
ag4400
ag4400
ag4400
asS'distraction'
p4401
(lp4402
g16
asS'grievances'
p4403
(lp4404
g52
asS'pleasures'
p4405
(lp4406
g52
asS'cry'
p4407
(lp4408
g19
ag18
asS'impanelled'
p4409
(lp4410
g4
asS'remove'
p4411
(lp4412
g7
ag7
asS'augurs'
p4413
(lp4414
g52
asS'common'
p4415
(lp4416
S'JJ'
p4417
ag4417
ag4417
ag4417
asS'kill'
p4418
(lp4419
g7
ag7
ag19
ag7
asS'poisoned'
p4420
(lp4421
g4
asS'wrongfully'
p4422
(lp4423
g33
asS'bars'
p4424
(lp4425
g52
ag52
asS'set'
p4426
(lp4427
g4
ag4
ag16
ag4
ag7
ag7
ag7
asS'art'
p4428
(lp4429
g16
ag16
ag16
ag16
ag16
ag19
ag16
ag16
ag16
ag33
ag16
ag16
ag16
ag16
ag16
ag16
ag16
ag16
ag16
ag33
ag33
ag16
ag19
ag16
ag16
ag16
ag16
ag16
ag33
ag16
ag16
ag33
ag16
ag16
ag16
ag33
ag16
ag16
ag33
ag16
ag7
ag16
ag16
ag16
ag73
ag16
ag16
ag16
ag16
ag18
ag16
asS'declines'
p4430
(lp4431
g52
asS'jade'
p4432
(lp4433
g16
asS"o'ersways"
p4434
(lp4435
g18
asS'see'
p4436
(lp4437
g7
ag10
ag7
ag19
ag19
ag7
ag7
ag19
ag19
ag7
ag7
ag16
ag7
ag19
ag7
ag16
ag19
ag7
ag19
ag7
ag19
ag7
ag19
ag19
ag19
ag19
ag19
ag7
ag19
ag4
ag19
ag7
ag7
ag19
asS'bare'
p4438
(lp4439
g16
ag16
ag16
ag16
asS'are'
p4440
(lp4441
S'VBP'
p4442
ag4442
ag4442
ag4442
ag4442
ag4442
ag4442
ag4442
ag4442
ag4442
ag4442
ag4442
ag4442
ag4442
ag4442
ag4442
ag4442
ag4442
ag4442
ag4442
ag4442
ag4442
ag4442
ag4442
ag4442
ag4442
ag4442
ag4442
ag4442
ag4442
ag4442
ag4442
ag4442
ag4442
ag4442
ag4442
ag4442
ag4442
ag4442
ag4442
ag4442
ag4442
ag4442
ag4442
ag4442
ag4442
ag4442
ag4442
ag4442
ag4442
ag4442
ag4442
ag4442
ag4442
ag4442
ag4442
ag4442
ag4442
ag4442
ag4442
ag4442
ag4442
ag4442
ag4442
ag4442
ag4442
ag4442
ag4442
ag4442
asS'sea'
p4443
(lp4444
g16
ag16
ag16
ag16
asS'presenteth'
p4445
(lp4446
g10
asS'bark'
p4447
(lp4448
g16
ag16
asS'outward'
p4449
(lp4450
g10
ag73
ag16
ag10
ag10
ag10
ag16
asS'spirits'
p4451
(lp4452
g52
ag52
asS'forlorn'
p4453
(lp4454
g10
asS'please'
p4455
(lp4456
g7
ag7
ag7
ag7
asS'drooping'
p4457
(lp4458
g26
asS'unions'
p4459
(lp4460
g52
asS'won'
p4461
(lp4462
g4
asS'gentlest'
p4463
(lp4464
g49
asS'affairs'
p4465
(lp4466
S'NNS'
p4467
ag4467
asS'woe'
p4468
(lp4469
g16
ag16
ag7
ag19
ag16
ag7
ag16
ag16
ag52
ag16
ag16
ag10
asS'guilt'
p4470
(lp4471
g16
asS'rite'
p4472
(lp4473
g16
asS'tibey'
p4474
(lp4475
g16
asS'thrive'
p4476
(lp4477
g7
ag10
asS'endure'
p4478
(lp4479
g7
asS'knowing'
p4480
(lp4481
g26
ag26
ag26
ag26
asS'creating'
p4482
(lp4483
S'VBG'
p4484
asS'sold'
p4485
(lp4486
g4
asS'sole'
p4487
(lp4488
g10
asS'vanishing'
p4489
(lp4490
g26
asS'death'
p4491
(lp4492
S'NN'
p4493
ag4493
ag4493
ag4493
ag4493
ag4493
ag4493
ag4493
ag4493
ag4493
ag4493
ag4493
ag4493
ag4493
asS'alters'
p4494
(lp4495
g52
ag52
asS'both'
p4496
(lp4497
g1196
ag1196
ag1196
ag1196
ag1196
ag1196
ag1196
ag1196
ag1196
ag1196
ag1196
ag1196
ag1196
ag1196
ag1196
ag1196
asS'feeling'
p4498
(lp4499
g16
ag16
asS'last'
p4500
(lp4501
S'JJ'
p4502
ag4502
asS'grounded'
p4503
(lp4504
g10
ag17
asS'desired'
p4505
(lp4506
g10
ag4
asS'thou'
p4507
(lp4508
g16
ag16
ag10
ag10
ag16
ag16
ag18
ag16
ag73
ag10
ag10
ag16
ag16
ag16
ag16
ag16
ag16
ag18
ag10
ag7
ag10
ag10
ag16
ag16
ag16
ag19
ag19
ag18
ag10
ag10
ag18
ag10
ag10
ag18
ag10
ag16
ag16
ag16
ag19
ag19
ag10
ag16
ag16
ag7
ag16
ag10
ag7
ag16
ag16
ag10
ag17
ag16
ag7
ag73
ag16
ag16
ag10
ag10
ag16
ag10
ag10
ag10
ag7
ag10
ag16
ag16
ag10
ag17
ag7
ag52
ag16
ag16
ag16
ag4
ag10
ag16
ag16
ag16
ag10
ag10
ag10
ag10
ag16
ag16
ag10
ag10
ag10
ag10
ag52
ag10
ag16
ag16
ag16
ag16
ag10
ag16
ag10
ag16
ag16
ag16
ag16
ag16
ag10
ag16
ag16
ag16
ag73
ag10
ag10
ag16
ag16
ag18
ag16
ag18
ag10
ag33
ag16
ag16
ag7
ag16
ag10
ag10
ag16
ag16
ag16
ag16
ag10
ag16
ag16
ag10
ag16
ag19
ag7
ag16
ag16
ag10
ag10
ag10
ag16
ag16
ag16
ag16
ag10
ag16
ag16
ag16
ag19
ag16
ag10
ag18
ag10
ag16
ag7
ag10
ag52
ag16
ag10
ag10
ag10
ag16
ag7
ag16
ag16
ag10
ag10
ag16
ag73
ag33
ag10
ag16
ag16
ag16
ag10
ag7
ag18
ag16
ag16
ag16
ag16
ag10
ag10
ag10
ag18
ag16
ag16
ag16
ag10
ag16
ag33
ag10
ag16
ag10
ag16
ag16
ag16
ag10
ag7
ag7
ag16
ag16
ag10
ag16
ag10
ag10
ag10
ag16
ag10
ag10
ag18
ag16
ag16
ag10
ag10
ag7
ag16
ag16
ag16
ag7
ag19
ag16
ag16
ag10
ag10
ag16
ag16
ag19
ag16
ag16
ag10
asS'anon'
p4509
(lp4510
g16
ag16
asS'forgotten'
p4511
(lp4512
g4
asS'poverty'
p4513
(lp4514
g16
ag16
asS'possesseth'
p4515
(lp4516
g16
asS'approve'
p4517
(lp4518
g7
ag7
ag7
asS'finds'
p4519
(lp4520
g18
ag18
asS'usest'
p4521
(lp4522
g49
asS'flies'
p4523
(lp4524
g18
ag18
ag18
asS'majesty'
p4525
(lp4526
g16
ag16
asS'point'
p4527
(lp4528
g16
ag16
asS'reasons'
p4529
(lp4530
S'NNS'
p4531
ag4531
ag4531
asS'sweet'
p4532
(lp4533
g10
ag10
ag10
ag10
ag10
ag10
ag10
ag10
ag10
ag10
ag10
ag10
ag10
ag10
ag10
ag10
ag52
ag10
ag10
ag10
ag10
ag10
ag10
ag10
ag10
ag10
ag10
ag10
ag10
ag10
ag10
ag10
ag10
ag16
ag10
ag10
ag10
ag10
ag16
ag10
ag10
ag10
ag16
ag16
ag10
ag10
ag16
ag10
ag16
ag16
ag10
asS'loan'
p4534
(lp4535
S'NN'
p4536
asS'manners'
p4537
(lp4538
g52
ag52
ag52
asS'except'
p4539
(lp4540
g73
asS'liker'
p4541
(lp4542
g381
asS'worthless'
p4543
(lp4544
g16
ag16
asS'devil'
p4545
(lp4546
g10
asS'unworthiness'
p4547
(lp4548
g16
asS"'scaped"
p4549
(lp4550
g17
asS'arrest'
p4551
(lp4552
g33
asS'stamp'
p4553
(lp4554
g16
asS'devouring'
p4555
(lp4556
g10
asS'acceptance'
p4557
(lp4558
g16
asS'satire'
p4559
(lp4560
g16
asS'due'
p4561
(lp4562
g10
ag10
ag10
ag10
ag10
ag10
asS'adulterate'
p4563
(lp4564
g10
asS'whom'
p4565
(lp4566
S'WP'
p4567
ag4567
ag4567
ag4567
ag4567
ag4567
ag4567
ag4567
ag4567
ag4567
ag4567
ag4567
asS'secret'
p4568
(lp4569
g10
asS"wood's"
p4570
(lp4571
g16
asS'wait'
p4572
(lp4573
g7
ag19
asS'delights'
p4574
(lp4575
g52
ag52
asS'rosy'
p4576
(lp4577
g10
asS'firm'
p4578
(lp4579
g16
asS'lived'
p4580
(lp4581
g17
ag17
ag4
ag4
asS'partly'
p4582
(lp4583
S'RB'
p4584
asS'gay'
p4585
(lp4586
g16
ag16
asS"'twixt"
p4587
(lp4588
S'FW'
p4589
ag520
asS'fire'
p4590
(lp4591
g16
ag16
ag16
ag16
ag16
ag16
ag16
ag16
ag16
ag16
asS"dial's"
p4592
(lp4593
g16
asS'overthrow'
p4594
(lp4595
g16
asS'convert'
p4596
(lp4597
g16
asS'else'
p4598
(lp4599
g33
ag33
ag33
ag33
ag33
asS'lives'
p4600
(lp4601
g52
ag18
ag18
ag18
ag18
ag52
ag52
ag18
ag18
asS'receive'
p4602
(lp4603
g19
asS'mournful'
p4604
(lp4605
g10
asS'plants'
p4606
(lp4607
S'NNS'
p4608
asS'utmost'
p4609
(lp4610
g16
asS'look'
p4611
(lp4612
g16
ag7
ag16
ag16
ag7
ag16
ag7
ag16
ag19
ag16
ag16
ag19
ag19
ag7
ag16
ag7
ag19
ag7
ag19
ag7
ag19
ag7
asS'straight'
p4613
(lp4614
g10
ag33
ag10
ag4
ag10
ag17
ag16
asS'admire'
p4615
(lp4616
g19
asS'pace'
p4617
(lp4618
S'NN'
p4619
ag4619
ag4619
asS'while'
p4620
(lp4621
g16
ag73
ag73
ag73
ag73
ag73
asS'rigour'
p4622
(lp4623
g16
asS"intermixed'"
p4624
(lp4625
g16
asS'kissing'
p4626
(lp4627
g26
asS'eclipses'
p4628
(lp4629
g52
ag52
asS'all-oblivious'
p4630
(lp4631
g10
asS'odour'
p4632
(lp4633
g16
ag16
ag16
asS"is't"
p4634
(lp4635
g16
ag18
asS'confound'
p4636
(lp4637
g16
ag16
asS'vow'
p4638
(lp4639
g16
ag33
asS'unperfect'
p4640
(lp4641
g10
asS'owes'
p4642
(lp4643
g18
asS'seen'
p4644
(lp4645
S'VBN'
p4646
ag4646
ag4646
ag4646
ag4646
ag4646
ag4646
ag4646
ag4646
ag4646
ag4646
asS'rid'
p4647
(lp4648
g10
asS'seest'
p4649
(lp4650
g19
ag19
asS'fairer'
p4651
(lp4652
g381
ag18
ag381
asS'chase'
p4653
(lp4654
g16
ag16
asS'twofold'
p4655
(lp4656
g10
asS'grant'
p4657
(lp4658
g16
ag19
ag19
ag16
asS'lengths'
p4659
(lp4660
g52
asS'bristly'
p4661
(lp4662
g33
asS'belong'
p4663
(lp4664
g73
ag73
asS'engrossed'
p4665
(lp4666
g4
asS'wherein'
p4667
(lp4668
g17
ag16
ag16
ag17
ag19
asS'discourse'
p4669
(lp4670
g16
asS'esteemed'
p4671
(lp4672
g4
ag4
asS'ruth'
p4673
(lp4674
g16
asS'composition'
p4675
(lp4676
g16
asS'covetous'
p4677
(lp4678
g10
asS'used'
p4679
(lp4680
g17
ag4
ag4
asS'lie'
p4681
(lp4682
g16
ag7
ag16
ag16
ag1195
ag7
ag4589
ag16
ag7
ag52
ag16
ag16
asS'mow'
p4683
(lp4684
g7
asS'moment'
p4685
(lp4686
S'NN'
p4687
asS'flown'
p4688
(lp4689
g4
asS'moving'
p4690
(lp4691
g26
ag26
asS'purpose'
p4692
(lp4693
g10
ag33
ag16
ag16
asS'wretchcd'
p4694
(lp4695
g10
asS'early'
p4696
(lp4697
g10
asS'task'
p4698
(lp4699
g7
asS'older'
p4700
(lp4701
g381
asS'accumulate'
p4702
(lp4703
g16
asS'cheek'
p4704
(lp4705
g19
ag16
ag16
ag16
asS'loathsome'
p4706
(lp4707
g16
asS"frown'st"
p4708
(lp4709
g10
asS'grind'
p4710
(lp4711
g7
asS'morrow'
p4712
(lp4713
g16
asS'cheer'
p4714
(lp4715
g16
asS'edge'
p4716
(lp4717
g16
ag16
ag16
asS'starved'
p4718
(lp4719
g4
asS'toil'
p4720
(lp4721
g16
ag16
ag19
ag16
asS'stelled'
p4722
(lp4723
g17
asS'spend'
p4724
(lp4725
g19
ag19
ag7
ag19
ag7
asS'plagues'
p4726
(lp4727
g52
asS'presume'
p4728
(lp4729
g16
asS'salve'
p4730
(lp4731
g16
ag16
asS'shape'
p4732
(lp4733
g16
ag16
ag16
ag16
ag16
asS'aright'
p4734
(lp4735
g10
asS'injuries'
p4736
(lp4737
g52
ag52
asS'unto'
p4738
(lp4739
g19
asS'gems'
p4740
(lp4741
g18
asS'tables'
p4742
(lp4743
g52
ag52
asS'cut'
p4744
(lp4745
g7
asS'cup'
p4746
(lp4747
g16
asS'hated'
p4748
(lp4749
g17
asS'decayed'
p4750
(lp4751
g4
asS'hues'
p4752
(lp4753
g52
asS'crying'
p4754
(lp4755
g26
asS"either's"
p4756
(lp4757
g7
ag16
asS"tongue's"
p4758
(lp4759
g16
asS'march'
p4760
(lp4761
g7
asS'lacking'
p4762
(lp4763
g26
asS'big'
p4764
(lp4765
S'JJ'
p4766
asS'bid'
p4767
(lp4768
g4
asS'advocate'
p4769
(lp4770
g16
asS'judgement'
p4771
(lp4772
g16
ag16
asS'redeem'
p4773
(lp4774
g16
asS'quest'
p4775
(lp4776
g16
ag49
asS'messengers'
p4777
(lp4778
g52
asS'dearly'
p4779
(lp4780
g16
asS'necessary'
p4781
(lp4782
S'JJ'
p4783
asS'sharpened'
p4784
(lp4785
g4
asS"garments'"
p4786
(lp4787
g16
asS'outright'
p4788
(lp4789
g10
asS'inviting'
p4790
(lp4791
g26
asS'follows'
p4792
(lp4793
S'VBZ'
p4794
asS"hate'"
p4795
(lp4796
g7
ag16
ag16
asS'strife'
p4797
(lp4798
g16
asS'shapes'
p4799
(lp4800
g18
asS'translated'
p4801
(lp4802
g4
asS'tribes'
p4803
(lp4804
g52
asS'foolish'
p4805
(lp4806
g10
asS'canst'
p4807
(lp4808
g19
ag16
ag4
ag16
ag16
ag16
ag10
asS'often'
p4809
(lp4810
S'RB'
p4811
ag4811
asS'wombs'
p4812
(lp4813
g52
asS'spring'
p4814
(lp4815
g16
ag16
ag16
ag16
ag16
asS'creation'
p4816
(lp4817
g16
ag16
asS'some'
p4818
(lp4819
S'DT'
p4820
ag4820
ag4820
ag4820
ag4820
ag4820
ag4820
ag4820
ag4820
ag4820
ag4820
ag4820
ag4820
ag4820
ag4820
ag4820
ag4820
ag4820
ag4820
ag4820
ag4820
ag4820
ag4820
ag4820
ag4820
ag4820
ag4820
ag4820
ag4820
ag4820
ag4820
asS'play'
p4821
(lp4822
g7
ag16
ag7
ag7
ag7
asS'sighs'
p4823
(lp4824
g52
asS'lips'
p4825
(lp4826
g52
ag52
ag52
ag52
ag52
ag52
ag52
asS'added'
p4827
(lp4828
g4
ag10
asS'sight'
p4829
(lp4830
g16
ag16
ag16
ag16
ag16
ag16
ag16
ag16
ag16
ag16
ag16
ag4
ag16
ag16
ag16
ag16
ag16
asS'curious'
p4831
(lp4832
g10
asS'pale'
p4833
(lp4834
g10
ag10
asS'sauces'
p4835
(lp4836
g52
asS'delivered'
p4837
(lp4838
g4
asS'acquaintance'
p4839
(lp4840
g16
ag7
ag16
asS'fairing'
p4841
(lp4842
g26
asS'shall'
p4843
(lp4844
S'MD'
p4845
ag4845
ag4845
ag4845
ag4845
ag4845
ag4845
ag4845
ag4845
ag4845
ag4845
ag4845
ag4845
ag4845
ag4845
ag4845
ag4845
ag4845
ag4845
ag4845
ag4845
ag4845
ag4845
ag4845
ag4845
ag4845
ag4845
ag4845
ag4845
ag4845
ag4845
ag4845
ag4845
ag4845
ag4845
ag4845
ag4845
ag4845
ag4845
ag4845
ag4845
ag4845
ag4845
ag4845
ag4845
ag4845
ag4845
ag4845
ag4845
ag4845
ag4845
ag4845
ag4845
ag4845
ag4845
ag4845
ag4845
ag4845
ag4845
asS'oblivion'
p4846
(lp4847
g16
asS'balmy'
p4848
(lp4849
g10
asS'kind-hearted'
p4850
(lp4851
g10
asS'barrenly'
p4852
(lp4853
g33
asS'lark'
p4854
(lp4855
g16
asS'worship'
p4856
(lp4857
g16
asS'be'
p4858
(lp4859
S'VB'
p4860
ag4860
ag4860
ag4860
ag4860
ag4860
ag4860
ag4860
ag4860
ag4860
ag4860
ag4860
ag4860
ag4860
ag4860
ag4860
ag4860
ag4860
ag4860
ag4860
ag4860
ag4860
ag4860
ag4860
ag4860
ag4860
ag4860
ag4860
ag4860
ag4860
ag4860
ag4860
ag4860
ag4860
ag4860
ag4860
ag4860
ag4860
ag4860
ag4860
ag4860
ag4860
ag4860
ag4860
ag4860
ag4860
ag4860
ag4860
ag4860
ag4860
ag4860
ag4860
ag4860
ag4860
ag4860
ag4860
ag4860
ag4860
ag4860
ag4860
ag4860
ag4860
ag4860
ag4860
ag4860
ag4860
ag4860
ag4860
ag4860
ag4860
ag4860
ag4860
ag4860
ag4860
ag4860
ag4860
ag4860
ag4860
ag4860
ag4860
ag4860
ag4860
ag4860
ag4860
ag4860
ag4860
ag4860
ag4860
ag4860
ag4860
ag4860
ag4860
ag4860
ag4860
ag4860
ag4860
ag4860
ag4860
ag4860
ag4860
ag4860
ag4860
ag4860
ag4860
ag4860
ag4860
ag4860
ag4860
ag4860
ag4860
ag4860
ag4860
ag4860
ag4860
ag4860
ag4860
ag4860
ag4860
ag4860
ag4860
ag4860
ag4860
ag4860
ag4860
ag4860
ag4860
ag4860
ag4860
ag4860
ag4860
ag4860
ag4860
ag4860
ag4860
ag4860
ag4860
ag4860
ag4860
ag4860
ag4860
ag4860
asS'run'
p4861
(lp4862
g16
asS'remembered'
p4863
(lp4864
g4
ag17
ag4
ag4
asS'clay'
p4865
(lp4866
g16
asS"shadow's"
p4867
(lp4868
g10
asS"'this"
p4869
(lp4870
g562
asS'aloft'
p4871
(lp4872
g33
asS'rent'
p4873
(lp4874
g16
asS'fee'
p4875
(lp4876
g16
asS'concealed'
p4877
(lp4878
g17
asS'universe'
p4879
(lp4880
g16
asS'by'
p4881
(lp4882
S'IN'
p4883
ag4883
ag4883
ag4883
ag4883
ag4883
ag4883
ag4883
ag4883
ag4883
ag4883
ag4883
ag4883
ag4883
ag4883
ag4883
ag4883
ag4883
ag4883
ag4883
ag4883
ag4883
ag4883
ag4883
ag4883
ag4883
ag4883
ag4883
ag4883
ag4883
ag4883
ag4883
ag4883
ag4883
ag4883
ag4883
ag4883
ag4883
ag4883
ag4883
ag4883
ag4883
ag4883
ag4883
ag4883
ag4883
ag4883
ag4883
ag4883
ag4883
ag4883
ag4883
ag4883
ag4883
ag4883
ag4883
ag4883
ag4883
ag4883
ag4883
ag4883
ag4883
ag4883
ag4883
ag4883
ag4883
ag4883
ag4883
ag4883
ag4883
ag4883
ag4883
ag4883
ag4883
ag4883
ag4883
ag4883
ag4883
ag4883
ag4883
ag4883
ag4883
ag4883
ag4883
ag4883
ag4883
ag4883
ag4883
ag4883
ag4883
ag4883
asS'shine'
p4884
(lp4885
g7
ag7
ag7
ag16
asS'faith'
p4886
(lp4887
g16
ag16
ag16
ag16
ag16
asS'deserved'
p4888
(lp4889
g4
asS'wrinkles'
p4890
(lp4891
g52
ag52
ag52
ag52
ag52
asS'deserves'
p4892
(lp4893
g18
asS'ambush'
p4894
(lp4895
g16
asS'hatred'
p4896
(lp4897
g4
asS'tenants'
p4898
(lp4899
g52
asS'youthful'
p4900
(lp4901
g10
ag10
asS'misplaced'
p4902
(lp4903
g17
asS'repair'
p4904
(lp4905
g16
ag7
ag16
asS'conquest'
p4906
(lp4907
g16
ag16
ag16
asS'within'
p4908
(lp4909
S'IN'
p4910
ag4910
ag4910
ag4910
ag4910
ag4910
ag4910
ag4910
ag4910
ag4910
ag4910
asS'warmed'
p4911
(lp4912
g4
asS'debateth'
p4913
(lp4914
g16
asS'services'
p4915
(lp4916
S'NNS'
p4917
asS'because'
p4918
(lp4919
g73
ag73
ag73
asS'remembrance'
p4920
(lp4921
g16
ag16
asS'lesson'
p4922
(lp4923
g16
asS"sharp'st"
p4924
(lp4925
g16
asS'story'
p4926
(lp4927
S'NN'
p4928
ag4928
ag4928
ag4928
asS'featureless'
p4929
(lp4930
g16
asS'spending'
p4931
(lp4932
g16
asS'question'
p4933
(lp4934
g16
ag16
asS'chide'
p4935
(lp4936
g10
ag10
ag19
ag19
asS'whereto'
p4937
(lp4938
g16
ag16
ag73
asS'slandering'
p4939
(lp4940
g26
asS'suit'
p4941
(lp4942
g16
asS'translate'
p4943
(lp4944
g7
asS'himself'
p4945
(lp4946
S'PRP'
p4947
ag4947
asS'arise'
p4948
(lp4949
g16
asS'elsewhere'
p4950
(lp4951
g33
ag33
ag33
asS'governs'
p4952
(lp4953
g18
asS'graciously'
p4954
(lp4955
g33
asS'healthful'
p4956
(lp4957
g10
ag10
asS'frost'
p4958
(lp4959
g16
asS'vowing'
p4960
(lp4961
g26
asS'authority'
p4962
(lp4963
g16
asS'newer'
p4964
(lp4965
g381
ag381
asS'filed'
p4966
(lp4967
g17
asS'hopes'
p4968
(lp4969
g52
ag52
asS'line'
p4970
(lp4971
S'NN'
p4972
ag4972
ag4972
asS'dull'
p4973
(lp4974
g10
ag10
ag10
ag7
ag7
ag16
asS'usury'
p4975
(lp4976
g16
asS'directed'
p4977
(lp4978
g17
asS'bevel'
p4979
(lp4980
g4
asS'immured'
p4981
(lp4982
g4
asS"lover's"
p4983
(lp4984
g10
asS'sullied'
p4985
(lp4986
g7
asS'us'
p4987
(lp4988
S'PRP'
p4989
ag4989
asS'lords'
p4990
(lp4991
g52
asS'maturity'
p4992
(lp4993
S'NN'
p4994
asS'slander'
p4995
(lp4996
g16
ag16
asS'hied'
p4997
(lp4998
g17
asS'called'
p4999
(lp5000
g4
ag4
asS'vassalage'
p5001
(lp5002
g16
asS'bell'
p5003
(lp5004
g16
asS'sort'
p5005
(lp5006
g16
ag16
asS'constant'
p5007
(lp5008
g10
ag10
ag10
asS'bind'
p5009
(lp5010
g73
asS'goodly'
p5011
(lp5012
g33
asS'allayed'
p5013
(lp5014
g4
asS'influence'
p5015
(lp5016
g16
ag16
asS'rarities'
p5017
(lp5018
g52
asS'single'
p5019
(lp5020
S'JJ'
p5021
ag5021
ag5021
ag5021
asS'mightier'
p5022
(lp5023
g381
asS'assailed'
p5024
(lp5025
g4
ag17
asS'surmise'
p5026
(lp5027
g16
asS'rainy'
p5028
(lp5029
g16
asS'sullen'
p5030
(lp5031
g4
ag16
asS'sunken'
p5032
(lp5033
g10
asS'impediments'
p5034
(lp5035
g52
asS'peace'
p5036
(lp5037
g16
ag16
asS'fears'
p5038
(lp5039
g18
ag18
ag52
ag52
ag52
ag18
asS'dimmed'
p5040
(lp5041
g17
asS'afford'
p5042
(lp5043
g7
asS'becomes'
p5044
(lp5045
g18
ag18
asS'nay'
p5046
(lp5047
g33
ag10
asS'mock'
p5048
(lp5049
g7
ag16
ag19
asS'perusal'
p5050
(lp5051
g10
asS'draw'
p5052
(lp5053
g10
ag19
ag7
asS'elements'
p5054
(lp5055
g52
ag52
asS'clean'
p5056
(lp5057
g10
asS'besiege'
p5058
(lp5059
g7
ag19
asS'breasts'
p5060
(lp5061
g52
asS'rise'
p5062
(lp5063
g16
ag16
asS'weigh'
p5064
(lp5065
g7
asS'makeless'
p5066
(lp5067
g10
asS'wrinkle'
p5068
(lp5069
g10
asS'desert'
p5070
(lp5071
g16
ag7
ag16
asS'land'
p5072
(lp5073
g16
asS'happier'
p5074
(lp5075
g381
ag381
ag381
asS"excuse'"
p5076
(lp5077
g16
asS"spend'st"
p5078
(lp5079
g7
asS'vice'
p5080
(lp5081
S'NN'
p5082
asS'age'
p5083
(lp5084
S'NN'
p5085
ag5085
ag5085
ag5085
ag5085
ag5085
ag5085
ag5085
ag5085
ag5085
ag5085
ag5085
ag5085
ag5085
ag5085
asS'wards'
p5086
(lp5087
g52
asS'admiring'
p5088
(lp5089
g26
asS'heats'
p5090
(lp5091
g18
asS'came'
p5092
(lp5093
S'VBD'
p5094
ag5094
ag5094
asS'fresh'
p5095
(lp5096
g10
ag10
ag10
ag10
ag19
ag10
ag10
asS'marvel'
p5097
(lp5098
g16
asS'having'
p5099
(lp5100
S'VBG'
p5101
ag5101
ag5101
ag5101
ag5101
ag5101
asS'once'
p5102
(lp5103
g33
ag33
ag33
ag33
ag33
ag33
ag33
ag33
ag33
ag33
asS'wilfulness'
p5104
(lp5105
g16
asS'discontent'
p5106
(lp5107
g16
ag16
asS'highmost'
p5108
(lp5109
g4
asS'tombs'
p5110
(lp5111
g52
asS"deformed'st"
p5112
(lp5113
g10
asS'alien'
p5114
(lp5115
g16
asS'windy'
p5116
(lp5117
g10
asS'special-blest'
p5118
(lp5119
g16
asS'go'
p5120
(lp5121
g7
ag7
ag7
ag7
ag7
ag7
asS'ruminate'
p5122
(lp5123
g7
asS'seemed'
p5124
(lp5125
g17
ag4
ag17
asS'graves'
p5126
(lp5127
g52
asS'tincture'
p5128
(lp5129
g16
asS'uphold'
p5130
(lp5131
g7
asS'reckoned'
p5132
(lp5133
g4
asS'young'
p5134
(lp5135
S'JJ'
p5136
ag5136
ag5136
ag5136
asS'send'
p5137
(lp5138
g19
ag19
asS'debarred'
p5139
(lp5140
g4
asS'pleasing'
p5141
(lp5142
g16
ag10
asS'virtuous'
p5143
(lp5144
g10
ag10
ag10
asS'over-partial'
p5145
(lp5146
g10
asS'queen'
p5147
(lp5148
g16
asS'wished'
p5149
(lp5150
g17
asS'torture'
p5151
(lp5152
g7
ag7
asS"'now"
p5153
(lp5154
S'UH'
p5155
asS"'not"
p5156
(lp5157
g789
asS'confounding'
p5158
(lp5159
g26
asS'rhyme'
p5160
(lp5161
g16
ag16
ag16
ag16
ag16
ag16
asS'languished'
p5162
(lp5163
g17
asS'rebuked'
p5164
(lp5165
g4
asS'scanted'
p5166
(lp5167
g4
asS'accuse'
p5168
(lp5169
g73
ag19
asS'telling'
p5170
(lp5171
g26
asS'false-speaking'
p5172
(lp5173
g10
asS'iniquity'
p5174
(lp5175
g10
asS'bonds'
p5176
(lp5177
S'NNS'
p5178
ag5178
ag5178
asS'try'
p5179
(lp5180
g7
asS"eve's"
p5181
(lp5182
g16
asS'race'
p5183
(lp5184
S'NN'
p5185
asS'verdict'
p5186
(lp5187
g16
asS'betwixt'
p5188
(lp5189
g16
asS'rack'
p5190
(lp5191
g7
asS"alt'ring"
p5192
(lp5193
g26
asS'crow'
p5194
(lp5195
g16
ag16
asS"work's"
p5196
(lp5197
g16
asS'thinly'
p5198
(lp5199
g33
asS'waking'
p5200
(lp5201
g26
asS'jump'
p5202
(lp5203
g7
asS'issueless'
p5204
(lp5205
g16
asS'plead'
p5206
(lp5207
g19
ag19
asS'decrees'
p5208
(lp5209
g52
asS'pity-wanting'
p5210
(lp5211
g10
asS'victor'
p5212
(lp5213
g16
asS'giving'
p5214
(lp5215
S'VBG'
p5216
ag5216
asS'saw'
p5217
(lp5218
g17
ag17
ag17
ag17
ag17
asS'expressed'
p5219
(lp5220
g10
ag4
ag17
asS"man's"
p5221
(lp5222
g10
ag4589
asS'rotten'
p5223
(lp5224
g10
ag4
asS'bird'
p5225
(lp5226
g16
asS'body'
p5227
(lp5228
g16
ag16
ag16
ag16
asS'melancholy'
p5229
(lp5230
g16
asS'chose'
p5231
(lp5232
g17
asS'gathered'
p5233
(lp5234
g4
asS'sins'
p5235
(lp5236
g52
ag52
ag52
asS'nimble'
p5237
(lp5238
g10
ag10
asS'scythe'
p5239
(lp5240
g16
ag16
ag16
ag16
asS'objects'
p5241
(lp5242
g52
ag52
asS'let'
p5243
(lp5244
g18
ag19
ag7
ag16
ag7
ag7
ag7
ag17
ag7
ag7
ag19
ag16
ag16
ag7
ag7
ag17
ag16
ag7
ag7
ag7
ag7
ag7
ag7
ag7
ag7
ag7
asS'separation'
p5245
(lp5246
g16
asS'others'
p5247
(lp5248
S'NNS'
p5249
ag5249
ag5249
ag5249
ag5249
ag5249
ag5249
ag5249
ag5249
ag5249
asS'dissuade'
p5250
(lp5251
g7
asS'sing'
p5252
(lp5253
g26
ag26
ag26
ag19
ag26
ag16
ag26
asS'miser'
p5254
(lp5255
g16
asS'extreme'
p5256
(lp5257
g10
ag4589
asS'great'
p5258
(lp5259
S'JJ'
p5260
ag5260
ag5260
ag5260
ag5260
ag5260
ag5260
ag5260
ag5260
ag5260
asS'burthens'
p5261
(lp5262
g18
asS'conceit'
p5263
(lp5264
g16
ag16
ag16
asS'metre'
p5265
(lp5266
g16
asS'leaving'
p5267
(lp5268
g26
asS'survey'
p5269
(lp5270
S'NN'
p5271
ag5271
asS'defeat'
p5272
(lp5273
g16
asS'proof'
p5274
(lp5275
g16
ag4
ag16
asS'makes'
p5276
(lp5277
S'VBZ'
p5278
ag5278
ag5278
ag5278
ag5278
ag5278
ag5278
ag5278
asS'writes'
p5279
(lp5280
g18
asS'composed'
p5281
(lp5282
g10
asS'thralled'
p5283
(lp5284
g10
asS'chaste'
p5285
(lp5286
g16
asS'apple'
p5287
(lp5288
S'NN'
p5289
asS'sire'
p5290
(lp5291
g16
asS'forbid'
p5292
(lp5293
g16
ag16
ag7
asS'win'
p5294
(lp5295
g16
ag7
ag7
ag7
asS"whoe'er"
p5296
(lp5297
g16
asS'private'
p5298
(lp5299
S'JJ'
p5300
asS'uprear'
p5301
(lp5302
g10
asS'instinct'
p5303
(lp5304
g10
asS'wit'
p5305
(lp5306
g16
ag16
ag19
ag16
ag16
ag16
asS'decrease'
p5307
(lp5308
g16
asS'scandal'
p5309
(lp5310
S'NN'
p5311
asS'cloud'
p5312
(lp5313
g16
ag16
asS'desiring'
p5314
(lp5315
g26
asS"lovers'"
p5316
(lp5317
g10
asS'use'
p5318
(lp5319
g16
ag16
ag16
ag19
ag16
ag16
ag16
ag73
ag19
ag73
ag7
ag7
ag16
asS'cheered'
p5320
(lp5321
g4
asS'from'
p5322
(lp5323
S'IN'
p5324
ag5324
ag5324
ag5324
ag5324
ag5324
ag5324
ag5324
ag5324
ag5324
ag5324
ag5324
ag5324
ag5324
ag5324
ag5324
ag5324
ag5324
ag5324
ag5324
ag5324
ag5324
ag5324
ag5324
ag5324
ag5324
ag5324
ag5324
ag5324
ag5324
ag5324
ag5324
ag5324
ag5324
ag5324
ag5324
ag5324
ag5324
ag5324
ag5324
ag5324
ag5324
ag5324
ag5324
ag5324
ag5324
ag5324
ag5324
ag5324
ag5324
ag5324
ag5324
ag5324
ag5324
ag5324
ag5324
ag5324
ag5324
ag5324
ag5324
ag5324
ag5324
ag5324
ag5324
ag5324
ag5324
ag5324
ag5324
ag5324
ag5324
ag5324
ag5324
ag5324
ag5324
ag5324
ag5324
ag5324
ag5324
ag5324
ag5324
asS'remains'
p5325
(lp5326
g52
asS'hammered'
p5327
(lp5328
g4
asS'next'
p5329
(lp5330
g10
ag10
asS'few'
p5331
(lp5332
S'JJ'
p5333
asS'doubt'
p5334
(lp5335
g16
asS'themselves'
p5336
(lp5337
S'PRP'
p5338
ag5338
ag5338
ag5338
ag5338
ag5338
asS'hiding'
p5339
(lp5340
g26
asS"sun's"
p5341
(lp5342
g16
asS'defendant'
p5343
(lp5344
g16
asS'cheeks'
p5345
(lp5346
g52
ag52
ag16
ag16
asS'possession'
p5347
(lp5348
g16
ag16
asS'pencil'
p5349
(lp5350
g16
ag16
asS'babe'
p5351
(lp5352
g16
ag16
ag16
ag16
asS'pretty'
p5353
(lp5354
g10
ag10
ag10
asS'misuse'
p5355
(lp5356
g7
asS'famoused'
p5357
(lp5358
g4
asS'heir'
p5359
(lp5360
g16
ag1922
ag16
asS"need'st"
p5361
(lp5362
g10
asS'infection'
p5363
(lp5364
g16
ag16
ag16
asS'insufficiency'
p5365
(lp5366
g16
asS'tattered'
p5367
(lp5368
g10
ag10
asS'gladly'
p5369
(lp5370
g33
asS'harvest'
p5371
(lp5372
g49
asS'annoy'
p5373
(lp5374
g16
asS"none'"
p5375
(lp5376
g16
asS'account'
p5377
(lp5378
g16
ag16
ag16
ag16
asS'salving'
p5379
(lp5380
g26
asS'this'
p5381
(lp5382
S'DT'
p5383
ag5383
ag5383
ag5383
ag5383
ag5383
ag5383
ag5383
ag5383
ag5383
ag5383
ag5383
ag5383
ag5383
ag5383
ag5383
ag5383
ag5383
ag5383
ag5383
ag5383
ag5383
ag5383
ag5383
ag5383
ag5383
ag5383
ag5383
ag5383
ag5383
ag5383
ag5383
ag5383
ag5383
ag5383
ag5383
ag5383
ag5383
ag5383
ag5383
ag5383
ag5383
ag5383
ag5383
ag5383
ag5383
ag5383
ag5383
ag5383
ag5383
ag5383
ag5383
ag5383
ag5383
ag5383
ag5383
ag5383
ag5383
ag5383
ag5383
ag5383
ag5383
ag5383
ag5383
ag5383
ag5383
ag5383
ag5383
ag5383
ag5383
ag5383
ag5383
ag5383
ag5383
ag5383
ag5383
ag5383
ag5383
ag5383
ag5383
ag5383
ag5383
ag5383
ag5383
ag5383
ag5383
ag5383
ag5383
ag5383
ag5383
ag5383
ag5383
ag5383
ag5383
ag5383
ag5383
ag5383
ag5383
ag5383
ag5383
ag5383
ag5383
ag5383
asS'ride'
p5384
(lp5385
g7
ag16
ag19
asS'crossed'
p5386
(lp5387
g4
asS'praise'
p5388
(lp5389
g7
ag10
ag7
ag16
ag16
ag19
ag16
ag16
ag16
ag16
ag16
ag16
ag16
ag16
ag16
ag16
ag16
ag16
ag16
ag16
ag16
ag16
ag16
ag7
ag16
ag16
ag16
ag7
asS'executor'
p5390
(lp5391
g16
asS'meet'
p5392
(lp5393
g16
ag7
asS'drops'
p5394
(lp5395
g52
asS'befits'
p5396
(lp5397
g52
asS'vaunt'
p5398
(lp5399
g16
asS'control'
p5400
(lp5401
g16
ag16
ag16
asS'dregs'
p5402
(lp5403
g16
asS'unswept'
p5404
(lp5405
g10
asS"grow'st"
p5406
(lp5407
g16
ag52
asS'ushers'
p5408
(lp5409
g52
asS'process'
p5410
(lp5411
g16
asS'high'
p5412
(lp5413
g10
ag10
ag10
ag10
asS'sought'
p5414
(lp5415
g17
asS'his'
p5416
(lp5417
S'PRP$'
p5418
ag5418
ag5418
ag5418
ag5418
ag5418
ag5418
ag5418
ag5418
ag5418
ag5418
ag5418
ag5418
ag5418
ag5418
ag5418
ag5418
ag5418
ag5418
ag5418
ag5418
ag5418
ag5418
ag5418
ag5418
ag5418
ag5418
ag5418
ag5418
ag5418
ag5418
ag5418
ag5418
ag5418
ag5418
ag5418
ag5418
ag5418
ag5418
ag5418
ag5418
ag5418
ag5418
ag5418
ag5418
ag5418
ag5418
ag5418
ag5418
ag5418
ag5418
ag5418
ag5418
ag5418
ag5418
ag5418
ag5418
ag5418
ag5418
ag5418
ag5418
ag5418
ag5418
ag5418
ag5418
ag5418
ag5418
ag5418
ag5418
ag5418
ag5418
ag5418
ag5418
ag5418
ag5418
ag5418
ag5418
ag5418
ag5418
ag5418
ag5418
ag5418
ag5418
ag5418
ag5418
ag5418
ag5418
ag5418
ag5418
ag5418
ag5418
ag5418
ag5418
ag5418
ag5418
ag5418
ag5418
ag5418
ag5418
ag5418
ag5418
ag5418
ag5418
asS'something'
p5419
(lp5420
S'NN'
p5421
ag5421
asS'bones'
p5422
(lp5423
g52
asS'purposed'
p5424
(lp5425
g10
asS'paws'
p5426
(lp5427
g16
asS'darkening'
p5428
(lp5429
g26
asS'counterfeit'
p5430
(lp5431
g16
ag16
asS'lamb'
p5432
(lp5433
g16
asS'comes'
p5434
(lp5435
S'VBZ'
p5436
ag5436
asS'counting'
p5437
(lp5438
g26
ag26
asS'compounded'
p5439
(lp5440
g17
asS'falls'
p5441
(lp5442
g52
asS'sit'
p5443
(lp5444
g16
ag7
asS"sickle's"
p5445
(lp5446
g10
asS'holds'
p5447
(lp5448
S'VBZ'
p5449
ag5449
ag5449
ag5449
ag5449
asS'thrall'
p5450
(lp5451
g16
asS'moods'
p5452
(lp5453
g52
asS'swear'
p5454
(lp5455
g19
ag19
ag10
ag10
ag19
ag7
ag7
asS'beams'
p5456
(lp5457
g52
asS'mightst'
p5458
(lp5459
g16
ag19
asS'forsaken'
p5460
(lp5461
g4
asS'sin'
p5462
(lp5463
g16
ag16
ag16
ag16
ag16
ag10
ag16
ag16
asS'watery'
p5464
(lp5465
g16
asS'attend'
p5466
(lp5467
g7
asS'watch'
p5468
(lp5469
g19
ag16
asS'canker'
p5470
(lp5471
g16
ag16
ag16
ag16
asS'abuse'
p5472
(lp5473
g73
ag73
ag16
asS'fits'
p5474
(lp5475
g52
asS"worth's"
p5476
(lp5477
g10
asS'tomb'
p5478
(lp5479
g16
ag16
ag16
ag16
ag16
asS'physic'
p5480
(lp5481
g16
ag19
asS'bankrupt'
p5482
(lp5483
g16
asS'untrimmed'
p5484
(lp5485
g10
asS'light'
p5486
(lp5487
g16
ag16
ag17
ag10
ag10
ag10
asS'lame'
p5488
(lp5489
g16
ag10
asS'lines'
p5490
(lp5491
S'NNS'
p5492
ag5492
ag5492
ag5492
ag5492
ag5492
ag5492
ag5492
asS'chief'
p5493
(lp5494
g10
ag16
asS'writ'
p5495
(lp5496
g16
ag18
ag10
ag4
ag4
ag19
asS'allow'
p5497
(lp5498
g7
ag16
asS'tenure'
p5499
(lp5500
g16
asS'favourites'
p5501
(lp5502
g18
asS'dispraise'
p5503
(lp5504
g16
asS'neglect'
p5505
(lp5506
g16
ag16
asS'beauties'
p5507
(lp5508
g52
ag52
ag52
ag52
asS'stamped'
p5509
(lp5510
g17
asS'transfix'
p5511
(lp5512
g73
asS'move'
p5513
(lp5514
g16
asS'sightless'
p5515
(lp5516
g16
ag10
asS"o'erlook"
p5517
(lp5518
g19
asS'vainly'
p5519
(lp5520
g33
ag33
asS'whilst'
p5521
(lp5522
g16
ag16
ag16
ag19
ag16
ag73
ag19
ag52
ag1768
ag16
ag73
ag16
ag17
asS'beguile'
p5523
(lp5524
g73
asS'dearest'
p5525
(lp5526
g49
ag16
ag49
asS'enclose'
p5527
(lp5528
g19
asS'looks'
p5529
(lp5530
g18
ag52
ag52
ag52
ag18
ag18
ag52
ag52
ag18
ag18
ag52
ag52
ag52
asS'tyrant'
p5531
(lp5532
g10
ag16
asS'thyself'
p5533
(lp5534
g789
asS'badges'
p5535
(lp5536
g52
asS'perfect'
p5537
(lp5538
g10
ag10
asS'refusest'
p5539
(lp5540
g16
asS'frailties'
p5541
(lp5542
g52
ag52
asS'brood'
p5543
(lp5544
g16
asS'whereon'
p5545
(lp5546
g19
ag16
ag10
asS'unstained'
p5547
(lp5548
g10
asS'decay'
p5549
(lp5550
g16
ag7
ag16
ag16
ag7
ag7
ag16
ag16
ag7
asS'lo'
p5551
(lp5552
g16
ag10
ag16
asS'whereof'
p5553
(lp5554
g16
ag19
asS'banquet'
p5555
(lp5556
g16
asS'themes'
p5557
(lp5558
g52
asS'willing'
p5559
(lp5560
S'JJ'
p5561
ag5561
asS'choose'
p5562
(lp5563
g7
asS'tickled'
p5564
(lp5565
g10
asS'greater'
p5566
(lp5567
S'JJR'
p5568
ag5568
ag5568
ag5568
asS'anchored'
p5569
(lp5570
g4
asS'sweets'
p5571
(lp5572
g18
ag52
ag52
ag52
ag18
ag52
asS'stout'
p5573
(lp5574
g33
asS'hands'
p5575
(lp5576
g52
ag52
asS'front'
p5577
(lp5578
g10
asS"owner's"
p5579
(lp5580
g16
asS'kindness'
p5581
(lp5582
g16
ag16
asS'affections'
p5583
(lp5584
g52
asS'day'
p5585
(lp5586
S'NN'
p5587
ag5587
ag5587
ag5587
ag5587
ag5587
ag5587
ag5587
ag5587
ag5587
ag5587
ag5587
ag5587
ag5587
ag5587
ag5587
ag5587
ag5587
ag5587
ag5587
ag5587
ag5587
ag5587
ag5587
ag5587
asS'damasked'
p5588
(lp5589
g17
asS'strive'
p5590
(lp5591
g7
ag10
asS'profound'
p5592
(lp5593
g10
asS'eased'
p5594
(lp5595
g4
asS'feast'
p5596
(lp5597
g16
ag16
asS'mouthed'
p5598
(lp5599
g4
asS'trimmed'
p5600
(lp5601
g4
asS'slide'
p5602
(lp5603
g16
asS'truth'
p5604
(lp5605
g16
ag16
ag16
ag16
ag16
ag18
ag16
ag16
ag16
ag16
ag16
ag16
ag16
ag16
ag16
ag16
ag16
ag16
ag16
ag16
ag16
ag16
asS'gazing'
p5606
(lp5607
g16
asS'legions'
p5608
(lp5609
g52
asS'treads'
p5610
(lp5611
g52
asS'pitying'
p5612
(lp5613
g26
asS'female'
p5614
(lp5615
g10
asS'doing'
p5616
(lp5617
S'VBG'
p5618
ag5618
asS"princes'"
p5619
(lp5620
g16
asS'ills'
p5621
(lp5622
g52
ag52
asS'alteration'
p5623
(lp5624
g16
asS'society'
p5625
(lp5626
g16
asS'decays'
p5627
(lp5628
g52
asS'exceeded'
p5629
(lp5630
g4
asS'our'
p5631
(lp5632
S'PRP$'
p5633
ag5633
ag5633
ag5633
ag5633
ag5633
ag5633
ag5633
ag5633
ag5633
ag5633
ag5633
ag5633
ag5633
ag5633
ag5633
ag5633
ag5633
asS'bay'
p5634
(lp5635
g16
asS'tenth'
p5636
(lp5637
g16
asS'beweep'
p5638
(lp5639
g10
asS'out'
p5640
(lp5641
g73
ag448
ag73
ag448
ag73
ag448
ag73
ag448
ag448
ag448
ag448
ag448
ag448
ag73
ag73
ag448
asS'respects'
p5642
(lp5643
g52
asS"'"
(lp5644
g2681
ag2681
ag2681
asS"children's"
p5645
(lp5646
g10
asS'plods'
p5647
(lp5648
g52
asS'confess'
p5649
(lp5650
g7
asS'sufficed'
p5651
(lp5652
g4
asS'bad'
p5653
(lp5654
S'JJ'
p5655
ag5655
ag5655
ag5655
ag5655
ag5655
ag5655
asS'frowns'
p5656
(lp5657
g52
asS'impart'
p5658
(lp5659
g10
asS'cause'
p5660
(lp5661
g16
ag16
ag16
asS'red'
p5662
(lp5663
g10
ag10
ag10
asS'monuments'
p5664
(lp5665
g52
asS'perish'
p5666
(lp5667
g10
asS'frank'
p5668
(lp5669
g10
asS'darkly'
p5670
(lp5671
g10
asS'embassy'
p5672
(lp5673
g16
asS'attending'
p5674
(lp5675
g26
ag26
asS'tresses'
p5676
(lp5677
g52
asS'thrust'
p5678
(lp5679
g7
asS'yore'
p5680
(lp5681
g33
asS'cured'
p5682
(lp5683
g4
asS'her'
p5684
(lp5685
g1922
ag1922
ag1922
ag1922
ag1922
ag1922
ag1922
ag1922
ag1922
ag1922
ag1922
ag1922
ag1922
ag1922
ag1922
ag1922
ag1922
ag1922
ag1922
ag1922
ag789
ag1922
ag1922
ag1922
ag1922
ag1922
ag1922
ag1922
ag1922
ag1922
ag1922
ag1922
ag789
ag1922
ag1922
ag1922
ag1922
ag1922
ag1922
ag1922
ag1922
ag1922
ag1922
ag1922
ag1922
asS'rearward'
p5686
(lp5687
g16
asS'could'
p5688
(lp5689
S'MD'
p5690
ag5690
ag5690
ag5690
ag5690
ag5690
ag5690
ag5690
ag5690
asS'keep'
p5691
(lp5692
g7
ag7
ag7
ag7
ag7
ag7
ag7
ag7
asS'counterpart'
p5693
(lp5694
g10
asS'keen'
p5695
(lp5696
g10
ag10
asS'length'
p5697
(lp5698
g16
asS'cures'
p5699
(lp5700
g18
asS'mortal'
p5701
(lp5702
g10
ag10
ag10
ag10
ag10
asS'hence'
p5703
(lp5704
g16
ag33
ag33
ag16
ag33
ag16
asS'ears'
p5705
(lp5706
g52
asS'rudely'
p5707
(lp5708
g33
asS'new-appearing'
p5709
(lp5710
g10
asS'fragrant'
p5711
(lp5712
g16
asS'pitied'
p5713
(lp5714
g4
asS'possessing'
p5715
(lp5716
g16
ag16
asS'powerful'
p5717
(lp5718
S'JJ'
p5719
ag5719
asS'loveliness'
p5720
(lp5721
g16
asS'feasts'
p5722
(lp5723
g52
asS"learned's"
p5724
(lp5725
g16
asS'such'
p5726
(lp5727
g10
ag10
ag10
ag10
ag10
ag743
ag10
ag10
ag10
ag10
ag10
ag10
ag743
ag10
ag10
ag10
ag10
ag10
ag10
ag10
ag10
ag10
ag10
ag743
ag10
ag10
ag743
ag10
ag10
ag10
ag10
asS'reigned'
p5728
(lp5729
g17
asS'quality'
p5730
(lp5731
g16
asS'moiety'
p5732
(lp5733
g16
asS'uneared'
p5734
(lp5735
g10
asS"love'"
p5736
(lp5737
g10
asS'sadly'
p5738
(lp5739
g33
asS'ordering'
p5740
(lp5741
g26
asS'dove'
p5742
(lp5743
g7
asS'vulgar'
p5744
(lp5745
g16
ag16
ag16
asS'seat'
p5746
(lp5747
g16
ag16
asS'their'
p5748
(lp5749
S'PRP$'
p5750
ag5750
ag5750
ag5750
ag5750
ag5750
ag5750
ag5750
ag5750
ag5750
ag5750
ag5750
ag5750
ag5750
ag5750
ag5750
ag5750
ag5750
ag5750
ag5750
ag5750
ag5750
ag5750
ag5750
ag5750
ag5750
ag5750
ag5750
ag5750
ag5750
ag5750
ag5750
ag5750
ag5750
ag5750
ag5750
ag5750
ag5750
ag5750
ag5750
ag5750
ag5750
ag5750
ag5750
ag5750
ag5750
ag5750
ag5750
ag5750
ag5750
ag5750
ag5750
ag5750
ag5750
ag5750
ag5750
ag5750
ag5750
ag5750
ag5750
ag5750
ag5750
ag5750
asS'intelligence'
p5751
(lp5752
g16
asS'prouder'
p5753
(lp5754
g16
asS'travelled'
p5755
(lp5756
g17
asS'badness'
p5757
(lp5758
g16
asS'fairest'
p5759
(lp5760
g49
ag49
ag49
ag49
ag49
asS'painful'
p5761
(lp5762
g10
asS'low'
p5763
(lp5764
g10
asS'never-resting'
p5765
(lp5766
g10
asS"were't"
p5767
(lp5768
g16
asS'perforce'
p5769
(lp5770
g16
asS'prefiguring'
p5771
(lp5772
g19
asS'spites'
p5773
(lp5774
g52
asS'commence'
p5775
(lp5776
g16
asS'soundless'
p5777
(lp5778
g10
asS'steel'
p5779
(lp5780
S'NN'
p5781
ag5781
ag5781
asS'loved'
p5782
(lp5783
g17
ag17
ag17
ag4
ag17
asS'unlooked'
p5784
(lp5785
g17
ag17
asS'aught'
p5786
(lp5787
g4
ag16
asS"o'er"
p5788
(lp5789
g448
ag73
ag10
ag73
ag10
ag33
asS'riches'
p5790
(lp5791
g52
ag52
asS'richer'
p5792
(lp5793
g381
asS'bed'
p5794
(lp5795
g16
asS'jollity'
p5796
(lp5797
g16
asS'transgression'
p5798
(lp5799
g16
asS"body's"
p5800
(lp5801
g16
ag16
ag10
ag16
asS'loves'
p5802
(lp5803
g52
ag52
ag52
ag18
ag18
ag52
ag18
ag52
asS'lover'
p5804
(lp5805
g33
asS'dumb'
p5806
(lp5807
g10
ag10
ag16
ag10
ag10
ag10
asS"lily's"
p5808
(lp5809
g10
asS'steep'
p5810
(lp5811
g7
asS'descriptions'
p5812
(lp5813
g52
asS'drunk'
p5814
(lp5815
g16
asS'accusing'
p5816
(lp5817
g26
asS'enforced'
p5818
(lp5819
g17
asS'beggared'
p5820
(lp5821
g4
asS'false'
p5822
(lp5823
g10
ag10
ag10
ag7
ag10
ag33
ag10
ag10
ag10
ag10
ag10
ag10
ag10
ag10
ag10
ag10
ag10
ag10
asS"forget'st"
p5824
(lp5825
g52
asS'beggar'
p5826
(lp5827
g16
asS'labouring'
p5828
(lp5829
g26
asS'gently'
p5830
(lp5831
g33
asS'refigured'
p5832
(lp5833
g17
asS'gentle'
p5834
(lp5835
g10
ag10
ag10
ag10
ag16
ag10
ag10
ag10
ag10
ag10
ag10
ag10
ag10
ag10
asS'buy'
p5836
(lp5837
g16
asS'torment'
p5838
(lp5839
g16
ag16
ag10
asS'have'
p5840
(lp5841
g19
ag19
ag19
ag19
ag19
ag19
ag19
ag19
ag19
ag19
ag19
ag19
ag19
ag19
ag19
ag19
ag19
ag19
ag19
ag7
ag19
ag7
ag19
ag7
ag7
ag19
ag19
ag7
ag19
ag7
ag19
ag19
ag19
ag19
ag19
ag19
ag19
ag19
ag7
ag19
ag19
ag19
ag19
ag19
ag7
ag19
ag19
ag19
ag19
ag19
ag19
ag19
ag19
ag7
ag19
ag19
ag19
ag19
ag7
ag19
ag19
ag19
ag19
ag19
ag7
ag19
ag19
ag7
ag7
ag19
ag19
ag19
ag19
ag19
ag19
ag19
asS're-survey'
p5842
(lp5843
g10
asS'need'
p5844
(lp5845
g16
ag19
ag16
ag7
ag19
asS'turn'
p5846
(lp5847
g19
ag19
ag19
asS'sings'
p5848
(lp5849
g52
ag52
asS'bastard'
p5850
(lp5851
g10
ag16
ag16
asS'bough'
p5852
(lp5853
g16
asS'wits'
p5854
(lp5855
g52
ag52
asS'able'
p5856
(lp5857
S'JJ'
p5858
asS'gravity'
p5859
(lp5860
g16
asS'adjunct'
p5861
(lp5862
g10
ag16
asS'which'
p5863
(lp5864
g380
ag380
ag380
ag380
ag380
ag380
ag380
ag380
ag380
ag380
ag380
ag380
ag380
ag380
ag380
ag380
ag380
ag380
ag380
ag380
ag380
ag380
ag380
ag380
ag380
ag380
ag380
ag380
ag380
ag380
ag380
ag380
ag380
ag380
ag380
ag380
ag380
ag380
ag380
ag380
ag380
ag380
ag380
ag380
ag380
ag380
ag380
ag380
ag380
ag380
ag380
ag380
ag380
ag380
ag380
ag380
ag380
ag380
ag380
ag380
ag380
ag380
ag380
ag380
ag380
ag380
ag380
ag380
ag380
ag380
ag380
ag380
ag380
ag380
ag380
ag380
ag380
ag380
ag380
ag380
ag380
ag380
ag380
ag380
ag380
ag380
ag380
ag380
ag380
ag380
ag380
ag380
ag380
ag380
ag380
ag380
ag380
ag380
ag380
ag380
ag380
ag380
ag380
ag380
ag380
ag380
ag380
asS'divert'
p5865
(lp5866
g7
asS'abhor'
p5867
(lp5868
g7
ag7
asS'adieu'
p5869
(lp5870
g10
asS'unless'
p5871
(lp5872
S'IN'
p5873
ag5873
ag5873
ag5873
ag5873
ag5873
asS'centre'
p5874
(lp5875
g16
asS'senses'
p5876
(lp5877
g52
asS'who'
p5878
(lp5879
g1768
ag1768
ag1768
ag1768
ag1768
ag1768
ag1768
ag1768
ag1768
ag1768
ag1768
ag1768
ag1768
ag1768
ag1768
ag1768
ag1768
ag1768
ag1768
ag1768
ag1768
ag1768
ag1768
ag1768
ag1768
ag1768
ag1768
asS'privilage'
p5880
(lp5881
g7
asS"beds'"
p5882
(lp5883
g16
asS"time's"
p5884
(lp5885
g73
ag16
ag16
ag10
ag10
ag16
ag16
ag7
ag10
ag10
ag16
ag16
ag10
ag7
ag7
asS'harmful'
p5886
(lp5887
g10
asS'offend'
p5888
(lp5889
g7
asS'lust'
p5890
(lp5891
g10
ag16
asS'but'
p5892
(lp5893
S'CC'
p5894
ag5894
ag5894
ag5894
ag5894
ag5894
ag5894
ag5894
ag5894
ag5894
ag5894
ag5894
ag5894
ag5894
ag5894
ag5894
ag5894
ag5894
ag5894
ag5894
ag5894
ag5894
ag5894
ag5894
ag5894
ag5894
ag5894
ag5894
ag5894
ag5894
ag5894
ag5894
ag5894
ag5894
ag5894
ag5894
ag5894
ag5894
ag5894
ag5894
ag5894
ag5894
ag5894
ag5894
ag5894
ag5894
ag5894
ag5894
ag5894
ag5894
ag5894
ag5894
ag5894
ag5894
ag5894
ag5894
ag5894
ag5894
ag5894
ag5894
ag5894
ag5894
ag5894
ag5894
ag5894
ag5894
ag5894
ag5894
ag5894
ag5894
ag5894
ag5894
ag5894
ag5894
ag5894
ag5894
ag5894
ag5894
ag5894
ag5894
ag5894
ag5894
ag5894
ag5894
ag5894
ag5894
ag5894
ag5894
ag5894
ag5894
ag5894
ag5894
ag5894
ag5894
ag5894
ag5894
ag5894
ag5894
ag5894
ag5894
ag5894
ag5894
ag5894
ag5894
ag5894
ag5894
ag5894
ag5894
ag5894
ag5894
ag5894
ag5894
ag5894
ag5894
ag5894
ag5894
ag5894
ag5894
ag5894
ag5894
ag5894
ag5894
ag5894
ag5894
ag5894
ag5894
ag5894
ag5894
ag5894
ag5894
ag5894
ag5894
ag5894
ag5894
ag5894
ag5894
ag5894
ag5894
ag5894
ag5894
ag5894
ag5894
ag5894
ag5894
ag5894
ag5894
ag5894
ag5894
ag5894
ag5894
ag5894
ag5894
ag5894
ag5894
ag5894
ag5894
ag5894
ag5894
ag5894
ag5894
asS'prisoner'
p5895
(lp5896
g16
asS'expired'
p5897
(lp5898
g17
asS'why'
p5899
(lp5900
S'WRB'
p5901
ag5901
ag5901
ag5901
ag5901
ag5901
ag5901
ag5901
ag5901
ag5901
ag5901
ag5901
ag5901
ag5901
ag5901
ag5901
ag5901
ag5901
ag5901
ag5901
ag5901
ag5901
ag5901
ag5901
ag5901
asS"husband's"
p5902
(lp5903
g10
asS'afresh'
p5904
(lp5905
g10
asS'deny'
p5906
(lp5907
g16
ag16
asS'wherewith'
p5908
(lp5909
g16
asS'bred'
p5910
(lp5911
g4
ag17
asS'stronger'
p5912
(lp5913
g381
ag381
asS'disease'
p5914
(lp5915
g16
asS"widow's"
p5916
(lp5917
g16
asS'pipe'
p5918
(lp5919
g16
asS'wounded'
p5920
(lp5921
g17
asS'painting'
p5922
(lp5923
g26
ag26
ag16
ag26
ag16
ag26
asS'outlive'
p5924
(lp5925
g7
ag7
ag19
asS'deface'
p5926
(lp5927
g16
asS'impression'
p5928
(lp5929
g16
asS'afloat'
p5930
(lp5931
g33
asS'wilful'
p5932
(lp5933
g10
asS'couldst'
p5934
(lp5935
g16
asS'burden'
p5936
(lp5937
g16
asS'poesy'
p5938
(lp5939
g16
asS'bring'
p5940
(lp5941
g19
ag7
ag16
ag7
ag19
ag7
ag16
ag73
asS"many's"
p5942
(lp5943
g16
asS'rough'
p5944
(lp5945
g16
asS'obsequious'
p5946
(lp5947
g10
ag10
asS'debate'
p5948
(lp5949
g16
asS'spurring'
p5950
(lp5951
g26
asS'envy'
p5952
(lp5953
g16
ag19
asS'knowledge'
p5954
(lp5955
g16
ag16
ag16
asS'chiding'
p5956
(lp5957
g26
asS'philomel'
p5958
(lp5959
g16
asS'mute'
p5960
(lp5961
g16
ag10
asS'woo'
p5962
(lp5963
g19
asS'world-without-end'
p5964
(lp5965
g10
asS'should'
p5966
(lp5967
S'MD'
p5968
ag5968
ag5968
ag5968
ag5968
ag5968
ag5968
ag5968
ag5968
ag5968
ag5968
ag5968
ag5968
ag5968
ag5968
ag5968
ag5968
ag5968
ag5968
ag5968
ag5968
ag5968
ag5968
ag5968
ag5968
ag5968
ag5968
ag5968
ag5968
ag5968
ag5968
ag5968
ag5968
ag5968
ag5968
ag5968
ag5968
ag5968
ag5968
ag5968
ag5968
ag5968
ag5968
ag5968
asS'bases'
p5969
(lp5970
g52
asS'preposterously'
p5971
(lp5972
g33
asS'fuel'
p5973
(lp5974
g16
asS'marriage'
p5975
(lp5976
g16
asS'inhabit'
p5977
(lp5978
g16
asS'hope'
p5979
(lp5980
g19
ag16
ag7
ag16
ag16
ag16
asS'meant'
p5981
(lp5982
g10
asS'accessary'
p5983
(lp5984
g10
asS'doubting'
p5985
(lp5986
g26
ag16
asS'means'
p5987
(lp5988
g52
aS'NNPS'
p5989
ag18
asS'familiar'
p5990
(lp5991
S'JJ'
p5992
asS'bear'
p5993
(lp5994
g7
ag10
ag7
ag7
ag7
ag7
ag16
ag7
ag73
ag7
ag7
ag10
asS'perfection'
p5995
(lp5996
g16
ag16
asS'words'
p5997
(lp5998
S'NNS'
p5999
ag5999
ag5999
ag5999
ag5999
ag5999
ag5999
ag5999
ag5999
ag5999
asS'durst'
p6000
(lp6001
g10
asS'leases'
p6002
(lp6003
g52
asS'spur'
p6004
(lp6005
g10
ag7
asS"offence's"
p6006
(lp6007
g16
asS'endless'
p6008
(lp6009
g10
asS'heretic'
p6010
(lp6011
g10
asS'evident'
p6012
(lp6013
g10
asS'brain'
p6014
(lp6015
S'NN'
p6016
ag6016
ag6016
ag6016
ag6016
asS'gust'
p6017
(lp6018
g16
asS'married'
p6019
(lp6020
g4
ag4
asS'summon'
p6021
(lp6022
g17
asS'she'
p6023
(lp6024
S'PRP'
p6025
ag6025
ag6025
ag6025
ag6025
ag6025
ag6025
ag6025
ag6025
ag6025
ag6025
ag6025
ag6025
ag6025
ag6025
ag6025
ag6025
ag6025
ag6025
ag6025
ag6025
ag6025
ag6025
ag6025
ag6025
ag6025
ag6025
ag6025
ag6025
ag6025
ag6025
asS'contain'
p6026
(lp6027
g7
asS'fixed'
p6028
(lp6029
g4
ag4
asS'view'
p6030
(lp6031
g16
ag16
ag19
ag16
ag16
ag16
ag16
ag16
asS'strengthened'
p6032
(lp6033
g4
asS'sluttish'
p6034
(lp6035
g10
asS'untrue'
p6036
(lp6037
g10
ag16
asS'outbraves'
p6038
(lp6039
g18
asS'farthest'
p6040
(lp6041
g49
ag49
asS'miscalled'
p6042
(lp6043
g17
asS'frame'
p6044
(lp6045
g7
ag16
ag16
ag16
asS'shake'
p6046
(lp6047
g7
ag16
ag19
asS'legacy'
p6048
(lp6049
g16
asS'merits'
p6050
(lp6051
g18
asS'changes'
p6052
(lp6053
g52
asS'enfeebled'
p6054
(lp6055
g17
asS'violet'
p6056
(lp6057
g16
asS'sleeping'
p6058
(lp6059
g26
asS'tripping'
p6060
(lp6061
g26
asS'error'
p6062
(lp6063
g16
asS'closet'
p6064
(lp6065
g16
asS'record'
p6066
(lp6067
g16
ag16
ag16
asS'pattern'
p6068
(lp6069
g16
ag19
asS'vows'
p6070
(lp6071
g52
ag52
asS'unseeing'
p6072
(lp6073
g26
asS'tend'
p6074
(lp6075
g19
ag19
ag19
asS'state'
p6076
(lp6077
S'NN'
p6078
ag6078
ag6078
ag6078
ag6078
ag6078
ag6078
ag6078
ag6078
ag6078
ag6078
ag6078
ag6078
ag6078
asS'boughs'
p6079
(lp6080
g52
asS'progress'
p6081
(lp6082
g16
asS'neither'
p6083
(lp6084
g16
ag16
asS'besmeared'
p6085
(lp6086
g17
asS'wiry'
p6087
(lp6088
g16
asS'down-rased'
p6089
(lp6090
g10
asS'dateless'
p6091
(lp6092
g16
ag16
asS'dressings'
p6093
(lp6094
g52
asS'joy'
p6095
(lp6096
g10
ag16
ag16
ag16
ag16
ag16
ag16
ag16
asS'sorrow'
p6097
(lp6098
g16
ag16
ag16
ag16
ag16
asS'hooks'
p6099
(lp6100
g52
asS'key'
p6101
(lp6102
g16
asS'precious'
p6103
(lp6104
g10
ag10
ag10
ag10
ag10
ag10
asS'weary'
p6105
(lp6106
g10
ag10
ag10
ag10
asS'swift'
p6107
(lp6108
g10
ag10
ag10
ag10
ag10
asS'hits'
p6109
(lp6110
g52
asS'figured'
p6111
(lp6112
g4
asS'instant'
p6113
(lp6114
g10
asS'limits'
p6115
(lp6116
g52
asS'invited'
p6117
(lp6118
g4
asS'thence'
p6119
(lp6120
g7
ag16
ag16
ag16
ag16
ag7
ag16
ag16
asS'equal'
p6121
(lp6122
g10
asS'minds'
p6123
(lp6124
g52
ag52
ag52
asS'april'
p6125
(lp6126
g16
ag16
ag10
asS'admit'
p6127
(lp6128
g19
asS'devour'
p6129
(lp6130
g18
asS'streams'
p6131
(lp6132
g52
asS"store's"
p6133
(lp6134
g16
asS'behaviour'
p6135
(lp6136
g520
asS'canopy'
p6137
(lp6138
g7
ag16
asS'lofty'
p6139
(lp6140
g16
ag10
asS'kinds'
p6141
(lp6142
g52
asS'glorious'
p6143
(lp6144
g10
asS'aye'
p6145
(lp6146
g26
asS'comment'
p6147
(lp6148
g16
ag7
asS'fester'
p6149
(lp6150
g16
asS'torn'
p6151
(lp6152
g4
asS'statues'
p6153
(lp6154
g7
asS'unfolding'
p6155
(lp6156
g26
asS'walk'
p6157
(lp6158
g19
asS'commend'
p6159
(lp6160
g19
asS'beguiled'
p6161
(lp6162
g17
asS'table'
p6163
(lp6164
g16
asS'renewest'
p6165
(lp6166
g10
asS'second'
p6167
(lp6168
g10
ag10
ag10
ag10
asS'addition'
p6169
(lp6170
S'NN'
p6171
ag6171
asS'wills'
p6172
(lp6173
g52
ag52
asS"whate'er"
p6174
(lp6175
g381
ag33
asS'certain'
p6176
(lp6177
S'JJ'
p6178
asS'poet'
p6179
(lp6180
g16
ag16
asS'waste'
p6181
(lp6182
g16
ag16
ag16
ag73
ag16
ag16
ag16
asS'define'
p6183
(lp6184
g7
asS'tyranny'
p6185
(lp6186
g16
asS'describe'
p6187
(lp6188
g16
asS'general'
p6189
(lp6190
g10
ag10
ag10
asS'proudest'
p6191
(lp6192
g49
asS'league'
p6193
(lp6194
g16
asS'painted'
p6195
(lp6196
g10
ag17
ag10
ag4
ag4
asS'releasing'
p6197
(lp6198
g26
asS"hear'st"
p6199
(lp6200
g10
asS'lets'
p6201
(lp6202
g18
asS'unmoved'
p6203
(lp6204
g10
asS'overturn'
p6205
(lp6206
g16
asS'painter'
p6207
(lp6208
g16
ag16
asS'debtor'
p6209
(lp6210
g16
asS'novel'
p6211
(lp6212
g10
asS'sourly'
p6213
(lp6214
g33
ag33
asS'surety-like'
p6215
(lp6216
g10
asS'wilt'
p6217
(lp6218
g16
ag16
ag10
ag59
ag16
ag16
ag16
ag17
ag18
ag16
ag17
ag18
ag52
ag10
asS'plain'
p6219
(lp6220
g16
asS'appearance'
p6221
(lp6222
g16
asS'as'
p6223
(lp6224
g73
ag73
ag33
ag73
ag33
ag73
ag73
ag73
ag73
ag73
ag73
ag73
ag73
ag73
ag73
ag33
ag73
ag73
ag73
ag73
ag73
ag73
ag73
ag73
ag73
ag73
ag73
ag73
ag73
ag33
ag73
ag73
ag73
ag73
ag73
ag73
ag73
ag73
ag73
ag73
ag73
ag73
ag73
ag73
ag73
ag73
ag73
ag73
ag33
ag73
ag73
ag73
ag73
ag73
ag73
ag73
ag73
ag73
ag73
ag73
ag33
ag73
ag73
ag73
ag73
ag73
ag73
ag73
ag73
ag73
ag73
ag73
ag73
ag73
ag73
ag73
ag73
ag73
ag73
ag73
ag73
ag73
ag73
ag33
ag73
ag73
ag73
ag73
ag73
ag73
ag73
ag73
ag73
ag33
ag73
ag73
ag73
ag73
ag73
ag73
ag73
ag33
ag73
ag73
ag73
ag33
ag73
ag73
ag73
ag73
ag73
ag73
ag73
ag33
ag33
ag33
ag73
ag73
ag73
asS'three-fold'
p6225
(lp6226
g10
asS'will'
p6227
(lp6228
g932
ag932
ag932
ag932
ag932
ag932
ag932
ag932
ag932
ag932
ag932
ag932
ag932
ag932
ag932
ag932
ag932
ag932
ag932
ag932
ag932
ag932
ag932
ag932
ag932
ag932
ag932
ag932
ag932
ag932
ag932
ag932
ag932
ag932
ag932
ag932
ag932
ag932
ag932
ag932
ag932
ag932
ag932
ag932
ag932
ag932
ag932
ag932
ag932
ag932
ag932
ag932
ag932
ag932
ag932
ag932
ag932
ag932
asS'riper'
p6229
(lp6230
g16
ag16
asS"hate's"
p6231
(lp6232
g10
asS'at'
p6233
(lp6234
S'IN'
p6235
ag6235
ag6235
ag6235
ag6235
ag6235
ag6235
ag6235
ag6235
ag6235
ag6235
ag6235
ag6235
ag6235
ag6235
ag6235
ag6235
ag6235
ag6235
ag6235
ag6235
ag6235
ag6235
ag6235
ag6235
ag6235
asS'ripe'
p6236
(lp6237
g16
asS'physicians'
p6238
(lp6239
g52
asS'almost'
p6240
(lp6241
S'RB'
p6242
ag6242
ag6242
asS'up-locked'
p6243
(lp6244
g10
asS'thus'
p6245
(lp6246
S'RB'
p6247
ag6247
ag6247
ag6247
ag6247
ag6247
ag6247
ag6247
ag6247
ag6247
ag6247
ag6247
ag6247
ag6247
ag6247
ag6247
ag6247
ag6247
ag6247
ag6247
asS'lascivious'
p6248
(lp6249
g10
ag10
asS'lambs'
p6250
(lp6251
g16
asS'sits'
p6252
(lp6253
g18
asS'halt'
p6254
(lp6255
g7
asS'ransom'
p6256
(lp6257
g7
ag7
asS'all-eating'
p6258
(lp6259
g10
asS'perhaps'
p6260
(lp6261
S'RB'
p6262
asS'cross'
p6263
(lp6264
g16
ag16
ag7
asS'proceeds'
p6265
(lp6266
g52
asS'largess'
p6267
(lp6268
g16
asS'adverse'
p6269
(lp6270
g10
asS'parts'
p6271
(lp6272
S'NNS'
p6273
ag6273
ag6273
ag6273
ag6273
ag6273
ag6273
asS'duteous'
p6274
(lp6275
g10
asS'freezings'
p6276
(lp6277
g18
asS'party'
p6278
(lp6279
S'NN'
p6280
asS'well-contented'
p6281
(lp6282
g10
asS'blooms'
p6283
(lp6284
g52
asS'slave'
p6285
(lp6286
g19
ag16
ag16
ag16
ag19
ag16
asS'flesh'
p6287
(lp6288
g16
ag16
ag16
asS'shames'
p6289
(lp6290
g52
ag52
asS'lasting'
p6291
(lp6292
g26
asS'drink'
p6293
(lp6294
g7
ag19
asS'upon'
p6295
(lp6296
g73
ag73
ag73
ag73
ag73
ag73
ag73
ag73
ag73
ag73
ag73
ag73
ag73
ag73
ag73
ag73
ag73
ag73
ag73
ag73
ag73
ag73
ag73
ag73
ag73
ag73
ag73
ag73
ag73
asS'effect'
p6297
(lp6298
S'NN'
p6299
ag6299
ag6299
asS'outcast'
p6300
(lp6301
g10
asS'nightly'
p6302
(lp6303
g33
ag33
asS"december's"
p6304
(lp6305
g16
asS'dust'
p6306
(lp6307
g10
ag16
asS'judgment'
p6308
(lp6309
g16
ag16
ag16
ag16
asS'steals'
p6310
(lp6311
g52
asS'audit'
p6312
(lp6313
g16
ag16
asS'scarcely'
p6314
(lp6315
g33
asS'off'
p6316
(lp6317
g73
ag73
asS'i'
(lp6318
g16
ag16
ag16
ag19
ag10
ag7
ag19
ag7
ag16
ag16
ag19
ag10
ag16
ag16
ag19
ag16
ag7
ag10
ag16
ag7
ag19
ag10
ag7
ag16
ag16
ag10
ag16
ag19
ag16
ag16
ag10
ag19
ag7
ag10
ag16
ag10
ag7
ag10
ag16
ag19
ag19
ag19
ag10
ag7
ag16
ag16
ag16
ag7
ag7
ag19
ag16
ag19
ag19
ag19
ag10
ag4
ag4
ag7
ag16
ag18
ag16
ag10
ag10
ag16
ag7
ag16
ag16
ag16
ag7
ag16
ag16
ag16
ag16
ag16
ag10
ag19
ag16
ag10
ag10
ag16
ag10
ag10
ag7
ag7
ag16
ag16
ag16
ag16
ag10
ag10
ag16
ag10
ag16
ag4
ag10
ag10
ag10
ag10
ag16
ag10
ag19
ag52
ag7
ag10
ag7
ag7
ag10
ag7
ag16
ag10
ag16
ag10
ag16
ag16
ag16
ag16
ag16
ag16
ag16
ag10
ag10
ag33
ag16
ag19
ag16
ag16
ag16
ag33
ag16
ag10
ag16
ag10
ag16
ag52
ag16
ag16
ag16
ag16
ag19
ag19
ag10
ag33
ag16
ag16
ag4
ag19
ag16
ag10
ag10
ag16
ag16
ag10
ag7
ag16
ag10
ag19
ag10
ag16
ag33
ag4
ag10
ag10
ag52
ag16
ag10
ag7
ag16
ag16
ag16
ag16
ag16
ag52
ag16
ag16
ag7
ag7
ag16
ag7
ag19
ag16
ag33
ag16
ag7
ag7
ag7
ag16
ag10
ag4
ag4
ag7
ag16
ag16
ag16
ag16
ag16
ag16
ag10
ag16
ag4
ag16
ag10
ag16
ag10
ag16
ag16
ag16
ag7
ag52
ag33
ag16
ag52
ag16
ag16
ag7
ag16
ag16
ag16
ag10
ag16
ag16
ag10
ag16
ag16
ag16
ag7
ag19
ag16
ag7
ag10
ag16
ag7
ag10
ag52
ag52
ag16
ag52
ag16
ag16
ag16
ag4
ag16
ag10
ag10
ag52
ag19
ag7
ag16
ag7
ag10
ag10
ag16
ag16
ag16
ag10
ag10
ag16
ag19
ag16
ag4
ag16
ag7
ag4
ag10
ag16
ag10
ag16
ag7
ag10
ag16
ag16
ag52
ag10
ag16
ag10
ag19
ag7
ag16
ag16
ag19
ag10
ag19
ag4
ag10
ag19
ag10
ag16
ag19
ag52
ag16
ag10
ag10
ag16
ag10
ag16
ag16
ag16
ag16
ag16
ag52
ag10
ag10
ag16
ag7
ag19
ag16
ag16
ag7
ag7
ag16
ag16
ag10
ag10
ag16
ag33
ag16
ag16
ag16
ag33
ag7
ag18
ag16
ag10
ag10
ag16
ag10
ag18
ag16
ag16
ag7
ag16
ag16
ag16
ag52
ag16
ag16
ag10
ag16
asS'whole'
p6319
(lp6320
g16
asS'colour'
p6321
(lp6322
g16
ag16
asS'well'
p6323
(lp6324
g16
ag33
ag16
ag33
ag33
ag33
ag33
ag16
ag16
ag16
ag33
ag33
ag33
ag33
ag33
ag16
ag33
ag33
ag33
ag33
ag33
ag33
ag16
asS'thought'
p6325
(lp6326
g17
ag17
ag16
ag17
ag16
ag4
ag16
ag16
ag4
ag4
ag4
ag16
ag16
ag16
ag17
ag16
ag4
ag17
asS'amends'
p6327
(lp6328
g52
asS'oft'
p6329
(lp6330
g10
ag33
ag10
ag10
ag10
asS'sets'
p6331
(lp6332
g52
ag18
asS'arising'
p6333
(lp6334
g26
asS'twire'
p6335
(lp6336
g73
asS'lest'
p6337
(lp6338
g49
ag73
ag49
ag49
ag49
ag49
ag10
ag49
asS'restore'
p6339
(lp6340
g16
asS'feathered'
p6341
(lp6342
g10
asS'stores'
p6343
(lp6344
S'NNS'
p6345
asS'kiss'
p6346
(lp6347
g7
ag7
ag7
asS'heavily'
p6348
(lp6349
S'RB'
p6350
ag6350
asS"o'erpressed"
p6351
(lp6352
g10
asS'gulls'
p6353
(lp6354
g18
asS'love-god'
p6355
(lp6356
g10
asS'cries'
p6357
(lp6358
g52
ag52
asS'interim'
p6359
(lp6360
g16
asS'skill'
p6361
(lp6362
g16
ag16
ag16
ag16
ag16
ag10
ag16
asS'thither'
p6363
(lp6364
g33
asS'dost'
p6365
(lp6366
g16
ag16
ag16
ag16
ag16
ag16
ag16
ag1004
ag16
ag16
ag7
ag16
ag16
ag1004
ag16
ag16
ag16
ag10
ag16
ag16
ag4589
ag10
ag16
ag7
ag16
ag16
ag16
ag16
asS'reckoning'
p6367
(lp6368
g10
asS'field'
p6369
(lp6370
S'NN'
p6371
asS'onward'
p6372
(lp6373
g33
asS'sky'
p6374
(lp6375
g16
asS'fled'
p6376
(lp6377
g4
ag17
asS'simple'
p6378
(lp6379
g10
ag10
ag10
asS'add'
p6380
(lp6381
g73
ag19
ag19
ag7
asS'other'
p6382
(lp6383
S'JJ'
p6384
ag6384
ag6384
ag6384
ag6384
ag6384
ag6384
ag6384
ag6384
ag6384
ag6384
ag6384
ag6384
ag6384
ag6384
ag6384
ag6384
asS'wet'
p6385
(lp6386
g7
asS"infant's"
p6387
(lp6388
g10
asS'raven'
p6389
(lp6390
g10
asS'wooed'
p6391
(lp6392
g4
asS'fate'
p6393
(lp6394
g16
asS'testy'
p6395
(lp6396
g10
asS'devised'
p6397
(lp6398
g4
asS'famine'
p6399
(lp6400
g16
asS"who's"
p6401
(lp6402
g1768
asS'crushed'
p6403
(lp6404
g17
asS'smother'
p6405
(lp6406
g33
asS'five'
p6407
(lp6408
S'CD'
p6409
ag6409
ag6409
asS'know'
p6410
(lp6411
g19
ag19
ag7
ag19
ag19
ag19
ag19
ag19
ag7
ag7
ag19
ag19
ag19
ag19
ag19
ag19
ag7
asS'unseen'
p6412
(lp6413
g10
ag73
asS'press'
p6414
(lp6415
g7
asS'fools'
p6416
(lp6417
g52
asS'loss'
p6418
(lp6419
S'NN'
p6420
ag6420
ag6420
ag6420
ag6420
ag6420
ag6420
ag6420
asS'showing'
p6421
(lp6422
g26
asS'like'
p6423
(lp6424
g73
ag73
ag73
ag73
ag73
ag73
ag73
ag73
ag73
ag73
ag19
ag73
ag73
ag73
ag73
ag73
ag73
ag73
ag10
ag73
ag73
ag73
ag73
ag73
ag73
ag73
ag73
ag73
ag73
ag73
ag73
ag73
ag73
ag73
asS'lost'
p6425
(lp6426
g17
ag17
ag4
ag4
asS'perpetual'
p6427
(lp6428
g10
ag10
asS'rich-proud'
p6429
(lp6430
g10
asS'admitted'
p6431
(lp6432
g4
asS'beseechers'
p6433
(lp6434
g52
asS'heed'
p6435
(lp6436
g10
asS'lose'
p6437
(lp6438
g7
ag16
ag19
ag19
ag7
ag7
ag19
ag19
ag19
asS'nerves'
p6439
(lp6440
g52
asS'works'
p6441
(lp6442
g52
ag18
ag18
asS'page'
p6443
(lp6444
g16
asS'lends'
p6445
(lp6446
g18
ag52
ag18
ag18
asS'therein'
p6447
(lp6448
g16
ag33
asS'decease'
p6449
(lp6450
g7
ag16
ag16
asS'exceed'
p6451
(lp6452
g7
asS'inconstant'
p6453
(lp6454
g10
ag10
asS'workings'
p6455
(lp6456
g52
asS'thief'
p6457
(lp6458
g16
ag16
ag16
asS'alive'
p6459
(lp6460
g19
ag10
asS'immortal'
p6461
(lp6462
g10
asS'hush'
p6463
(lp6464
g7
asS'growth'
p6465
(lp6466
S'NN'
p6467
ag6467
asS'home'
p6468
(lp6469
g16
ag16
ag16
asS'transport'
p6470
(lp6471
g7
asS"heaven's"
p6472
(lp6473
g16
ag16
ag16
ag16
ag16
ag7
asS'lead'
p6474
(lp6475
g19
ag16
asS'broad'
p6476
(lp6477
S'JJ'
p6478
asS'lean'
p6479
(lp6480
g10
asS'leap'
p6481
(lp6482
g7
ag16
asS'passion'
p6483
(lp6484
g16
asS'masked'
p6485
(lp6486
g17
ag4
ag4
asS"o'ertake"
p6487
(lp6488
g73
asS'poets'
p6489
(lp6490
g52
ag52
asS'slight'
p6491
(lp6492
g16
ag10
asS"death's"
p6493
(lp6494
g10
ag10
ag16
ag10
asS'how'
p6495
(lp6496
S'WRB'
p6497
ag6497
ag6497
ag6497
ag6497
ag6497
ag6497
ag6497
ag6497
ag6497
ag6497
ag6497
ag6497
ag6497
ag6497
ag6497
ag6497
ag6497
ag6497
ag6497
ag6497
ag6497
ag6497
ag6497
ag6497
ag6497
ag6497
ag6497
ag6497
ag6497
ag6497
ag6497
ag6497
ag6497
ag6497
ag6497
ag6497
ag6497
ag6497
ag6497
asS'expire'
p6498
(lp6499
g7
asS'although'
p6500
(lp6501
S'IN'
p6502
ag6502
ag6502
ag6502
ag6502
ag6502
ag6502
ag6502
ag6502
asS'worthy'
p6503
(lp6504
g10
ag10
ag10
ag10
ag10
asS'posterity'
p6505
(lp6506
g16
ag16
ag16
asS'imaginary'
p6507
(lp6508
g10
asS'insults'
p6509
(lp6510
g18
asS'worths'
p6511
(lp6512
g10
asS'stage'
p6513
(lp6514
g16
ag16
asS'about'
p6515
(lp6516
g73
asS"murd'rous"
p6517
(lp6518
g10
ag10
ag10
asS'rare'
p6519
(lp6520
g19
ag10
ag10
ag10
asS'dun'
p6521
(lp6522
g10
asS'linger'
p6523
(lp6524
g7
asS'freedom'
p6525
(lp6526
g16
asS'harder'
p6527
(lp6528
g16
asS'blessings'
p6529
(lp6530
g52
asS'gainer'
p6531
(lp6532
g16
asS'hairs'
p6533
(lp6534
g52
asS'tongue'
p6535
(lp6536
g16
ag16
ag16
ag16
ag16
ag16
ag16
ag16
ag16
ag16
ag16
asS'beshrew'
p6537
(lp6538
g17
asS'outstripped'
p6539
(lp6540
g4
asS'own'
p6541
(lp6542
g10
ag10
ag10
ag10
ag10
ag10
ag10
ag10
ag10
ag10
ag10
ag10
ag10
ag10
ag10
ag10
ag10
ag10
ag10
ag10
ag10
ag10
ag10
ag10
ag10
ag10
ag10
ag10
ag10
ag10
asS'polished'
p6543
(lp6544
g10
asS'owe'
p6545
(lp6546
g19
asS'attaint'
p6547
(lp6548
g16
asS'guard'
p6549
(lp6550
g7
ag16
asS'promise'
p6551
(lp6552
g16
asS'esteem'
p6553
(lp6554
g19
ag16
asS"ne'er-cloying"
p6555
(lp6556
g10
asS'lawful'
p6557
(lp6558
g10
ag10
ag10
asS'quickly'
p6559
(lp6560
S'RB'
p6561
asS'gazeth'
p6562
(lp6563
g18
asS'suborned'
p6564
(lp6565
g17
asS'victors'
p6566
(lp6567
g52
asS'veil'
p6568
(lp6569
g4589
asS'trenches'
p6570
(lp6571
g52
asS'watchman'
p6572
(lp6573
g16
asS'spread'
p6574
(lp6575
g19
asS"grief's"
p6576
(lp6577
g10
asS'function'
p6578
(lp6579
g16
asS'prophetic'
p6580
(lp6581
g10
asS'hoisted'
p6582
(lp6583
g4
asS'brand'
p6584
(lp6585
S'NN'
p6586
ag6586
ag6586
ag6586
ag6586
asS'invocate'
p6587
(lp6588
g19
asS'fountains'
p6589
(lp6590
g52
asS'gait'
p6591
(lp6592
g16
asS'prophecies'
p6593
(lp6594
g52
asS'plague'
p6595
(lp6596
g16
ag16
ag16
asS'gain'
p6597
(lp6598
g16
ag16
ag16
ag16
asS'delivers'
p6599
(lp6600
g18
asS'ear'
p6601
(lp6602
g73
ag16
ag16
asS'eat'
p6603
(lp6604
g7
ag16
asS'bud'
p6605
(lp6606
g16
ag16
asS'he'
p6607
(lp6608
S'PRP'
p6609
ag6609
ag6609
ag6609
ag6609
ag6609
ag6609
ag6609
ag6609
ag6609
ag6609
ag6609
ag6609
ag6609
ag6609
ag6609
ag6609
ag6609
ag6609
ag6609
ag6609
ag6609
ag6609
ag6609
ag6609
ag6609
ag6609
ag6609
ag6609
ag6609
ag6609
ag6609
ag6609
ag6609
ag6609
ag6609
ag6609
ag6609
ag6609
ag6609
ag6609
ag6609
ag6609
asS'count'
p6610
(lp6611
g16
ag7
ag16
ag19
asS'made'
p6612
(lp6613
g4
ag4
ag4
ag4
ag4
ag4
ag4
ag17
ag4
ag17
ag17
ag17
ag17
ag17
ag4
ag17
ag4
ag4
ag7
asS'wise'
p6614
(lp6615
g16
ag4
asS'princes'
p6616
(lp6617
g52
ag52
asS'glory'
p6618
(lp6619
g16
ag16
ag16
ag16
ag16
ag16
ag16
ag16
asS'whether'
p6620
(lp6621
S'IN'
p6622
ag6622
ag6622
ag6622
ag6622
ag6622
ag6622
asS'wish'
p6623
(lp6624
g52
ag16
ag16
ag10
ag10
asS'grieve'
p6625
(lp6626
g19
asS'triumphant'
p6627
(lp6628
g10
ag16
asS"eyes'"
p6629
(lp6630
g16
asS'placed'
p6631
(lp6632
g17
asS'cruel'
p6633
(lp6634
g10
ag16
ag10
ag16
ag16
ag16
ag16
ag52
asS'converted'
p6635
(lp6636
g4
ag17
asS'limit'
p6637
(lp6638
g16
asS'monument'
p6639
(lp6640
g16
ag16
asS'minutes'
p6641
(lp6642
S'NNS'
p6643
ag6643
ag6643
asS'bearing'
p6644
(lp6645
g7
ag26
ag16
asS'rightly'
p6646
(lp6647
g33
asS'deaths'
p6648
(lp6649
g52
ag52
asS'devise'
p6650
(lp6651
g7
ag16
asS'measure'
p6652
(lp6653
g19
ag16
asS'dearth'
p6654
(lp6655
g10
asS'denote'
p6656
(lp6657
g7
asS'goodness'
p6658
(lp6659
g16
ag16
asS'ink'
p6660
(lp6661
g16
ag16
asS'fleeting'
p6662
(lp6663
g10
asS'self-killed'
p6664
(lp6665
g10
asS'naming'
p6666
(lp6667
g26
asS'endeared'
p6668
(lp6669
g4
asS'nursed'
p6670
(lp6671
g4
asS'mutual'
p6672
(lp6673
S'JJ'
p6674
ag6674
asS'compared'
p6675
(lp6676
S'VBN'
p6677
asS'didst'
p6678
(lp6679
g16
ag16
asS'dressed'
p6680
(lp6681
g4
asS'boot'
p6682
(lp6683
g7
asS'forests'
p6684
(lp6685
g52
asS'slumbers'
p6686
(lp6687
g52
asS'book'
p6688
(lp6689
S'NN'
p6690
ag6690
ag6690
ag6690
ag6690
ag6690
asS'witness'
p6691
(lp6692
g7
ag19
ag33
asS'sick'
p6693
(lp6694
g10
ag10
ag16
ag16
ag10
ag19
asS'unlettered'
p6695
(lp6696
g10
asS'behold'
p6697
(lp6698
g17
ag4
ag7
ag17
ag19
ag17
ag17
asS"what's"
p6699
(lp6700
g7
ag16
ag17
asS'thrivers'
p6701
(lp6702
g52
asS'semblance'
p6703
(lp6704
g16
asS'star'
p6705
(lp6706
g16
ag16
ag16
asS'oppression'
p6707
(lp6708
g16
asS'variation'
p6709
(lp6710
g16
asS'stay'
p6711
(lp6712
g16
ag7
ag19
ag7
ag16
ag7
ag7
ag7
ag16
asS'methinks'
p6713
(lp6714
g52
ag18
ag52
ag52
asS'chance'
p6715
(lp6716
S'NN'
p6717
asS'earthly'
p6718
(lp6719
g10
asS'astronomy'
p6720
(lp6721
g4
asS'friends'
p6722
(lp6723
g52
ag52
ag52
asS'tan'
p6724
(lp6725
g52
asS'ghost'
p6726
(lp6727
g16
asS'stirred'
p6728
(lp6729
g4
asS'self-example'
p6730
(lp6731
g10
asS'ranks'
p6732
(lp6733
g52
asS"he's"
p6734
(lp6735
g10
asS'love-kindling'
p6736
(lp6737
g10
asS'jewel'
p6738
(lp6739
g16
ag16
ag16
ag16
asS'pictured'
p6740
(lp6741
g17
asS'pupil'
p6742
(lp6743
g10
asS"sway'st"
p6744
(lp6745
g18
asS'vassal'
p6746
(lp6747
g16
ag16
asS'determination'
p6748
(lp6749
g16
asS'accidents'
p6750
(lp6751
g52
asS'gardens'
p6752
(lp6753
g52
as.