(lp1
(lp2
I1028
aI664
aI486
aI1677
aI2725
aI2516
aa(lp3
I869
aI83
aI1845
aI1436
aI780
aI1061
aI1159
aa(lp4
I3057
aI1591
aI2308
aI2826
aI2953
aI621
aI2950
aI2790
aa(lp5
I943
aI2561
aI2838
aI1845
aI2533
aI1663
aI2561
aa(lp6
I1156
aI1241
aI3101
aI1119
aI1635
aI892
aI2129
aI2790
aa(lp7
I2829
aI2037
aI1549
aI348
aI116
aI608
aI666
aa(lp8
I725
aI851
aI1274
aI3033
aI1798
aI969
aa(lp9
I3145
aI326
aI1999
aI2141
aI608
aI1635
aI692
aI608
aI1999
aI608
aa(lp10
I1295
aI2409
aI121
aI621
aI1067
aI2092
aI1159
aI2129
aa(lp11
I2276
aI1155
aI621
aI1635
aI242
aI937
aI1178
aa(lp12
I270
aI608
aI1235
aI3132
aI3101
aI1119
aI2321
aa(lp13
I1554
aI576
aI2929
aI985
aI368
aI1663
aI1178
aa(lp14
I2297
aI1232
aI2544
aI2172
aI1515
aI1458
aI621
aI500
aa(lp15
I228
aI1178
aI393
aI621
aI2308
aI2155
aI121
aI621
aI3131
aI1635
aa(lp16
I1374
aI608
aI2392
aI2290
aI1224
aI268
aI1418
aa(lp17
I3019
aI780
aI608
aI576
aI3115
aI1568
aI870
aI1178
aa(lp18
I1067
aI1501
aI1925
aI1023
aI1987
aI1226
aI336
aI608
aa(lp19
I1820
aI27
aI1661
aI1505
aI1397
aI2537
aI1798
aI2297
aI2952
aa(lp20
I725
aI188
aI608
aI1610
aI1274
aI514
aI1417
aI224
aa(lp21
I296
aI595
aI608
aI1505
aI1250
aI621
aI1610
aI1274
aa(lp22
I1156
aI2379
aI1568
aI3101
aI1119
aI2321
aI1189
aI1635
aa(lp23
I2547
aI796
aI1178
aI572
aI2966
aI1569
aI1176
aa(lp24
I2514
aI780
aI608
aI2311
aI2547
aI1735
aI536
aI3079
aa(lp25
I362
aI1505
aI553
aI461
aI2302
aI183
aI2810
aI2129
aI578
aa(lp26
I2401
aI675
aI157
aI586
aI1178
aI3134
aI157
aI1686
aI2290
aa(lp27
I1119
aI45
aI2308
aI188
aI2561
aI1162
aa(lp28
I675
aI2092
aI2129
aI1418
aI3135
aI75
aI2297
aI1635
aI1176
aI2544
aa(lp29
I1038
aI570
aI1109
aI2129
aI1418
aI138
aI1794
aI608
aI2096
aI1178
aa(lp30
I2050
aI2129
aI786
aI621
aI127
aI1178
aI137
aI608
aI576
aI2178
aa(lp31
I317
aI742
aI2826
aI786
aI1159
aI1591
aI621
aI569
aI1067
aa(lp32
I2922
aI1066
aI2129
aI1067
aI578
aI2319
aI2409
aI13
aa(lp33
I619
aI2278
aI130
aI1458
aI621
aI2612
aI3017
aI2129
aa(lp34
I1694
aI2713
aI13
aI461
aI1023
aI2852
aI569
aI1274
aI688
aa(lp35
I1000
aI608
aI1505
aI1051
aI621
aI701
aa(lp36
I2590
aI621
aI2297
aI2952
aI2043
aI1023
aI3133
aI569
aI2783
aI1515
aa(lp37
I3083
aI433
aI1635
aI1724
aI2561
aI1505
aa(lp38
I228
aI576
aI2852
aI1178
aI137
aI342
aI608
aI2092
aI2129
aa(lp39
I1268
aI2689
aI1505
aI2902
aI541
aI621
aI748
aI1600
aa(lp40
I2096
aI394
aI2404
aI1119
aI1505
aI2025
aI1822
aI2129
aI1023
aa(lp41
I1591
aI106
aI608
aI2544
aI2312
aI1505
aI440
aa(lp42
I2297
aI1635
aI1066
aI2299
aI940
aI2129
aI578
aI2790
aa(lp43
I228
aI1549
aI808
aI1522
aI1119
aI1178
aI2373
aI869
aa(lp44
I2233
aI2129
aI3017
aI2793
aI2706
aI1327
aa(lp45
I2864
aI780
aI608
aI1999
aI608
aI2983
aa(lp46
I1481
aI555
aI2790
aI2017
aI1154
aI603
aI1886
aa(lp47
I284
aI2098
aI1359
aI1635
aI3055
aI2852
aI2681
aI1417
aI1178
aa(lp48
I2587
aI2129
aI3017
aI2793
aI2064
aI2061
aI224
aa(lp49
I936
aI1635
aI228
aI283
aI2970
aI577
aI621
aa(lp50
I2514
aI2129
aI3017
aI2793
aI321
aI1312
aa(lp51
I940
aI1066
aI2273
aI638
aI1453
aI1505
aI1686
aI1798
aI2487
aI1023
aa(lp52
I907
aI1999
aI608
aI1549
aI1456
aI2411
aI688
aa(lp53
I1025
aI3017
aI1999
aI2141
aI608
aI1999
aI608
aI1505
aI2129
aa(lp54
I1559
aI2297
aI1635
aI228
aI1600
aI490
aI1418
aI3079
aI224
aa(lp55
I871
aI2129
aI2273
aI2991
aI952
aI1680
aa(lp56
I228
aI1549
aI1471
aI2297
aI144
aI188
aI2012
aI608
aa(lp57
I2297
aI1635
aI2548
aI591
aI2173
aI2211
aI2776
aa(lp58
I2862
aI868
aI150
aI2762
aI1549
aI1159
aI1701
aI1359
aa(lp59
I327
aI555
aI1725
aI35
aI1274
aI1537
aI541
aI621
aa(lp60
I1385
aI1645
aI621
aI1635
aI1851
aI621
aI2279
aI2952
aa(lp61
I793
aI555
aI596
aI2776
aI630
aI1159
aI1178
aa(lp62
I1501
aI1415
aI835
aI1591
aI2728
aI688
aa(lp63
I1533
aI2078
aI844
aI1178
aI990
aI1639
aI1635
aa(lp64
I1559
aI1106
aI97
aI595
aI1178
aI2344
aI1549
aI1146
aI1194
aa(lp65
I1274
aI35
aI1423
aI1178
aI186
aI188
aa(lp66
I624
aI980
aI1438
aI1066
aI1176
aI224
aa(lp67
I137
aI1505
aI1858
aI576
aI1829
aI2791
aI1020
aI1798
aa(lp68
I988
aI1176
aI188
aI1549
aI2984
aI780
aa(lp69
I737
aI570
aI1680
aI2326
aI792
aI1069
aI570
aI1069
aa(lp70
I2549
aI990
aI1549
aI233
aI385
aI1388
aI1168
aI2790
aa(lp71
I2141
aI2173
aI1039
aI95
aI2720
aI1237
aI2720
aI2790
aI129
aa(lp72
I2806
aI599
aI615
aI231
aI1066
aI2480
aI224
aa(lp73
I1388
aI2297
aI2129
aI154
aI1415
aI608
aI228
aI576
aa(lp74
I1120
aI2278
aI2129
aI1250
aI1969
aI2278
aI2141
aI586
aa(lp75
I3160
aI2297
aI570
aI154
aI1250
aI780
aI1549
aa(lp76
I2352
aI1614
aI1066
aI569
aI2514
aI1159
aa(lp77
I2142
aI2630
aI621
aI1384
aI1159
aI1359
aI1550
aI2776
aa(lp78
I228
aI317
aI1148
aI1635
aI1999
aI608
aI688
aI1813
aa(lp79
I235
aI688
aI1666
aI570
aI2297
aI2400
aI169
aI1666
aI1515
aa(lp80
I2092
aI2129
aI1169
aI2400
aI1176
aI1999
aI608
aI169
aI1666
aa(lp81
I228
aI2761
aI169
aI1666
aI1119
aI1505
aI1666
aI578
aa(lp82
I1717
aI2054
aI2129
aI578
aI429
aI2122
aI2691
aI1680
aI224
aa(lp83
I3083
aI576
aI1088
aI228
aI2491
aa(lp84
I461
aI326
aI536
aI2092
aI2129
aI688
aI1844
aI1066
aI2297
aa(lp85
I2533
aI1119
aI1617
aI586
aI1178
aI2320
aI3078
aI2297
aI1635
aa(lp86
I2594
aI557
aI621
aI1418
aI1888
aI621
aI576
aI2626
aa(lp87
I1725
aI22
aI245
aI740
aI1519
aI2561
aI1278
aI2001
aa(lp88
I2283
aI2701
aI2561
aI1635
aI1631
aI555
aa(lp89
I2138
aI1787
aI2561
aI2615
aI1549
aI1030
aa(lp90
I1896
aI273
aI779
aI621
aI98
aI2411
aI1178
aa(lp91
I2404
aI1376
aI2561
aI576
aI1975
aI1706
aI1205
aa(lp92
I1039
aI188
aI2561
aI769
aI2615
aI2697
aI638
aa(lp93
I381
aI106
aI2561
aI1501
aI2684
aa(lp94
I962
aI2892
aI1549
aI1037
aI2415
aI2516
aI1418
aI2790
aa(lp95
I2642
aI621
aI2516
aI2031
aI3133
aI2404
aI862
aI3044
aa(lp96
I2098
aI3146
aI1067
aI2973
aI747
aI1156
aI621
aa(lp97
I735
aI317
aI2178
aI1178
aI1222
aI2727
aI2561
aI2516
aa(lp98
I1480
aI608
aI576
aI54
aI1999
aI608
aI2129
aI1023
aa(lp99
I723
aI1798
aI1261
aI2129
aI2780
aI496
aI1501
aI2737
aa(lp100
I2715
aI123
aI2129
aI2938
aI2793
aI752
aI1635
aI123
aa(lp101
I2887
aI576
aI2161
aI2887
aI1066
aI738
aI2635
aI1549
aI2635
aa(lp102
I2538
aI1066
aI294
aI2129
aI2776
aI1159
aI2129
aI794
aI2793
aa(lp103
I2540
aI1119
aI1809
aI1549
aI294
aI2172
aI1515
aa(lp104
I1139
aI1774
aI1505
aI253
aI758
aI621
aI578
aa(lp105
I3130
aI1119
aI2788
aI429
aI2850
aI2107
aI2308
aa(lp106
I844
aI2783
aI228
aI2333
aI1683
aI2790
aI429
aI233
aa(lp107
I2838
aI2054
aI2129
aI1159
aI2972
aI621
aI609
aI576
aa(lp108
I317
aI1635
aI1275
aI2141
aI853
aI235
aI3079
aI1342
aa(lp109
I2716
aI3164
aI2308
aI245
aI576
aI245
aI1546
aa(lp110
I619
aI739
aI1178
aI553
aI1178
aI2501
aI1205
aa(lp111
I2484
aI429
aI1202
aI2431
aI235
aI235
aI576
aI1610
aI2783
aa(lp112
I235
aI1926
aI1316
aI1417
aI1644
aI1857
aI13
aa(lp113
I2541
aI932
aI2947
aI2373
aI427
aI228
aI1635
aI2544
aI2769
aa(lp114
I1725
aI2801
aI1798
aI3026
aI1635
aI885
aI688
aI570
aI569
aa(lp115
I545
aI2373
aI576
aI1999
aI608
aI172
aI2129
aI1159
aa(lp116
I869
aI1635
aI651
aI394
aI2461
aI2129
aI578
aI1564
aa(lp117
I1601
aI2396
aI1798
aI3044
aI228
aI902
aI2952
aI1458
aI621
aa(lp118
I1403
aI1039
aI1178
aI1123
aI608
aI2297
aI2952
aI1458
aI621
aa(lp119
I1296
aI624
aI1704
aI228
aI1505
aI742
aI792
aI2129
aI1159
aa(lp120
I2692
aI1007
aI2997
aI1123
aI2505
aI35
aI1418
aa(lp121
I361
aI576
aI2237
aI2794
aI2689
aI1156
aI2670
aI2308
aa(lp122
I2233
aI555
aI1458
aI621
aI576
aI1723
aI1569
aI1680
aI2178
aa(lp123
I570
aI1301
aI1458
aI621
aI1039
aI688
aI1120
aI2561
aI2790
aI1387
aa(lp124
I1013
aI1569
aI1458
aI621
aI576
aI4
aI2929
aI780
aI2790
aa(lp125
I570
aI1488
aI1023
aI306
aI621
aI2012
aI607
aI1178
aa(lp126
I2963
aI1835
aI1159
aI576
aI2482
aI1980
aI920
aI792
aa(lp127
I1904
aI572
aI3089
aI2709
aI2338
aI1501
aI1159
aa(lp128
I1196
aI1635
aI920
aI1514
aI2129
aI1159
aI2796
aI572
aI688
aa(lp129
I457
aI1023
aI2092
aI1999
aI608
aI688
aI2783
aa(lp130
I1316
aI1505
aI649
aI2092
aI2129
aI2947
aI2129
aI578
aI2200
aa(lp131
I2847
aI2013
aI569
aI794
aI1756
aI2129
aI1159
aI2790
aa(lp132
I11
aI3089
aI1549
aI611
aI1023
aI2092
aI2129
aI688
aa(lp133
I1770
aI1635
aI1066
aI1170
aI2129
aI1999
aI608
aI1621
aI1159
aa(lp134
I305
aI1635
aI152
aI2061
aI1159
aI1853
aa(lp135
I664
aI2597
aI608
aI2297
aI2826
aI2319
aI1635
aI2776
aa(lp136
I361
aI157
aI909
aI1007
aI2994
aI1159
aI2998
aI608
aI909
aI708
aa(lp137
I920
aI2762
aI1169
aI159
aI2197
aI2297
aI11
aI2290
aa(lp138
I1966
aI1178
aI557
aI569
aI718
aI608
aI2950
aI2297
aa(lp139
I932
aI2293
aI1947
aI2955
aI1999
aI608
aI1635
aI1515
aa(lp140
I145
aI1505
aI920
aI688
aI1999
aI317
aI228
aI586
aa(lp141
I228
aI1515
aI1119
aI576
aI940
aI1007
aI1039
aI188
aI1159
aa(lp142
I2556
aI2129
aI1531
aI1023
aI163
aI394
aI2129
aI2950
aI1531
aI2950
aa(lp143
I1297
aI2129
aI2776
aI1159
aI2516
aI1119
aI1505
aI235
aI576
aa(lp144
I216
aI2129
aI1955
aI2776
aI1794
aI2409
aI1159
aI1178
aa(lp145
I2033
aI1975
aI2516
aI2129
aI1418
aI1119
aI736
aI1129
aI2129
aa(lp146
I1028
aI1178
aI188
aI334
aI2173
aI135
aa(lp147
I2625
aI1038
aI1178
aI2404
aI1174
aI2544
aI1411
aa(lp148
I1424
aI2826
aI169
aI621
aI1023
aI1652
aI1176
aI1610
aI578
aa(lp149
I472
aI1458
aI621
aI586
aI119
aI1086
aI1842
aI1178
aa(lp150
I1953
aI688
aI3135
aI1066
aI4
aI490
aI2157
aI1359
aI2480
aa(lp151
I2680
aI2294
aI1791
aI1178
aI2330
aI1381
aa(lp152
I1735
aI228
aI654
aI2852
aI1373
aI467
aI2852
aI2157
aI2178
aa(lp153
I712
aI1150
aI576
aI2054
aI2129
aI667
aI577
aI2776
aa(lp154
I1061
aI2833
aI1178
aI1283
aI2689
aI688
aI228
aI1573
aI2852
aa(lp155
I869
aI417
aI1159
aI2480
aI1066
aI1735
aI1897
aI2054
aI2129
aa(lp156
I1591
aI621
aI371
aI1159
aI1684
aI621
aI3134
aI429
aI2994
aI1418
aa(lp157
I671
aI1639
aI576
aI1620
aI2642
aI876
aI621
aI2096
aI1178
aa(lp158
I1268
aI1668
aI2868
aI621
aI3175
aI2994
aI1418
aa(lp159
I1151
aI1549
aI2739
aI1659
aI1610
aI1049
aI1299
aI1178
aa(lp160
I97
aI1505
aI2032
aI2096
aI2994
aI2070
aI2909
aI1418
aa(lp161
I85
aI621
aI2908
aI868
aI751
aI2516
aI556
aI2776
aa(lp162
I1365
aI576
aI1278
aI1166
aI1610
aI1206
aI1438
aI1178
aa(lp163
I353
aI2202
aI1178
aI1151
aI1549
aI474
aI621
aI1501
aI261
aa(lp164
I586
aI2332
aI2994
aI429
aI188
aI608
aI1505
aI224
aa(lp165
I2421
aI144
aI1591
aI1505
aI2020
aI621
aI1323
aI2129
aI1159
aa(lp166
I1304
aI2522
aI429
aI2604
aI1178
aI2635
aI1892
aa(lp167
I1016
aI2482
aI2096
aI233
aI2950
aI1531
aI2950
aI869
aI1178
aa(lp168
I1681
aI586
aI967
aI2478
aI2786
aI1621
aI2017
aI1178
aa(lp169
I2698
aI228
aI1726
aI3133
aI1418
aI2078
aI876
aI1635
aI1148
aI653
aa(lp170
I2098
aI1588
aI920
aI2790
aI1999
aI1528
aI1176
aI1588
aI1159
aI708
aa(lp171
I940
aI84
aI1999
aI1528
aI1588
aI1169
aI623
aI820
aI792
aa(lp172
I1532
aI2826
aI1588
aI1013
aI1795
aI2544
aI507
aa(lp173
I936
aI3025
aI2278
aI1635
aI3178
aI2141
aI1528
aI1178
aa(lp174
I1954
aI576
aI142
aI1588
aI2776
aI188
aI1159
aI2826
aI1023
aa(lp175
I1176
aI1588
aI224
aI3200
aI792
aI2049
aa(lp176
I3057
aI1345
aI1528
aI189
aI1578
aI1999
aI1528
aa(lp177
I2838
aI2826
aI742
aI2141
aI1528
aI1899
aI2141
aI1528
aI1418
aa(lp178
I2625
aI1635
aI1653
aI1882
aI1798
aI461
aI1023
aI2939
aI2783
aa(lp179
I2426
aI1845
aI903
aI576
aI1000
aI2776
aa(lp180
I2642
aI231
aI1505
aI173
aI1248
aI621
aI507
aa(lp181
I1038
aI282
aI3078
aI1505
aI1553
aI2032
aI1178
aa(lp182
I3038
aI1588
aI920
aI157
aI682
aI1324
aI2790
aI1756
aI708
aa(lp183
I1023
aI1189
aI723
aI1528
aI2480
aI843
aI1798
aI644
aI1588
aa(lp184
I1307
aI2256
aI157
aI2994
aI429
aI1539
aI621
aI2516
aI1066
aa(lp185
I3186
aI2765
aI2994
aI3183
aI638
aI1178
aa(lp186
I250
aI289
aI1515
aI1850
aI1505
aI127
aI1635
aI1066
aI2790
aa(lp187
I2711
aI1538
aI1515
aI1710
aI1505
aI2234
aI1505
aa(lp188
I127
aI3149
aI1687
aI1635
aI1462
aI2994
aI967
aI1069
aa(lp189
I204
aI1178
aI598
aI66
aI2561
aI245
aI1635
aI1612
aa(lp190
I2997
aI2421
aI2290
aI570
aI578
aI3137
aI1549
aI1189
aI1515
aa(lp191
I2049
aI1657
aI576
aI2994
aI1159
aI978
aI3000
aI2308
aa(lp192
I1043
aI2994
aI2820
aI157
aI1156
aI1119
aI2516
aI2790
aa(lp193
I2092
aI2709
aI1451
aI2994
aI225
aI576
aI1539
aI2367
aI1178
aa(lp194
I2115
aI1945
aI2290
aI188
aI1178
aI2651
aI2950
aa(lp195
I2171
aI203
aI2129
aI1953
aI1635
aI1999
aI608
aI2516
aI578
aa(lp196
I636
aI2994
aI2544
aI228
aI1505
aI2172
aI1515
aa(lp197
I1012
aI1178
aI1751
aI780
aI1178
aI229
aI569
aI1013
aI608
aa(lp198
I593
aI1159
aI1118
aI35
aI1611
aI2994
aI1418
aa(lp199
I2214
aI1145
aI1798
aI2790
aI2839
aI576
aI2575
aa(lp200
I1101
aI2790
aI721
aI2100
aI3087
aI1777
aI2544
aI1159
aa(lp201
I2913
aI2371
aI2158
aI576
aI1539
aI621
aI2623
aa(lp202
I1028
aI2176
aI2950
aI487
aI1159
aI434
aI2994
aI1418
aa(lp203
I3021
aI1555
aI621
aI2308
aI60
aI1146
aI1178
aI2515
aa(lp204
I2509
aI519
aI2955
aI1194
aI2317
aI2720
aI576
aI2552
aa(lp205
I943
aI1505
aI2668
aI2878
aI876
aI2720
aI495
aI1178
aa(lp206
I3182
aI3059
aI2544
aI1505
aI2489
aI621
aI224
aa(lp207
I2283
aI157
aI218
aI1975
aI576
aI424
aI2013
aI1588
aI3001
aa(lp208
I2625
aI1549
aI2323
aI1591
aI627
aI1274
aa(lp209
I671
aI2357
aI1635
aI1975
aI1505
aI2642
aI1528
aI909
aI1635
aa(lp210
I1588
aI1505
aI920
aI688
aI1591
aI1549
aI738
aI576
aI1610
aI1178
aa(lp211
I75
aI1588
aI771
aI2994
aI1588
aI2516
aI1726
aI3133
aI2950
aa(lp212
I735
aI2374
aI1798
aI1588
aI1066
aI429
aI882
aI2790
aa(lp213
I1591
aI2616
aI923
aI2544
aI2983
aI738
aI586
aa(lp214
I2625
aI1528
aI576
aI1999
aI1528
aI213
aI1178
aa(lp215
I2440
aI2032
aI157
aI1169
aI1523
aI1735
aI2836
aI1549
aa(lp216
I1701
aI739
aI1505
aI322
aI621
aI1501
aI1588
aI1511
aI1067
aa(lp217
I1609
aI638
aI3202
aI384
aI1316
aI1178
aa(lp218
I1168
aI1088
aI1588
aI2838
aI119
aI3140
aI2432
aI1549
aa(lp219
I2567
aI2936
aI1528
aI1169
aI2145
aI536
aa(lp220
I2319
aI545
aI1159
aI545
aI1505
aI2596
aI621
aI2826
aI1023
aa(lp221
I1574
aI3197
aI157
aI1515
aI2528
aI2786
aI2544
aI2776
aa(lp222
I461
aI2102
aI1069
aI27
aI1833
aI576
aI2881
aa(lp223
I487
aI1505
aI1156
aI576
aI1999
aI1528
aI940
aI1588
aI586
aI967
aa(lp224
I1039
aI1999
aI1528
aI201
aI1999
aI1528
aI472
aI936
aI1635
aa(lp225
I3015
aI2141
aI3101
aI1528
aI2308
aI482
aI940
aI144
aI1588
aI1178
aa(lp226
I1313
aI1635
aI1591
aI576
aI1440
aI157
aI1963
aI2952
aI2783
aa(lp227
I2055
aI2559
aI2013
aI1528
aI1549
aI899
aI1176
aI570
aI578
aa(lp228
I2590
aI1798
aI2950
aI2790
aI569
aI570
aI1739
aI1657
aI638
aI385
aa(lp229
I2972
aI1528
aI1065
aI1066
aI1101
aI1178
aI545
aI1528
aI984
aI2776
aa(lp230
I1156
aI1528
aI1505
aI188
aI621
aI997
aI2691
aI2994
aI578
aa(lp231
I46
aI1528
aI1610
aI1930
aI1773
aI2409
aI576
aI1178
aa(lp232
I725
aI2928
aI2544
aI1189
aI119
aI1313
aI1635
aI2404
aI621
aa(lp233
I510
aI3185
aI423
aI64
aI416
aI273
aI2709
aa(lp234
I2404
aI2720
aI1549
aI527
aI799
aI157
aI2826
aI1023
aa(lp235
I3098
aI1169
aI2651
aI2057
aI1505
aI487
aI675
aI3044
aI1399
aI2297
aa(lp236
I1553
aI629
aI1798
aI1831
aI2297
aI149
aI758
aI1528
aI1178
aa(lp237
I1644
aI673
aI1569
aI1505
aI2490
aI1332
aI1178
aa(lp238
I1591
aI1159
aI3062
aI623
aI1505
aI553
aI2278
aI1176
aI2790
aa(lp239
I2440
aI157
aI576
aI1178
aI570
aI576
aI451
aI940
aI2826
aI1588
aa(lp240
I2642
aI1438
aI1798
aI1635
aI228
aI1765
aI2994
aI2290
aa(lp241
I1018
aI1735
aI1178
aI541
aI1735
aI2092
aI2129
aa(lp242
I1007
aI1505
aI1529
aI1898
aI621
aI2863
aI429
aI1669
aI2815
aa(lp243
I1012
aI1798
aI1800
aI326
aI1610
aI4
aI1954
aI1438
aI1178
aa(lp244
I785
aI1657
aI1505
aI1725
aI621
aI181
aI326
aI783
aa(lp245
I2383
aI1298
aI2039
aI2561
aI569
aI2274
aI1178
aa(lp246
I2093
aI783
aI461
aI2516
aI461
aI35
aI1178
aa(lp247
I2593
aI1036
aI1402
aI1886
aI1515
aI3184
aI2308
aa(lp248
I220
aI1066
aI2290
aI1415
aI282
aI608
aI2790
aa(lp249
I1741
aI2129
aI461
aI1159
aI1505
aI2527
aI3051
aI1069
aa(lp250
I1806
aI2561
aI576
aI1115
aI2129
aI508
aI2122
aI2290
aI1069
aa(lp251
I2556
aI2129
aI1591
aI1635
aI2596
aI282
aI576
aI1418
aa(lp252
I2096
aI967
aI1156
aI1515
aI128
aI967
aI487
aI2950
aI1134
aI1023
aa(lp253
I228
aI1635
aI545
aI1154
aI2544
aI1178
aI2544
aI2173
aI1134
aI1023
aa(lp254
I2565
aI1721
aI621
aI2129
aI1207
aI1591
aI2152
aa(lp255
I2622
aI2141
aI3101
aI2689
aI2904
aI412
aI621
aI586
aI1178
aa(lp256
I1540
aI1152
aI947
aI621
aI2516
aI824
aI2694
aI621
aI1307
aa(lp257
I1794
aI2689
aI576
aI806
aI1518
aI621
aI695
aI1178
aa(lp258
I888
aI2129
aI2950
aI2018
aI24
aI1178
aI1752
aI586
aa(lp259
I1591
aI355
aI2947
aI2129
aI2926
aI429
aI1178
aa(lp260
I2635
aI1992
aI2689
aI1610
aI1178
aI1458
aI1171
aI621
aI1635
aa(lp261
I1253
aI749
aI2013
aI235
aI228
aI2502
aI2994
aI2790
aa(lp262
I1374
aI461
aI946
aI157
aI1701
aI608
aI1549
aI1066
aI221
aI708
aa(lp263
I1574
aI673
aI1119
aI1549
aI1533
aI2596
aI792
aI2389
aI1069
aa(lp264
I2599
aI429
aI1303
aI1036
aI608
aI576
aI2078
aa(lp265
I487
aI639
aI1635
aI2874
aI780
aI688
aa(lp266
I190
aI608
aI440
aI1591
aI675
aI1651
aI608
aI429
aI638
aa(lp267
I2428
aI940
aI77
aI1440
aI157
aI576
aI2290
aI920
aI157
aa(lp268
I2936
aI599
aI3101
aI1886
aI1549
aI786
aI1918
aI1798
aa(lp269
I3073
aI157
aI1505
aI291
aI325
aI621
aI2129
aI1704
aa(lp270
I1461
aI1066
aI2790
aI973
aI2762
aI1918
aI1798
aa(lp271
I356
aI33
aI2756
aI569
aI2950
aI909
aI697
aI1549
aa(lp272
I814
aI576
aI2756
aI2057
aI704
aI1169
aI1241
aI1735
aI1725
aI1569
aa(lp273
I3111
aI570
aI288
aI386
aI621
aI126
aa(lp274
I1747
aI2561
aI576
aI2247
aI1610
aI358
aI576
aI1017
aI1798
aa(lp275
I2016
aI832
aI33
aI1178
aI1156
aI1161
aI2990
aI2776
aa(lp276
I295
aI1127
aI2129
aI1172
aI1642
aI1798
aI688
aI1178
aa(lp277
I91
aI1509
aI228
aI217
aI2852
aI2950
aI490
aI998
aa(lp278
I571
aI228
aI1505
aI145
aI2924
aI2308
aI1178
aa(lp279
I2017
aI2217
aI157
aI1635
aI1118
aI235
aI641
aI2308
aa(lp280
I1809
aI33
aI688
aI2668
aI228
aI750
aI2852
aI1892
aI2790
aa(lp281
I1250
aI2720
aI2514
aI946
aI608
aI1178
aI920
aI608
aI2297
aI362
aa(lp282
I134
aI1159
aI1549
aI2950
aI145
aI1549
aI1066
aI570
aI569
aI1023
aa(lp283
I1440
aI2561
aI1635
aI188
aI2936
aI1798
aI2308
aI3190
aa(lp284
I2514
aI555
aI1295
aI688
aI1999
aI570
aI1657
aI2783
aa(lp285
I690
aI555
aI461
aI2561
aI1549
aI461
aI35
aI1178
aa(lp286
I1765
aI1226
aI1505
aI207
aI1798
aI969
aa(lp287
I2241
aI424
aI1321
aI1178
aI412
aI1549
aI1483
aI1178
aI1685
aI1549
aa(lp288
I3090
aI585
aI1610
aI1178
aI1168
aI810
aI900
aI1549
aa(lp289
I1654
aI1944
aI1777
aI2544
aI576
aI560
aI3068
aI1159
aa(lp290
I997
aI1264
aI2790
aI920
aI576
aI758
aI145
aI2480
aI708
aa(lp291
I461
aI2950
aI569
aI920
aI157
aI145
aI1963
aI224
aI1178
aa(lp292
I1241
aI1023
aI1066
aI385
aI553
aI342
aI1196
aI2950
aa(lp293
I560
aI3068
aI576
aI2854
aI1021
aI2039
aI1359
aI2950
aa(lp294
I2997
aI311
aI1505
aI3044
aI1159
aI1735
aI1189
aI225
aI2480
aa(lp295
I1994
aI1635
aI1066
aI2217
aI1159
aI2547
aI1066
aI2952
aI2994
aa(lp296
I675
aI1567
aI2994
aI145
aI58
aI1066
aI2290
aI137
aI157
aa(lp297
I1012
aI235
aI1505
aI2098
aI2129
aI1178
aI1975
aI2950
aI1134
aI1023
aa(lp298
I3175
aI2994
aI850
aI2786
aI228
aI576
aI1418
aI2790
aa(lp299
I1281
aI2826
aI296
aI157
aI2122
aI2994
aI2178
aI224
aa(lp300
I228
aI2029
aI555
aI1159
aI188
aI1159
aI1610
aI688
aa(lp301
I973
aI157
aI1505
aI436
aI443
aI621
aI2790
aI569
aa(lp302
I145
aI576
aI1119
aI2950
aI940
aI555
aI2073
aI608
aI576
aI2776
aa(lp303
I2092
aI2129
aI1169
aI1932
aI2297
aI224
aI2994
aI967
aI3079
aa(lp304
I132
aI1023
aI2617
aI1505
aI2297
aI920
aI124
aI708
aa(lp305
I2952
aI228
aI688
aI2790
aI1999
aI157
aI688
aI1066
aI2994
aI2950
aa(lp306
I2005
aI1023
aI2692
aI2952
aI2994
aI2776
aI973
aI608
aI3150
aa(lp307
I506
aI741
aI2516
aI2529
aI2689
aI1691
aI1663
aI2950
aa(lp308
I1331
aI569
aI362
aI1418
aI973
aI608
aI1501
aI1066
aI2235
aa(lp309
I1578
aI748
aI936
aI1635
aI1066
aI1119
aI145
aI1810
aI2129
aa(lp310
I3087
aI621
aI1501
aI795
aI2192
aI1569
aI2950
aa(lp311
I1961
aI2561
aI589
aI1911
aI569
aI885
aI2561
aI1549
aI2783
aa(lp312
I1553
aI536
aI326
aI1549
aI1797
aI1118
aI947
aI2278
aI1515
aa(lp313
I973
aI3101
aI2561
aI567
aI851
aI953
aI13
aa(lp314
I1189
aI1635
aI12
aI524
aI1505
aI885
aI688
aI2994
aI1023
aa(lp315
I2113
aI946
aI1505
aI171
aI2619
aI621
aa(lp316
I2625
aI1635
aI369
aI374
aI946
aI3101
aI362
aI576
aI1178
aa(lp317
I1845
aI946
aI3101
aI362
aI1505
aI518
aI1549
aI2019
aa(lp318
I1872
aI621
aI224
aI2297
aI2615
aI157
aI2480
aI708
aa(lp319
I2073
aI1153
aI157
aI1505
aI646
aI2748
aI1178
aa(lp320
I1121
aI688
aI2178
aI1178
aI920
aI688
aI2462
aI2783
aa(lp321
I2468
aI1735
aI4
aI1735
aI1159
aI3098
aI1159
aI1169
aI1735
aa(lp322
I2598
aI4
aI920
aI1147
aI1680
aI1451
aI1635
aI1761
aI708
aa(lp323
I2508
aI2048
aI946
aI1635
aI648
aI1156
aI1549
aI752
aI1635
aa(lp324
I2232
aI4
aI1178
aI2942
aI621
aI568
aI4
aI1725
aI362
aa(lp325
I973
aI157
aI1505
aI2921
aI576
aI742
aI780
aI608
aa(lp326
I1820
aI1262
aI2205
aI2862
aI621
aI569
aI2472
aI157
aa(lp327
I2092
aI2063
aI467
aI569
aI570
aI1671
aI1178
aa(lp328
I3015
aI2561
aI2096
aI1588
aI144
aI2942
aI621
aI1822
aI688
aa(lp329
I725
aI3196
aI1522
aI758
aI1528
aI1274
aI2049
aI1635
aa(lp330
I1039
aI7
aI569
aI1236
aI689
aI157
aI576
aI2776
aa(lp331
I1156
aI1119
aI1549
aI234
aI2025
aI2561
aI4
aI1159
aa(lp332
I1935
aI2765
aI1156
aI688
aI1156
aI1875
aI1850
aI1680
aI2096
aI1067
aa(lp333
I145
aI688
aI1119
aI1178
aI2237
aI608
aI482
aI2765
aI1156
aI362
aa(lp334
I1685
aI621
aI1005
aI2073
aI157
aI1635
aI2025
aI2098
aa(lp335
I228
aI1501
aI3056
aI1537
aI1635
aI700
aI1635
aI2161
aa(lp336
I2092
aI2720
aI1964
aI1635
aI976
aI1753
aI2544
aI1156
aI638
aa(lp337
I973
aI621
aI1066
aI3038
aI2096
aI233
aI1680
aI2790
aI2389
aI233
aa(lp338
I1539
aI2720
aI1549
aI893
aI576
aI2098
aI2783
aI1359
aI2480
aa(lp339
I912
aI347
aI1226
aI1178
aI903
aI1693
aI1505
aa(lp340
I2090
aI47
aI2709
aI1505
aI1462
aI2157
aI2994
aI2611
aa(lp341
I2013
aI903
aI2994
aI1159
aI576
aI2887
aI688
aI2737
aa(lp342
I3117
aI97
aI461
aI2720
aI2601
aI2658
aI2487
aa(lp343
I1725
aI2524
aI621
aI2955
aI275
aI621
aI2950
aI2790
aa(lp344
I1191
aI725
aI25
aI2720
aI2522
aI576
aI1178
aa(lp345
I869
aI3138
aI2720
aI576
aI233
aI1449
aI1798
aI2955
aI688
aa(lp346
I733
aI688
aI2532
aI485
aI2726
aI621
aa(lp347
I1192
aI2412
aI243
aI1350
aI1798
aI189
aa(lp348
I1106
aI53
aI903
aI1505
aI3171
aI621
aI2516
aI569
aa(lp349
I1570
aI3133
aI2776
aI688
aI256
aI1421
aI621
aI1610
aI1178
aa(lp350
I649
aI1567
aI1178
aI920
aI1159
aI2994
aI739
aI224
aa(lp351
I757
aI2297
aI1069
aI2084
aI1066
aI1007
aI2994
aI1274
aa(lp352
I2364
aI576
aI2157
aI1635
aI920
aI157
aI1505
aI23
aa(lp353
I292
aI1558
aI1322
aI157
aI4
aI1239
aI608
aa(lp354
I1113
aI1252
aI2544
aI2429
aI2994
aI228
aI1635
aa(lp355
I2508
aI157
aI1237
aI1635
aI1066
aI1322
aI3172
aI1635
aa(lp356
I362
aI2950
aI1590
aI1023
aI2508
aI2776
aI2487
aI1023
aI1322
aa(lp357
I570
aI1237
aI1635
aI2840
aI660
aI576
aI2097
aI369
aI586
aI1007
aa(lp358
I1119
aI1505
aI2489
aI1850
aI2278
aI2832
aI2994
aI1159
aI2790
aa(lp359
I570
aI287
aI2952
aI1272
aI1610
aI2998
aI864
aI608
aI576
aa(lp360
I2216
aI157
aI1429
aI1159
aI3179
aI21
aI998
aa(lp361
I1426
aI461
aI1549
aI2342
aI145
aI1501
aI400
aa(lp362
I945
aI2537
aI157
aI1501
aI1607
aI529
aI1178
aa(lp363
I1707
aI2141
aI608
aI1505
aI3082
aI145
aI1237
aI1635
aa(lp364
I228
aI920
aI429
aI2994
aI3079
aI912
aI1635
aI1460
aI2994
aI1007
aI224
aa(lp365
I145
aI932
aI1129
aI2129
aI1274
aI740
aI157
aI1237
aI1066
aI224
aI998
aa(lp366
I2742
aI157
aI1635
aI145
aI200
aI2994
aI2231
aI1549
aI2892
aa(lp367
I51
aI176
aI1549
aI1042
aI688
aI168
aI682
aI621
aa(lp368
I740
aI157
aI576
aI812
aI1798
aI338
aI224
aI2790
aa(lp369
I2792
aI2457
aI2745
aI1418
aI361
aI157
aI150
aI1635
aa(lp370
I1095
aI2994
aI1274
aI180
aI2516
aI605
aI157
aI224
aI688
aa(lp371
I228
aI1635
aI381
aI1504
aI1798
aI805
aa(lp372
I1171
aI1141
aI452
aI2106
aI157
aI2692
aI1178
aa(lp373
I2096
aI429
aI1128
aI621
aI2776
aI1682
aI1501
aI1096
aa(lp374
I2283
aI3084
aI864
aI157
aI1159
aI653
aa(lp375
I2855
aI2608
aI157
aI1635
aI661
aI608
aI18
aa(lp376
I671
aI214
aI576
aI672
aI3195
aI1798
aI3044
aI2776
aa(lp377
I75
aI786
aI675
aI2689
aI1178
aI2061
aI671
aI1256
aI2495
aa(lp378
I361
aI157
aI671
aI2308
aI1042
aI157
aI2642
aI2308
aI2960
aI2626
aa(lp379
I2049
aI1318
aI792
aI1999
aI157
aI688
aI1178
aI228
aI688
aa(lp380
I637
aI739
aI576
aI1378
aI224
aI2994
aI967
aI3079
aa(lp381
I1421
aI1505
aI1465
aI621
aI2430
aI1567
aI1159
aa(lp382
I671
aI2308
aI2646
aI1066
aI569
aI3180
aI1716
aI1418
aa(lp383
I1884
aI2642
aI2308
aI671
aI1178
aI671
aI2308
aI2642
aI2790
aa(lp384
I813
aI2249
aI1635
aI687
aI385
aI245
aI1178
aa(lp385
I145
aI2436
aI1635
aI2637
aI2863
aI210
aI576
aI429
aa(lp386
I1866
aI1635
aI3025
aI621
aI2231
aI2308
aI235
aI621
aa(lp387
I228
aI2516
aI2993
aI456
aI1039
aI2231
aI2994
aI180
aI3079
aa(lp388
I1241
aI2092
aI2129
aI2078
aI2105
aI1635
aI2642
aI621
aI127
aI2994
aa(lp389
I1657
aI621
aI1432
aI429
aI866
aI1418
aI1964
aI2078
aI3017
aI1178
aa(lp390
I671
aI2075
aI621
aI2994
aI676
aI1023
aa(lp391
I60
aI621
aI1628
aI2129
aI1066
aI3003
aI1539
aI1632
aI1418
aa(lp392
I820
aI111
aI157
aI2389
aI822
aI555
aI2642
aI2790
aa(lp393
I2799
aI369
aI2695
aI3118
aI586
aI2986
aI555
aI671
aI1178
aa(lp394
I1156
aI1161
aI1178
aI1462
aI1549
aI775
aI576
aI1418
aa(lp395
I2878
aI2985
aI157
aI2667
aI907
aI1610
aI2994
aa(lp396
I3013
aI438
aI157
aI1549
aI1657
aI678
aI861
aI1178
aa(lp397
I3030
aI157
aI889
aI1178
aI1999
aI157
aI2983
aI2178
aI1178
aa(lp398
I2832
aI576
aI424
aI1735
aI235
aI1635
aI3044
aI145
aI1034
aa(lp399
I611
aI3187
aI1549
aI2078
aI3044
aI2078
aI3044
aI316
aa(lp400
I944
aI2469
aI1159
aI1178
aI2092
aI2469
aI2544
aI2512
aa(lp401
I1947
aI1114
aI48
aI2013
aI2994
aI1680
aI1549
aa(lp402
I797
aI2958
aI1999
aI157
aI605
aI1364
aI576
aI638
aa(lp403
I2878
aI157
aI224
aI1178
aI228
aI1501
aI1125
aI2994
aI706
aa(lp404
I3002
aI2642
aI1505
aI230
aI2955
aI2295
aI621
aI1635
aI3044
aa(lp405
I184
aI3068
aI2955
aI1087
aI2769
aI412
aI2378
aI2516
aa(lp406
I133
aI931
aI2709
aI2299
aI920
aI2141
aI608
aI688
aa(lp407
I1474
aI1549
aI2878
aI157
aI909
aI1635
aI481
aI2994
aI224
aI1159
aa(lp408
I2998
aI1147
aI2141
aI1505
aI949
aI621
aI1635
aI1418
aa(lp409
I1668
aI585
aI1505
aI2326
aI1278
aI2851
aI2994
aa(lp410
I2560
aI2994
aI1118
aI1798
aI1316
aI1505
aI1615
aI621
aI881
aI2994
aa(lp411
I2929
aI2786
aI682
aI157
aI902
aI75
aI252
aI675
aI1549
aI1178
aa(lp412
I397
aI1635
aI2012
aI1725
aI1569
aI954
aI2994
aI967
aI224
aa(lp413
I671
aI2885
aI3078
aI576
aI2072
aI3187
aI2891
aI688
aa(lp414
I2111
aI1369
aI1892
aI1134
aI946
aI2795
aI1403
aI1178
aa(lp415
I2283
aI801
aI1798
aI1316
aI1505
aI512
aI591
aI1940
aI1178
aa(lp416
I1742
aI2080
aI2955
aI3141
aI2994
aI967
aI224
aa(lp417
I2739
aI127
aI2111
aI1635
aI2111
aI2516
aI3009
aI1178
aa(lp418
I1940
aI1905
aI1505
aI2542
aI1187
aI621
aa(lp419
I218
aI1217
aI1066
aI578
aI2950
aI1384
aI75
aI2994
aI2776
aa(lp420
I349
aI682
aI228
aI1501
aI1125
aI2994
aI2182
aI621
aI578
aI2790
aa(lp421
I1013
aI111
aI1178
aI827
aI2098
aI1709
aI1610
aa(lp422
I620
aI1610
aI1549
aI3162
aI569
aI1835
aI608
aa(lp423
I680
aI1979
aI2765
aI2252
aI2308
aI2994
aI2776
aa(lp424
I2972
aI945
aI946
aI1610
aI1178
aI920
aI1311
aI1533
aI1178
aa(lp425
I1191
aI2998
aI2994
aI2776
aI3187
aI1359
aI1610
aI1178
aa(lp426
I1873
aI2816
aI1178
aI131
aI1798
aI1316
aI3079
aa(lp427
I1725
aI362
aI2516
aI1054
aI920
aI1627
aI682
aI4
aa(lp428
I890
aI1067
aI2776
aI680
aI621
aI1505
aI537
aI2950
aa(lp429
I2212
aI228
aI576
aI222
aI1159
aI757
aI585
aI2790
aa(lp430
I940
aI555
aI920
aI1191
aI1274
aI393
aI621
aI2092
aI2129
aa(lp431
I1559
aI1890
aI157
aI1505
aI995
aI621
aI1549
aI672
aa(lp432
I936
aI868
aI228
aI1635
aI145
aI1505
aI2972
aI2720
aI1610
aI2783
aa(lp433
I907
aI1119
aI569
aI1067
aI1316
aI1505
aI2155
aI1159
aa(lp434
I228
aI576
aI2855
aI2994
aI2736
aI2994
aI1475
aI2720
aa(lp435
I145
aI1505
aI1610
aI621
aI1610
aI1704
aI233
aI1610
aI2129
aI1178
aa(lp436
I2642
aI2976
aI157
aI125
aI2129
aI578
aa(lp437
I2029
aI2290
aI2988
aI1549
aI2563
aI157
aI2122
aI368
aI1159
aI1418
aa(lp438
I2766
aI1735
aI2412
aI1462
aI2308
aI394
aI1178
aa(lp439
I2747
aI971
aI608
aI1505
aI2596
aI1791
aI1590
aI1364
aa(lp440
I1591
aI621
aI1505
aI471
aI621
aI1549
aI225
aI1765
aa(lp441
I1574
aI35
aI2308
aI3100
aI2297
aI233
aI385
aI1178
aa(lp442
I2440
aI2720
aI688
aI1066
aI920
aI157
aI688
aI225
aI404
aa(lp443
I487
aI2400
aI1505
aI519
aI621
aI2308
aI2663
aa(lp444
I2998
aI945
aI2544
aI2790
aI145
aI1656
aI224
aI708
aa(lp445
I2404
aI968
aI2544
aI1549
aI579
aI134
aI6
aI157
aI2007
aa(lp446
I665
aI644
aI920
aI2561
aI2544
aI1169
aI659
aI642
aI1798
aa(lp447
I1060
aI219
aI1505
aI3192
aI576
aI2251
aI1635
aa(lp448
I932
aI219
aI3076
aI1178
aI817
aI3133
aI1892
aI2790
aa(lp449
I2714
aI2561
aI688
aI2561
aI1451
aI1664
aI1828
aI2720
aI688
aI704
aa(lp450
I2194
aI2994
aI2765
aI1271
aI2911
aI1798
aI1316
aI1696
aa(lp451
I1725
aI732
aI1549
aI597
aI1995
aI621
aI676
aa(lp452
I1206
aI153
aI621
aI786
aI106
aI1549
aI2185
aa(lp453
I647
aI273
aI1549
aI2905
aI2285
aI126
aa(lp454
I2545
aI1635
aI866
aI1455
aI621
aI101
aI2130
aa(lp455
I786
aI1561
aI2561
aI1501
aI2454
aI562
aI1549
aa(lp456
I63
aI1767
aI2561
aI1458
aI2104
aI621
aI2516
aI1178
aa(lp457
I775
aI2544
aI1549
aI1340
aI1635
aI3039
aI1566
aa(lp458
I2309
aI868
aI1731
aI2219
aI235
aI1685
aI157
aI1023
aI60
aa(lp459
I1374
aI157
aI1501
aI574
aI3142
aI1610
aI1549
aa(lp460
I362
aI1757
aI235
aI2790
aI737
aI3133
aI202
aI2668
aI2790
aa(lp461
I1067
aI145
aI2516
aI2078
aI3074
aI4
aI2511
aI1317
aI621
aa(lp462
I494
aI258
aI792
aI920
aI157
aI2544
aI688
aI2078
aI638
aa(lp463
I1220
aI1685
aI3068
aI1418
aI1258
aI1007
aI1458
aI621
aI1505
aI1613
aa(lp464
I2642
aI2061
aI1798
aI2709
aI3106
aI2129
aI3166
aI2793
aa(lp465
I994
aI157
aI1411
aI276
aI176
aI145
aI586
aI1178
aa(lp466
I735
aI157
aI576
aI145
aI3075
aI866
aI1909
aI2480
aI1635
aa(lp467
I100
aI2470
aI2720
aI576
aI546
aI608
aI2523
aa(lp468
I230
aI2129
aI2511
aI621
aI1822
aI1159
aI1542
aI1066
aI1262
aa(lp469
I786
aI1856
aI157
aI1501
aI598
aI621
aI93
aI1635
aa(lp470
I526
aI967
aI2236
aI1798
aI2709
aI1505
aI2997
aI1017
aI792
aI688
aa(lp471
I775
aI621
aI1066
aI2696
aI1178
aI587
aI621
aI525
aI1159
aa(lp472
I136
aI157
aI1635
aI2591
aI936
aI572
aI608
aI967
aI1069
aa(lp473
I3042
aI621
aI1039
aI2765
aI2994
aI638
aI1584
aI2129
aI385
aa(lp474
I1412
aI491
aI2790
aI3055
aI2888
aI879
aI591
aa(lp475
I2968
aI2844
aI1706
aI621
aI298
aI1159
aI2078
aI1635
aa(lp476
I961
aI920
aI608
aI2776
aI1730
aI2098
aI1254
aI1359
aI2790
aI1564
aa(lp477
I1834
aI506
aI1610
aI2965
aI1178
aI424
aI2098
aI233
aI1178
aa(lp478
I1935
aI1704
aI2129
aI2776
aI1159
aI2955
aI1314
aI2297
aI1735
aI792
aa(lp479
I477
aI3124
aI236
aI1178
aI1026
aI2765
aI1586
aa(lp480
I1685
aI1178
aI1483
aI2124
aI1258
aI2186
aI1178
aI866
aa(lp481
I3132
aI17
aI576
aI2173
aI2586
aI2224
aI1178
aa(lp482
I2544
aI576
aI2994
aI60
aI1178
aI1309
aI586
aI487
aI1610
aa(lp483
I1765
aI1549
aI1240
aI608
aI493
aa(lp484
I365
aI608
aI2543
aI1923
aI1999
aI157
aa(lp485
I2098
aI2476
aI608
aI1169
aI1735
aI2476
aI608
aI1571
aa(lp486
I979
aI576
aI2813
aI2994
aI505
aI1993
aI608
aI1635
aI688
aa(lp487
I2255
aI608
aI569
aI2975
aI2971
aI608
aa(lp488
I2733
aI1108
aI3109
aI1798
aI1999
aI157
aI1621
aI1178
aa(lp489
I11
aI1178
aI920
aI157
aI576
aI569
aI738
aI719
aI2709
aa(lp490
I2297
aI144
aI1778
aI2834
aI1569
aI2994
aI1159
aa(lp491
I145
aI2516
aI1251
aI2945
aI2776
aI3061
aI2141
aI1159
aI1635
aa(lp492
I535
aI2297
aI144
aI1729
aI486
aI1159
aI2672
aI145
aI2480
aa(lp493
I235
aI2098
aI2746
aI993
aI2664
aI3081
aa(lp494
I1759
aI145
aI1549
aI429
aI1159
aI226
aI1359
aI2290
aI1023
aa(lp495
I907
aI261
aI2297
aI145
aI2308
aI1815
aI608
aI1411
aa(lp496
I1707
aI235
aI2790
aI569
aI1533
aI2746
aI1729
aI2664
aI576
aa(lp497
I419
aI307
aI1798
aI2173
aI2664
aI576
aI385
aa(lp498
I2984
aI2120
aI946
aI1066
aI1846
aI570
aI385
aI2776
aa(lp499
I600
aI946
aI2516
aI1701
aI2141
aI455
aI570
aI555
aI638
aa(lp500
I228
aI1045
aI10
aI1066
aI1007
aI2994
aa(lp501
I572
aI228
aI429
aI2826
aI2112
aI366
aI157
aI3004
aa(lp502
I145
aI903
aI2640
aI1693
aI1549
aI2129
aI1069
aa(lp503
I1072
aI608
aI2516
aI903
aI1159
aI1204
aI2129
aI2780
aa(lp504
I2366
aI2709
aI576
aI228
aI920
aI2994
aI1023
aI1066
aI429
aI2790
aa(lp505
I441
aI1850
aI608
aI569
aI362
aI362
aI1417
aI2129
aI2950
aa(lp506
I600
aI1726
aI843
aI551
aI1798
aI2950
aa(lp507
I1975
aI1505
aI1834
aI429
aI553
aI89
aI2561
aI2096
aI1635
aa(lp508
I419
aI2613
aI1279
aI2308
aI2595
aI3135
aI2994
aI1023
aa(lp509
I2651
aI1178
aI27
aI608
aI1505
aI1782
aI157
aI1610
aI1204
aa(lp510
I2508
aI1515
aI931
aI1515
aI659
aI188
aI3139
aI688
aa(lp511
I1735
aI1515
aI1610
aI1515
aI1610
aI1364
aI1505
aI1196
aI1515
aa(lp512
I2573
aI290
aI429
aI2972
aI608
aI576
aI594
aa(lp513
I1953
aI2544
aI1635
aI834
aI920
aI157
aI586
aI2994
aa(lp514
I730
aI1069
aI1590
aI2595
aI1066
aI1567
aI2994
aI224
aI1023
aa(lp515
I936
aI95
aI2709
aI555
aI661
aI2544
aI1159
aI2611
aa(lp516
I2673
aI1567
aI851
aI608
aI576
aI2994
aI1159
aa(lp517
I940
aI3138
aI608
aI1610
aI1505
aI1961
aI1798
aI2308
aI1178
aa(lp518
I228
aI576
aI3140
aI2994
aI467
aI1159
aI467
aI569
aI1680
aI2178
aa(lp519
I145
aI739
aI169
aI1666
aI224
aI2765
aI2994
aI3140
aI2544
aa(lp520
I833
aI1635
aI468
aI976
aI134
aI157
aI967
aI3079
aa(lp521
I1440
aI157
aI1056
aI727
aI1159
aI128
aI3017
aI2129
aI2182
aa(lp522
I139
aI326
aI1185
aI2141
aI3101
aI1119
aa(lp523
I690
aI1635
aI1821
aI2718
aI35
aI688
aa(lp524
I145
aI576
aI2738
aI578
aI634
aI621
aI1999
aI608
aI936
aI708
aa(lp525
I2283
aI608
aI507
aI1511
aI2388
aI3082
aa(lp526
I228
aI1635
aI997
aI1265
aI1159
aI2748
aI1023
aI3034
aI688
aa(lp527
I2594
aI1670
aI936
aI3017
aI1999
aI608
aI2129
aI1418
aa(lp528
I27
aI576
aI1735
aI169
aI1666
aI134
aI2666
aI621
aI2129
aI2297
aa(lp529
I3123
aI2045
aI2776
aI1760
aI675
aI1359
aI1169
aa(lp530
I276
aI2813
aI2078
aI2480
aI228
aI1501
aI1600
aI1159
aI3133
aI1178
aa(lp531
I1012
aI1134
aI2805
aI1635
aI1773
aI282
aa(lp532
I296
aI2284
aI1364
aI2105
aI429
aI134
aI3077
aI157
aI578
aa(lp533
I2547
aI621
aI2297
aI2290
aI1119
aI2790
aI362
aI2297
aI1212
aI621
aa(lp534
I2484
aI2994
aI1007
aI2143
aI1549
aI27
aI608
aI3079
aI708
aa(lp535
I145
aI1505
aI1961
aI219
aI621
aI1610
aI2092
aI2129
aI1418
aa(lp536
I2813
aI1999
aI3101
aI362
aI1635
aI2547
aI3101
aI362
aI967
aI1680
aa(lp537
I228
aI2547
aI2994
aI1418
aI3101
aI362
aI2790
aI2189
aI1680
aI1178
aa(lp538
I940
aI992
aI2358
aI2480
aI2544
aI688
aI60
aa(lp539
I235
aI2373
aI1505
aI1072
aI3051
aI920
aI682
aI2664
aI1178
aa(lp540
I936
aI1007
aI2994
aI2481
aI2544
aI2308
aI1159
aa(lp541
I907
aI367
aI2129
aI2776
aI228
aI1635
aI2155
aI1159
aa(lp542
I932
aI2129
aI203
aI2764
aI1798
aI1680
aI1840
aI708
aa(lp543
I871
aI2141
aI654
aI435
aI966
aI608
aI1066
aI570
aI1176
aa(lp544
I920
aI1505
aI605
aI1549
aI1591
aI621
aI906
aI1635
aa(lp545
I1025
aI555
aI1683
aI1023
aI605
aI1178
aI1591
aI2776
aa(lp546
I535
aI235
aI586
aI1635
aI3079
aI1131
aI2129
aI1159
aI1178
aa(lp547
I1759
aI2698
aI555
aI2783
aI84
aI2078
aI373
aI2308
aa(lp548
I1610
aI225
aI1204
aI628
aI920
aI157
aI2746
aI157
aI1610
aI1204
aa(lp549
I218
aI31
aI2129
aI1169
aI1735
aI224
aI2129
aI1704
aI1680
aa(lp550
I736
aI920
aI758
aI1129
aI2129
aI1159
aI920
aI157
aI920
aI792
aa(lp551
I1735
aI2544
aI31
aI2129
aI218
aI1119
aI737
aI362
aI1610
aa(lp552
I1031
aI920
aI157
aI2129
aI920
aI157
aI688
aI578
aI224
aa(lp553
I2136
aI2129
aI920
aI157
aI688
aI228
aI1308
aI1265
aI2994
aa(lp554
I1358
aI1999
aI608
aI2129
aI578
aI604
aI2297
aI638
aI2790
aa(lp555
I2620
aI1999
aI608
aI1680
aI1505
aI1563
aI2809
aI2308
aa(lp556
I3061
aI2762
aI1468
aI608
aI1906
aI429
aI2994
aa(lp557
I2132
aI157
aI1610
aI228
aI455
aI2129
aI3081
aa(lp558
I136
aI2633
aI1798
aI569
aI570
aI1739
aI920
aI638
aI1178
aa(lp559
I1734
aI1750
aI2954
aI1169
aI190
aI2633
aI2838
aI1635
aa(lp560
I1101
aI2997
aI506
aI1610
aI2157
aI576
aI1964
aI2961
aa(lp561
I501
aI2297
aI1066
aI144
aI486
aI638
aI2732
aI1549
aI145
aI2087
aa(lp562
I1904
aI68
aI1159
aI939
aI2530
aI1359
aa(lp563
I973
aI608
aI2516
aI760
aI783
aI1567
aI2994
aI1418
aa(lp564
I2551
aI2997
aI1696
aI1035
aI608
aI1178
aI188
aI608
aa(lp565
I2092
aI2129
aI1274
aI2266
aI470
aI1039
aI688
aa(lp566
I2108
aI2297
aI1635
aI124
aI1178
aI2092
aI2129
aI2762
aa(lp567
I2375
aI2297
aI1635
aI124
aI2092
aI2129
aI2061
aa(lp568
I723
aI1918
aI1680
aI1246
aI1642
aI1798
aI1418
aI1178
aa(lp569
I1688
aI2765
aI3133
aI998
aI2689
aI871
aI2945
aI2952
aa(lp570
I1848
aI2719
aI157
aI2580
aI2129
aI638
aI2790
aI145
aI1575
aa(lp571
I1975
aI1348
aI608
aI1178
aI188
aI608
aI2333
aI1178
aa(lp572
I1533
aI60
aI948
aI2720
aI576
aI228
aI3069
aI2783
aa(lp573
I2651
aI2199
aI1798
aI230
aI1635
aI1029
aI2092
aI2129
aI1274
aa(lp574
I228
aI1635
aI2689
aI300
aI188
aI608
aI2308
aI520
aa(lp575
I145
aI1635
aI2756
aI1417
aI188
aI608
aI2308
aI1119
aa(lp576
I136
aI157
aI1610
aI1066
aI569
aI570
aI2689
aI1704
aI2129
aI1159
aa(lp577
I2260
aI2689
aI2736
aI2994
aI469
aI2297
aI1007
aI570
aI638
aI1178
aa(lp578
I2597
aI2042
aI157
aI1505
aI569
aI228
aI4
aI2852
aI1159
aa(lp579
I1266
aI1735
aI145
aI416
aI1159
aI920
aI576
aI3042
aI1798
aa(lp580
I1855
aI1745
aI2952
aI2994
aI2960
aI1469
aI945
aa(lp581
I2689
aI920
aI2994
aI1914
aI2129
aI2325
aI2689
aI920
aI3017
aI2129
aa(lp582
I145
aI2587
aI2852
aI555
aI1023
aI60
aI933
aI157
aI688
aI1178
aa(lp583
I2689
aI2134
aI1635
aI933
aI157
aI688
aI349
aI157
aI928
aa(lp584
I3128
aI946
aI157
aI569
aI3042
aI157
aI228
aI3051
aI2994
aI578
aa(lp585
I3042
aI1159
aI1876
aI4
aI349
aI157
aI2689
aI698
aI1178
aa(lp586
I535
aI2124
aI3051
aI2994
aI1178
aI3025
aI245
aI2049
aI2124
aa(lp587
I2968
aI2544
aI145
aI1501
aI191
aI933
aI157
aI688
aI2124
aI1178
aa(lp588
I235
aI2098
aI2994
aI1178
aI349
aI157
aI2887
aI621
aI340
aI2790
aa(lp589
I907
aI145
aI2790
aI2746
aI2852
aI224
aI2053
aI2141
aa(lp590
I2096
aI467
aI1156
aI362
aI429
aI224
aI198
aI2994
aI2013
aI1418
aa(lp591
I460
aI585
aI2855
aI233
aI2642
aI621
aI1610
aI688
aa(lp592
I228
aI1501
aI2178
aI233
aI662
aI576
aI5
aI2994
aI1418
aI2790
aa(lp593
I2353
aI602
aI576
aI1241
aI2098
aI1241
aI2682
aI1178
aa(lp594
I1241
aI586
aI555
aI237
aI661
aI13
aI2129
aI224
aa(lp595
I1237
aI739
aI742
aI742
aI2301
aI608
aI119
aI3079
aa(lp596
I2594
aI1216
aI536
aI608
aI1549
aI2642
aI2027
aI621
aI1635
aa(lp597
I1023
aI785
aI1806
aI608
aI1156
aI2876
aI1635
aI1418
aa(lp598
I3135
aI1523
aI2297
aI1156
aI362
aI1189
aI2994
aI119
aI3079
aa(lp599
I2642
aI1088
aI621
aI576
aI228
aI1501
aI1096
aI2308
aa(lp600
I1806
aI1957
aI461
aI608
aI671
aI680
aI576
aI1418
aa(lp601
I3182
aI555
aI1156
aI2608
aI1501
aI5
aI1877
aI1822
aa(lp602
I228
aI2096
aI2994
aI998
aI2096
aI1635
aI1996
aI2098
aI296
aI1610
aa(lp603
I145
aI228
aI1237
aI429
aI662
aI1418
aI296
aI1241
aI1996
aI1178
aa(lp604
I2998
aI1176
aI2979
aI157
aI1505
aI95
aI2351
aI621
aI578
aa(lp605
I735
aI157
aI433
aI1066
aI2826
aI339
aI787
aa(lp606
I665
aI2297
aI119
aI2994
aI1092
aI1505
aI440
aI224
aI688
aa(lp607
I3182
aI3017
aI2129
aI1274
aI1599
aI180
aI2897
aI2516
aa(lp608
I1511
aI868
aI1862
aI157
aI3081
aI224
aI345
aI792
aa(lp609
I228
aI2516
aI757
aI412
aI2860
aI621
aI2983
aa(lp610
I2399
aI1178
aI2099
aI2124
aI2460
aI967
aI2998
aI2477
aI688
aa(lp611
I2297
aI119
aI3133
aI1274
aI1120
aI621
aI1125
aI2950
aI1818
aI2950
aa(lp612
I2998
aI1066
aI1567
aI2994
aI1159
aI145
aI1450
aI2998
aI1564
aI2790
aa(lp613
I1559
aI2092
aI2129
aI1418
aI1273
aI1505
aI2201
aI263
aI3072
aI1635
aa(lp614
I217
aI905
aI1178
aI412
aI1505
aI536
aI1023
aI1159
aI2790
aa(lp615
I1940
aI157
aI1549
aI435
aI2786
aI2584
aI144
aI2994
aa(lp616
I1245
aI1023
aI2390
aI2308
aI721
aI1099
aa(lp617
I2111
aI2249
aI1505
aI2618
aI1254
aI1877
aI2790
aa(lp618
I2168
aI197
aI1178
aI560
aI3077
aI1729
aI3025
aI621
aa(lp619
I1095
aI2994
aI914
aI228
aI1549
aI2124
aI2098
aa(lp620
I664
aI157
aI3025
aI621
aI2998
aI157
aI1127
aI621
aa(lp621
I2650
aI1117
aI2893
aI1549
aI811
aI1364
aa(lp622
I1559
aI2098
aI2390
aI1665
aI1364
aI1418
aI688
aa(lp623
I228
aI1635
aI920
aI1505
aI2683
aI1663
aI576
aa(lp624
I907
aI1729
aI1549
aI3
aI1505
aI3135
aI1417
aI545
aI157
aa(lp625
I2473
aI1549
aI1884
aI2122
aI1635
aI724
aI81
aa(lp626
I120
aI2297
aI2209
aI1602
aI766
aa(lp627
I228
aI2516
aI1643
aI2259
aI2893
aI1359
aI2308
aa(lp628
I278
aI1578
aI748
aI1313
aI1067
aI2790
aI60
aI2783
aa(lp629
I145
aI1635
aI570
aI918
aI1895
aI461
aI608
aI1505
aa(lp630
I1752
aI820
aI792
aI224
aI2790
aI2887
aI2994
aI78
aI2544
aa(lp631
I1187
aI1016
aI2179
aI1178
aI1578
aI748
aI225
aI2429
aI2994
aa(lp632
I738
aI2697
aI1798
aI2955
aI2098
aI973
aI1178
aI1725
aI362
aa(lp633
I2283
aI608
aI1505
aI2320
aI621
aI108
aI1635
aI3079
aa(lp634
I446
aI119
aI2283
aI663
aI608
aI973
aI157
aI1725
aI362
aa(lp635
I674
aI1159
aI1505
aI3093
aI621
aI1725
aI362
aI973
aI157
aa(lp636
I2212
aI3017
aI2078
aI576
aI2129
aI1159
aI2462
aI555
aI973
aI157
aa(lp637
I1156
aI767
aI1549
aI815
aI83
aI2872
aI1798
aa(lp638
I2796
aI1108
aI1159
aI555
aI2525
aI621
aI2790
aa(lp639
I725
aI2949
aI461
aI608
aI2078
aI576
aI877
aI1178
aa(lp640
I2083
aI569
aI1249
aI2544
aI249
aI1635
aa(lp641
I973
aI621
aI1635
aI2316
aI1610
aI605
aI1505
aI2258
aI1798
aa(lp642
I1977
aI569
aI2452
aI2720
aI2308
aI1178
aa(lp643
I1961
aI1786
aI682
aI621
aI1178
aI2712
aI1002
aI2027
aI621
aa(lp644
I1961
aI2102
aI608
aI569
aI2155
aI1002
aI362
aI2960
aI2950
aa(lp645
I973
aI1505
aI920
aI1833
aI608
aI674
aI1786
aI157
aI1178
aa(lp646
I333
aI569
aI2935
aI1798
aI973
aI1178
aI1725
aI362
aI2453
aa(lp647
I3025
aI621
aI2240
aI1067
aI1875
aI1850
aI555
aI245
aI1178
aa(lp648
I2178
aI1798
aI688
aI1837
aI569
aI1725
aI362
aI1159
aI1418
aa(lp649
I3036
aI555
aI2338
aI2280
aI1549
aI920
aI576
aI973
aI1515
aa(lp650
I2647
aI555
aI1725
aI157
aI224
aI804
aI946
aI157
aI1549
aa(lp651
I973
aI157
aI765
aI2628
aI2936
aI621
aI1635
aI1178
aa(lp652
I1942
aI1786
aI157
aI569
aI1725
aI362
aI1591
aI317
aa(lp653
I1961
aI1798
aI1769
aI555
aI920
aI1505
aI605
aI2561
aI576
aI1178
aa(lp654
I920
aI157
aI1515
aI804
aI608
aI2308
aI1467
aI1023
aa(lp655
I145
aI1549
aI1039
aI1636
aI2092
aI472
aI1999
aI608
aa(lp656
I2607
aI2273
aI605
aI157
aI1169
aI456
aI1066
aI2129
aI688
aa(lp657
I228
aI1549
aI233
aI1178
aI225
aI1549
aI1039
aI1567
aI2994
aI1178
aa(lp658
I2283
aI157
aI576
aI804
aI608
aI5
aI233
aI578
aI1515
aa(lp659
I600
aI1002
aI1178
aI1786
aI1635
aI973
aI157
aI582
aa(lp660
I735
aI157
aI333
aI2994
aI1418
aI2994
aI737
aI1357
aI3079
aa(lp661
I2686
aI1635
aI2090
aI1059
aI22
aI1041
aI245
aa(lp662
I3182
aI2012
aI1845
aI570
aI2514
aI157
aI1635
aI1159
aa(lp663
I524
aI1505
aI2405
aI1211
aI576
aI1473
aI1505
aI2637
aI2516
aa(lp664
I2098
aI1984
aI1186
aI157
aI2157
aI1635
aI2129
aI2790
aa(lp665
I136
aI617
aI157
aI1067
aI1782
aI3082
aI2013
aa(lp666
I1110
aI937
aI362
aI1178
aI2613
aI1505
aI467
aI2129
aa(lp667
I3061
aI2718
aI35
aI1505
aI942
aI621
aI624
aI2092
aa(lp668
I378
aI1196
aI576
aI1278
aI146
aI1066
aI2994
aI2765
aI228
aa(lp669
I2092
aI2129
aI1929
aI2994
aI385
aI1066
aI2092
aI2129
aI1274
aI653
aa(lp670
I2073
aI157
aI1505
aI1058
aI2762
aI621
aI2321
aa(lp671
I1961
aI1178
aI1313
aI1129
aI2129
aI1809
aI2955
aI1508
aI2516
aa(lp672
I885
aI2994
aI1054
aI2297
aI2947
aI2129
aI2899
aI60
aI1178
aa(lp673
I682
aI1023
aI42
aI1798
aI688
aI1771
aI1368
aI2651
aI688
aa(lp674
I1313
aI1591
aI1159
aI77
aI578
aI1591
aI1159
aI507
aa(lp675
I1936
aI157
aI1501
aI1449
aI228
aI2096
aI2290
aI2994
aI1418
aa(lp676
I1686
aI2177
aI2561
aI1367
aI4
aI920
aI608
aI2950
aI1418
aa(lp677
I2669
aI859
aI2308
aI2991
aI1159
aI1635
aI2363
aa(lp678
I1672
aI729
aI394
aI2129
aI1418
aI1591
aI1159
aI507
aa(lp679
I1725
aI1119
aI1685
aI1159
aI1549
aI145
aI196
aI2992
aI1178
aa(lp680
I737
aI570
aI1118
aI621
aI2516
aI3146
aI920
aI1418
aa(lp681
I2774
aI104
aI1505
aI2049
aI2140
aI2290
aa(lp682
I84
aI145
aI1702
aI2994
aI429
aI1591
aI1159
aI507
aa(lp683
I2398
aI3101
aI362
aI1505
aI2820
aI621
aI2321
aa(lp684
I2506
aI1999
aI157
aI507
aI599
aI157
aI2544
aI1178
aa(lp685
I1961
aI608
aI1501
aI2140
aI3109
aI621
aI3105
aI1635
aa(lp686
I826
aI1505
aI374
aI621
aI1704
aI2129
aI145
aI1590
aI871
aI1635
aa(lp687
I2677
aI792
aI1776
aI967
aI2994
aI920
aI1635
aI2793
aI1892
aa(lp688
I735
aI621
aI1501
aI812
aI2994
aI429
aI1877
aI3079
aa(lp689
I1013
aI1227
aI2892
aI157
aI370
aI2994
aI1680
aI1418
aa(lp690
I1189
aI1635
aI631
aI1159
aI1178
aI1360
aI1159
aI1912
aI555
aa(lp691
I349
aI608
aI2516
aI2021
aI2098
aI1273
aI621
aI180
aI1781
aa(lp692
I2111
aI157
aI1549
aI51
aI145
aI298
aI1159
aI1915
aI621
aa(lp693
I145
aI576
aI1881
aI1159
aI2838
aI1635
aI1501
aI1444
aI2671
aa(lp694
I3038
aI868
aI1203
aI621
aI2507
aI2278
aI2308
aI578
aI2950
aa(lp695
I228
aI2516
aI3135
aI1417
aI1428
aI1066
aI2736
aI382
aI2561
aa(lp696
I1501
aI2078
aI986
aI1265
aI2843
aI923
aI621
aa(lp697
I63
aI2561
aI1056
aI449
aI1193
aI2028
aI1159
aa(lp698
I1541
aI1798
aI1549
aI1699
aI3133
aI3009
aI2776
aa(lp699
I249
aI2561
aI1635
aI2818
aI1169
aI145
aI1635
aI1775
aI1735
aa(lp700
I361
aI157
aI576
aI2544
aI1911
aI555
aI1541
aI1385
aI1159
aI688
aa(lp701
I1296
aI2887
aI157
aI1178
aI3020
aI725
aI136
aI157
aa(lp702
I1452
aI1245
aI621
aI1745
aI920
aI157
aI967
aI2960
aa(lp703
I1428
aI2994
aI228
aI2516
aI1418
aI415
aI2351
aI157
aI1505
aa(lp704
I2899
aI145
aI200
aI2994
aI2826
aI2793
aI2092
aI2129
aI1274
aI2516
aa(lp705
I2767
aI792
aI569
aI788
aI1505
aI1378
aI2994
aI998
aa(lp706
I2049
aI224
aI1915
aI1590
aI157
aI2952
aI1745
aI1680
aI708
aa(lp707
I1245
aI2790
aI369
aI967
aI763
aI2893
aI1418
aa(lp708
I204
aI621
aI1501
aI841
aI385
aI2843
aI2994
aI2826
aI224
aa(lp709
I3038
aI2994
aI2290
aI1117
aI792
aI1428
aI1816
aI576
aa(lp710
I2181
aI2692
aI664
aI157
aI1549
aI1941
aI792
aI967
aI224
aa(lp711
I3135
aI1417
aI920
aI1229
aI1505
aI664
aI124
aa(lp712
I2451
aI1149
aI2561
aI576
aI2979
aI2351
aI792
aI1616
aI2290
aa(lp713
I2094
aI157
aI1745
aI2290
aI2960
aI920
aI688
aI920
aI2790
aa(lp714
I476
aI248
aI3133
aI1255
aI228
aI2516
aI1892
aa(lp715
I2421
aI1635
aI871
aI2078
aI936
aI1178
aI2298
aI1664
aI228
aI2008
aa(lp716
I2890
aI1523
aI13
aI424
aI621
aI2950
aI2994
aI1567
aI1023
aa(lp717
I1250
aI2959
aI2141
aI2561
aI1635
aI2078
aI2813
aI967
aa(lp718
I2492
aI1757
aI35
aI1066
aI2952
aI3133
aI2776
aI621
aa(lp719
I1809
aI1269
aI1505
aI2139
aI2048
aI621
aI2015
aI688
aa(lp720
I3090
aI1023
aI1178
aI65
aI1023
aI2707
aI2098
aI124
aa(lp721
I2091
aI1086
aI1134
aI1159
aI576
aI1795
aI1269
aI1892
aa(lp722
I2098
aI3144
aI2458
aI233
aI27
aI1505
aI2036
aI3044
aa(lp723
I1177
aI621
aI576
aI1186
aI62
aI1515
aa(lp724
I378
aI157
aI2950
aI1588
aI201
aI1159
aI1591
aI621
aI569
aI1023
aa(lp725
I63
aI555
aI957
aI621
aI2776
aI335
aI621
aI2950
aI1515
aa(lp726
I2420
aI2896
aI39
aI2278
aI586
aI1635
aa(lp727
I25
aI1868
aI2561
aI2917
aI75
aI2308
aa(lp728
I944
aI1154
aI1102
aI13
aI1588
aI2098
aI1523
aa(lp729
I2832
aI1635
aI714
aI1417
aI47
aI1635
aI644
aI1417
aa(lp730
I3135
aI1588
aI2098
aI2627
aI95
aI1528
aI569
aI1680
aa(lp731
I2877
aI1588
aI1501
aI237
aI1841
aI1505
aI1143
aI1159
aa(lp732
I1806
aI235
aI235
aI35
aI4
aI235
aI35
aI1892
aa(lp733
I1481
aI661
aI35
aI967
aI235
aI2790
aI1588
aI1178
aa(lp734
I2567
aI621
aI1178
aI1960
aI2932
aa(lp735
I1588
aI189
aI1516
aI76
aI569
aa(lp736
I2091
aI188
aI1505
aI2092
aI1610
aI2223
aI1583
aI1501
aa(lp737
I75
aI2936
aI2098
aI56
aI1098
aI576
aI1588
aI1178
aa(lp738
I1086
aI621
aI1505
aI1689
aI1178
aI2276
aI621
aI1505
aI526
aa(lp739
I1237
aI188
aI1528
aI1505
aI661
aI555
aI235
aI621
aa(lp740
I890
aI555
aI1150
aI1528
aI2950
aI3025
aI621
aa(lp741
I3038
aI486
aI2237
aI1523
aI35
aI576
aI1588
aI1178
aa(lp742
I1961
aI2278
aI2765
aI1588
aI1964
aI1354
aI1610
aI576
aa(lp743
I973
aI2367
aI688
aI1588
aI1756
aI1756
aI3044
aI1588
aI2790
aa(lp744
I369
aI2061
aI188
aI555
aI1735
aI536
aI3079
aI708
aa(lp745
I936
aI555
aI2651
aI2776
aI1295
aI2141
aI1159
aI2308
aa(lp746
I1572
aI570
aI486
aI2197
aI2790
aI461
aI2615
aI1436
aI621
aa(lp747
I940
aI570
aI576
aI555
aI2776
aI2188
aI2141
aI1159
aI688
aa(lp748
I1267
aI1798
aI1568
aI2950
aI1696
aI2765
aI2977
aI2586
aI621
aa(lp749
I1586
aI621
aI1505
aI2425
aI1233
aI621
aI2950
aa(lp750
I246
aI2950
aI2279
aI1178
aI1026
aI2709
aI1501
aI280
aa(lp751
I1306
aI1529
aI3074
aI2720
aI1343
aI1438
aI1418
aa(lp752
I1237
aI2720
aI569
aI937
aI956
aI2720
aI688
aI2790
aa(lp753
I220
aI460
aI1178
aI1433
aI940
aI233
aa(lp754
I1023
aI1066
aI429
aI1586
aI2141
aI2522
aI1635
aI869
aa(lp755
I3135
aI753
aI17
aI2098
aI3152
aI2141
aI2720
aI1505
aa(lp756
I1975
aI541
aI1178
aI2061
aI1588
aI1505
aI1023
aI1178
aa(lp757
I2651
aI1528
aI1414
aI1440
aI157
aI220
aI2290
aI1159
aI1418
aa(lp758
I2679
aI2052
aI621
aI1069
aI1762
aI1066
aa(lp759
I2440
aI2705
aI2544
aI2805
aI2290
aI3137
aI1505
aa(lp760
I372
aI1364
aI576
aI1241
aI1735
aI2309
aI2290
aI1588
aI2790
aa(lp761
I1591
aI2857
aI1549
aI2882
aI1502
aI2555
aI1169
aa(lp762
I2941
aI2916
aI2290
aI738
aI627
aI1418
aa(lp763
I1356
aI1505
aI150
aI621
aI2668
aI913
aI330
aI1178
aa(lp764
I695
aI2290
aI2168
aI874
aI677
aI1069
aI999
aI2561
aI1346
aI1069
aa(lp765
I943
aI1528
aI1505
aI2873
aI1088
aI621
aa(lp766
I1708
aI2187
aI1178
aI2122
aI1621
aa(lp767
I147
aI2049
aI1039
aI2290
aI2547
aI1528
aI276
aI2181
aI1588
aI2290
aa(lp768
I3083
aI1610
aI1505
aI1156
aI621
aI576
aI60
aa(lp769
I1751
aI410
aI621
aI1635
aI2668
aI1458
aI2544
aI495
aI1159
aa(lp770
I2339
aI1999
aI1528
aI1159
aI2989
aI621
aI998
aI1023
aa(lp771
I1156
aI2513
aI576
aI327
aI1178
aI2544
aI576
aI940
aI1588
aa(lp772
I469
aI1066
aI570
aI2297
aI50
aI608
aI299
aI920
aI2141
aa(lp773
I9
aI1169
aI2297
aI910
aI2826
aI2229
aI608
aa(lp774
I2370
aI569
aI14
aI2308
aI819
aI2790
aI2776
aa(lp775
I1845
aI1633
aI2561
aI576
aI2262
aI573
aa(lp776
I1577
aI2129
aI819
aI3081
aI2129
aI2297
aI920
aI1023
aa(lp777
I616
aI1549
aI198
aI233
aI998
aI60
aI1156
aI781
aI608
aa(lp778
I2087
aI1066
aI429
aI1178
aI1578
aI2096
aI573
aa(lp779
I247
aI3046
aI1798
aI1549
aI920
aI1505
aI439
aI621
aa(lp780
I2297
aI614
aI621
aI3044
aI3014
aI1187
aI2544
aI2480
aa(lp781
I75
aI892
aI1729
aI1274
aI1805
aI621
aI2972
aI2776
aa(lp782
I2096
aI233
aI1418
aI1159
aI1808
aI621
aI1635
aI822
aI1313
aa(lp783
I2855
aI621
aI2297
aI1007
aI1492
aI1735
aI920
aI1505
aI1378
aa(lp784
I1110
aI1505
aI1696
aI1417
aI2776
aI990
aI570
aI736
aI1515
aa(lp785
I3090
aI1735
aI2435
aI1735
aI542
aI809
aI1438
aI2495
aa(lp786
I2877
aI2790
aI429
aI2994
aI2826
aI1680
aI2978
aI1528
aI1417
aa(lp787
I664
aI1528
aI1505
aI169
aI1178
aI1701
aI621
aI2983
aa(lp788
I2233
aI1635
aI1610
aI2955
aI1591
aI2891
aI792
aI2765
aI2994
aa(lp789
I1173
aI1588
aI998
aI429
aI1635
aI2324
aI1069
aa(lp790
I1757
aI2825
aI621
aI2333
aI2994
aI1460
aI1069
aa(lp791
I1588
aI688
aI1684
aI621
aI2585
aI732
aI157
aI2994
aI2611
aa(lp792
I966
aI1840
aI1505
aI343
aI621
aI1125
aI1069
aa(lp793
I2779
aI2412
aI1073
aI1528
aI2254
aI2765
aI1588
aI1418
aa(lp794
I2998
aI315
aI157
aI1549
aI2332
aI2994
aI1460
aI1069
aa(lp795
I564
aI2110
aI1528
aI1515
aI2297
aI1007
aI1588
aI1274
aa(lp796
I721
aI1505
aI1125
aI1178
aI3182
aI2978
aI1187
aI1798
aI3044
aI2790
aa(lp797
I1359
aI586
aI1588
aI739
aI3079
aI2098
aI1588
aI1274
aI653
aa(lp798
I2952
aI1528
aI576
aI1159
aI920
aI569
aI1372
aI1798
aI758
aI1023
aa(lp799
I506
aI792
aI1477
aI3133
aI1118
aI1196
aI429
aI1588
aI385
aa(lp800
I2978
aI1528
aI1127
aI145
aI3135
aI1159
aI2502
aI267
aI1159
aa(lp801
I1809
aI1505
aI169
aI1528
aI2553
aI2998
aI576
aI2826
aI2994
aa(lp802
I57
aI1635
aI1701
aI1505
aI2542
aI591
aI599
aI1528
aI2955
aI1515
aa(lp803
I435
aI1528
aI3182
aI1635
aI722
aI3199
aI1528
aI1417
aa(lp804
I86
aI1528
aI2955
aI1417
aI1826
aI145
aI2480
aI708
aa(lp805
I68
aI1528
aI1505
aI1840
aI1868
aI591
aa(lp806
I1386
aI245
aI772
aI1122
aI1635
aI1140
aI112
aI1178
aa(lp807
I1734
aI1505
aI1588
aI2753
aI1411
aa(lp808
I1706
aI1023
aI569
aI49
aI1528
aI1658
aI1588
aI1274
aI2297
aa(lp809
I1591
aI1528
aI2784
aI1007
aI1999
aI1528
aI1588
aI1159
aa(lp810
I2203
aI555
aI570
aI1588
aI1635
aI2952
aI1588
aI1680
aI1635
aa(lp811
I1253
aI1339
aI1505
aI1
aI1635
aI1999
aI1528
aa(lp812
I1824
aI2297
aI1023
aI2058
aI385
aI2160
aI1635
aI1567
aI2994
aa(lp813
I2997
aI1515
aI506
aI570
aI2297
aI1809
aI1528
aI1308
aI1066
aa(lp814
I569
aI2776
aI1159
aI2790
aI75
aI2017
aI2297
aI1533
aI578
aa(lp815
I2920
aI1160
aI2664
aI2098
aI3079
aI218
aI533
aI4
aa(lp816
I1231
aI2838
aI1670
aI688
aI2759
aI2776
aa(lp817
I553
aI1633
aI1798
aI1505
aI518
aI2923
aI621
aa(lp818
I2178
aI1598
aI1798
aI1549
aI2691
aI2873
aI1159
aI708
aa(lp819
I1685
aI621
aI1505
aI1479
aI1952
aI3037
aI1505
aI60
aa(lp820
I3171
aI673
aI2278
aI576
aI1522
aI1528
aI145
aI1237
aa(lp821
I1935
aI737
aI337
aI576
aI1127
aI2955
aI361
aI1892
aa(lp822
I1189
aI2691
aI1458
aI675
aI621
aI1680
aI2096
aI1845
aI2994
aI1159
aa(lp823
I2862
aI1528
aI1505
aI1288
aI2497
aI2544
aI1635
aa(lp824
I233
aI219
aI3139
aI1515
aI1793
aI2098
aI486
aI3139
aa(lp825
I1385
aI621
aI2297
aI1934
aI3139
aI1515
aa(lp826
I296
aI1633
aI1505
aI2772
aI621
aI1567
aI2994
aI1211
aI708
aa(lp827
I2547
aI2406
aI283
aI2765
aI170
aI379
aI1635
aa(lp828
I1805
aI480
aI621
aI2008
aI586
aI1130
aI621
aI2950
aI3044
aa(lp829
I1013
aI2720
aI1635
aI454
aI3149
aI2664
aI429
aI1023
aa(lp830
I218
aI896
aI2776
aI1159
aI1549
aI1120
aI1402
aI245
aa(lp831
I262
aI429
aI1927
aI1610
aI2231
aI1596
aI576
aa(lp832
I2594
aI1505
aI1055
aI621
aI576
aI2412
aI1132
aa(lp833
I290
aI1417
aI2797
aI2360
aI1635
aI1847
aa(lp834
I733
aI3138
aI2561
aI1621
aI2186
aI1292
aa(lp835
I2190
aI667
aI2561
aI1067
aI555
aI654
aI1159
aI1591
aI1178
aa(lp836
I1975
aI1501
aI2091
aI1015
aI621
aI2606
aI555
aI1591
aa(lp837
I1374
aI780
aI576
aI489
aI621
aI1740
aI1178
aa(lp838
I2651
aI1886
aI1505
aI2372
aI621
aI1501
aI1499
aa(lp839
I2213
aI1635
aI2478
aI2561
aI688
aI2790
aI2022
aI2017
aI1178
aa(lp840
I1511
aI2290
aI1440
aI157
aI2832
aI576
aI169
aI1635
aI638
aI1178
aa(lp841
I599
aI3145
aI2561
aI440
aI27
aI608
aI373
aa(lp842
I1141
aI2692
aI2826
aI1522
aI608
aI2952
aI608
aI570
aI569
aa(lp843
I671
aI2892
aI621
aI1635
aI452
aI1877
aI157
aa(lp844
I1496
aI2297
aI2826
aI3170
aI157
aI664
aI2129
aI3017
aa(lp845
I2283
aI157
aI2387
aI429
aI228
aI1635
aI3044
aI237
aI2182
aa(lp846
I228
aI2516
aI2077
aI2129
aI1159
aI439
aI608
aI570
aI569
aa(lp847
I1195
aI1635
aI1834
aI157
aI1056
aI3066
aI2516
aI180
aI1023
aa(lp848
I145
aI576
aI1701
aI346
aI1178
aI2980
aI2668
aI2049
aI1635
aa(lp849
I731
aI608
aI1505
aI2600
aI1178
aI944
aI621
aa(lp850
I2487
aI1023
aI1066
aI569
aI536
aI385
aI920
aI608
aI792
aI708
aa(lp851
I52
aI1725
aI362
aI201
aI1159
aI920
aI157
aI569
aI570
aa(lp852
I2493
aI1421
aI157
aI555
aI1159
aI920
aI758
aI3101
aI362
aa(lp853
I933
aI608
aI688
aI77
aI3116
aI621
aI2279
aI1635
aa(lp854
I2340
aI1353
aI3017
aI2129
aI2611
aI2994
aI2585
aI228
aI688
aa(lp855
I563
aI326
aI1610
aI2482
aI1549
aI2993
aI180
aI145
aI2516
aa(lp856
I1725
aI362
aI1610
aI2133
aI1724
aI1505
aI2582
aa(lp857
I1961
aI35
aI157
aI1610
aI1178
aI963
aI157
aI1610
aI1178
aa(lp858
I2071
aI792
aI569
aI1533
aI2582
aI2544
aI688
aI1178
aa(lp859
I973
aI157
aI576
aI1833
aI2127
aI1023
aI569
aI570
aa(lp860
I362
aI2950
aI569
aI557
aI1023
aI786
aI792
aI3183
aa(lp861
I2542
aI2709
aI1505
aI2651
aI792
aI758
aI1023
aI2237
aI792
aa(lp862
I2930
aI429
aI27
aI3101
aI362
aI1999
aI157
aI688
aI1178
aa(lp863
I926
aI3086
aI1610
aI576
aI3025
aI1610
aI2994
aI2950
aa(lp864
I1032
aI1999
aI157
aI145
aI1101
aI137
aI157
aI1418
aI2790
aa(lp865
I1931
aI1608
aI1549
aI1783
aI1178
aI61
aa(lp866
I1451
aI2994
aI1978
aI1106
aI1724
aI3101
aI362
aa(lp867
I2447
aI1176
aI1486
aI1023
aI1999
aa(lp868
I2547
aI2994
aI1999
aI157
aI688
aI1159
aI1999
aI157
aI228
aI1262
aa(lp869
I296
aI608
aI1505
aI188
aI1549
aI2404
aI157
aI2804
aa(lp870
I1067
aI1567
aI2994
aI2950
aI2297
aI2290
aI920
aI157
aI507
aa(lp871
I929
aI1178
aI3035
aI599
aI787
aI2786
aI1549
aa(lp872
I1374
aI2561
aI899
aI1178
aI1794
aI2561
aI1779
aI2765
aI1701
aI1418
aa(lp873
I1731
aI2317
aI2561
aI1418
aI2312
aI1178
aI2596
aI1549
aa(lp874
I671
aI1714
aI1112
aI1635
aI1501
aI2723
aI4
aa(lp875
I1965
aI3193
aI1067
aI2627
aI2604
aI1359
aI1610
aI1178
aa(lp876
I2283
aI1505
aI2668
aI801
aI1515
aI2121
aI2098
aa(lp877
I2276
aI2561
aI1505
aI1250
aI621
aI472
aI1566
aa(lp878
I213
aI1067
aI2994
aI429
aI1591
aI1798
aI2709
aI688
aa(lp879
I1487
aI3145
aI1112
aI2439
aI507
aa(lp880
I943
aI2516
aI2243
aI83
aI2290
aI3133
aI1159
aa(lp881
I545
aI2356
aI157
aI385
aI188
aI946
aI2141
aI157
aa(lp882
I2194
aI2297
aI2596
aI1256
aI1364
aI576
aI2290
aI188
aI2561
aa(lp883
I1206
aI1039
aI225
aI576
aI3133
aI1178
aI940
aI2290
aI233
aI1178
aa(lp884
I1199
aI599
aI1509
aI2786
aI2308
aI2194
aI2765
aI2994
aI1418
aa(lp885
I2404
aI1191
aI1667
aI1505
aI883
aI3047
aI621
aa(lp886
I2884
aI2096
aI2994
aI950
aI2909
aI783
aI1418
aa(lp887
I1553
aI2697
aI1635
aI2978
aI282
aI1595
aI1178
aa(lp888
I3128
aI614
aI781
aI621
aI2194
aI2765
aI2994
aI1418
aa(lp889
I1805
aI621
aI1505
aI1448
aI621
aI1501
aI854
aa(lp890
I1055
aI2583
aI621
aI1505
aI2503
aI1732
aI2163
aI621
aI1178
aa(lp891
I1953
aI1549
aI3042
aI1178
aI3042
aI1549
aI1953
aI445
aa(lp892
I2878
aI1505
aI1144
aI2709
aI2194
aI2765
aI2994
aI1418
aa(lp893
I2625
aI1635
aI934
aI1999
aI570
aI2878
aI1515
aa(lp894
I2422
aI1635
aI2960
aI145
aI255
aI4
aI2056
aa(lp895
I472
aI920
aI157
aI1204
aI1178
aI1313
aI2952
aI1591
aI1159
aa(lp896
I2631
aI1265
aI2776
aI2122
aI1798
aI2950
aI569
aI2998
aI2544
aa(lp897
I3051
aI1635
aI2382
aI570
aI2776
aI1159
aI2765
aI1635
aI1403
aI2790
aa(lp898
I2099
aI1097
aI1069
aI412
aI1069
aI1502
aI1069
aI1595
aI1892
aa(lp899
I1490
aI2720
aI2095
aI1968
aI1187
aI2790
aa(lp900
I1108
aI1798
aI142
aI188
aI2290
aI1553
aI2544
aI1549
aI3079
aa(lp901
I1593
aI1798
aI1169
aI2799
aI792
aI569
aI1713
aI13
aa(lp902
I2668
aI142
aI1343
aI165
aI1438
aI2290
aI3079
aI708
aa(lp903
I296
aI938
aI1505
aI1103
aI818
aI621
aI507
aa(lp904
I2636
aI1023
aI1066
aI2098
aI2069
aI241
aI1418
aa(lp905
I2662
aI1591
aI2790
aI1706
aI1023
aI2735
aI1505
aI2040
aI1069
aa(lp906
I202
aI1274
aI1625
aI1660
aI708
aa(lp907
I2072
aI2212
aI378
aI2786
aI2516
aI3195
aI467
aI2786
aI2290
aa(lp908
I748
aI1862
aI2893
aI2561
aI142
aI967
aI599
aI1706
aI1680
aI1515
aa(lp909
I2502
aI967
aI188
aI1505
aI1326
aI2561
aI2783
aI1515
aa(lp910
I1845
aI2765
aI1464
aI2544
aI2780
aI1756
aI708
aa(lp911
I1241
aI2309
aI1039
aI1007
aI920
aI157
aI3158
aI1256
aI576
aI1159
aa(lp912
I2082
aI2994
aI2122
aI1981
aI688
aI1364
aI1610
aI1549
aI51
aa(lp913
I681
aI2758
aI1798
aI2398
aI3175
aI1635
aI2950
aa(lp914
I2743
aI576
aI2649
aI2017
aI1780
aI1178
aa(lp915
I431
aI528
aI2310
aI1287
aI1178
aa(lp916
I2318
aI1420
aI903
aI2052
aI1178
aa(lp917
I852
aI2700
aI956
aI384
aI1178
aa(lp918
I1792
aI2089
aI2839
aI674
aI1178
aa(lp919
I1819
aI26
aI1377
aI2308
aI374
aI1178
aa(lp920
I2346
aI2308
aI1290
aI3135
aI2092
aI1178
aa(lp921
I3015
aI1747
aI1337
aI1174
aI1178
aa(lp922
I1790
aI2861
aI2651
aI3023
aI1178
aa(lp923
I506
aI62
aI2684
aI1850
aI762
aI1178
aa(lp924
I1559
aI2297
aI2994
aI119
aI1364
aI2516
aI1364
aI1610
aI1549
aI51
aa(lp925
I907
aI920
aI157
aI871
aI2994
aI869
aI1635
aI1159
aI653
aa(lp926
I940
aI3133
aI2826
aI2535
aI1549
aI882
aI1564
aa(lp927
I1718
aI1964
aI718
aI2561
aI1549
aI1178
aa(lp928
I1463
aI2826
aI854
aI2078
aI2308
aI2582
aI1159
aa(lp929
I2661
aI2561
aI1549
aI1999
aI570
aI1328
aI1178
aa(lp930
I2223
aI2561
aI463
aI2804
aI2756
aI2826
aI2793
aa(lp931
I358
aI1088
aI2561
aI1505
aI1926
aI680
aI455
aI1178
aa(lp932
I370
aI177
aI188
aI1590
aI2826
aI2793
aa(lp933
I758
aI569
aI1436
aI2561
aI1892
aI661
aI1505
aI1586
aa(lp934
I569
aI2592
aI490
aI1067
aI940
aI3133
aI2826
aI2793
aa(lp935
I1077
aI1525
aI1822
aI1928
aI1635
aI1794
aI1505
aI2755
aa(lp936
I2561
aI2790
aI1067
aI320
aI792
aI4
aI2852
aI688
aa(lp937
I2065
aI2561
aI2983
aI2173
aI1316
aI1505
aI1226
aI1178
aa(lp938
I644
aI2852
aI931
aI1680
aI1237
aI1635
aI3007
aI2852
aI2078
aI708
aa(lp939
I2674
aI1023
aI2126
aI1364
aI218
aI1892
aI1134
aI296
aI576
aa(lp940
I1667
aI296
aI1505
aI1003
aI621
aI2223
aI2561
aI569
aI2960
aa(lp941
I1067
aI429
aI1168
aI2950
aI817
aI1178
aI2164
aI188
aI1418
aa(lp942
I681
aI1176
aI461
aI1505
aI1823
aI2770
aI1364
aI218
aa(lp943
I1374
aI1088
aI1798
aI1501
aI2831
aI2841
aI1515
aa(lp944
I680
aI621
aI1505
aI2685
aI106
aI621
aI218
aa(lp945
I472
aI1489
aI1176
aI2076
aI1505
aI674
aI621
aa(lp946
I740
aI2923
aI1501
aI545
aI2923
aI1798
aI940
aI1635
aa(lp947
I2166
aI317
aI3135
aI856
aI680
aI780
aI154
aa(lp948
I2194
aI2098
aI1701
aI673
aI131
aI1359
aI2078
aI576
aa(lp949
I758
aI1178
aI1999
aI570
aI1295
aI1610
aI1411
aa(lp950
I1206
aI1080
aI1505
aI1415
aI792
aI969
aa(lp951
I75
aI188
aI2561
aI991
aI1635
aI675
aI792
aI140
aa(lp952
I1953
aI490
aI555
aI1003
aI1798
aI688
aI2950
aI2078
aI1178
aa(lp953
I2687
aI1505
aI737
aI188
aI1680
aI2092
aI2756
aI1237
aI1635
aa(lp954
I2855
aI555
aI1725
aI121
aI621
aI1159
aI228
aI1505
aI2972
aI1359
aa(lp955
I426
aI967
aI620
aI1505
aI2998
aI621
aI1159
aI2017
aI976
aa(lp956
I2155
aI1159
aI228
aI936
aI832
aI1505
aI566
aI621
aI1983
aI1610
aa(lp957
I2919
aI501
aI2950
aI1023
aI60
aI2651
aI2097
aI41
aa(lp958
I290
aI569
aI2547
aI2102
aI1549
aI2960
aI2102
aI608
aa(lp959
I3101
aI1119
aI1023
aI228
aI936
aI1159
aI1983
aI1385
aI1359
aI2790
aa(lp960
I2190
aI2547
aI2544
aI429
aI1565
aI3025
aI576
aa(lp961
I1089
aI4
aI1725
aI621
aI1169
aI456
aI816
aI2308
aa(lp962
I361
aI608
aI1505
aI188
aI621
aI1056
aI2178
aI233
aa(lp963
I1834
aI608
aI2308
aI3154
aI233
aI685
aI576
aI1159
aI1178
aa(lp964
I1966
aI1176
aI1156
aI2720
aI3081
aI605
aI2720
aI989
aI224
aa(lp965
I1861
aI1505
aI802
aI313
aI621
aI3024
aI1593
aI461
aI608
aI1635
aa(lp966
I1237
aI608
aI1066
aI74
aI2188
aI608
aI2793
aI2790
aa(lp967
I1016
aI2086
aI3017
aI2129
aI1159
aI2544
aI569
aI1732
aI621
aa(lp968
I1986
aI608
aI2297
aI1066
aI2290
aI604
aI2092
aI2129
aI1159
aa(lp969
I461
aI621
aI638
aI77
aI737
aI1342
aI1404
aI688
aa(lp970
I895
aI569
aI188
aI1505
aI1295
aI621
aa(lp971
I560
aI17
aI3068
aI576
aI2137
aI1159
aI2456
aI1798
aa(lp972
I2134
aI2790
aI555
aI2361
aI1850
aI2297
aI2129
aI1023
aa(lp973
I1591
aI1505
aI3029
aI1417
aI2633
aI621
aI27
aI608
aa(lp974
I920
aI555
aI1529
aI17
aI621
aI2403
aI2586
aI688
aa(lp975
I1268
aI2624
aI1921
aI1798
aI1804
aI2129
aI1178
aa(lp976
I296
aI2428
aI1505
aI2314
aI621
aI2308
aI1950
aI1704
aI2129
aa(lp977
I1413
aI1417
aI2465
aI1515
aI2375
aI1066
aI1467
aa(lp978
I2547
aI608
aI1023
aI2297
aI1265
aI2547
aI608
aI2544
aI638
aa(lp979
I1933
aI10
aI2819
aI1278
aI800
aI1635
aa(lp980
I1237
aI608
aI1066
aI3074
aI506
aI1505
aI895
aI2278
aI578
aa(lp981
I3103
aI2054
aI620
aI1505
aI167
aI907
aI2129
aI224
aa(lp982
I680
aI1567
aI2994
aI1418
aI145
aI688
aI858
aI820
aI792
aa(lp983
I2365
aI2378
aI1885
aI621
aI752
aI2290
aI1588
aI1169
aa(lp984
I3022
aI1567
aI2994
aI1159
aI1458
aI621
aI1635
aI1124
aI936
aa(lp985
I327
aI1635
aI1617
aI669
aI1549
aI1458
aI15
aI2544
aI2516
aa(lp986
I1066
aI1019
aI2350
aI2544
aI1451
aI1588
aI578
aI2386
aa(lp987
I1023
aI1588
aI920
aI2994
aI688
aI570
aI2598
aI1159
aI599
aI621
aa(lp988
I256
aI2297
aI119
aI605
aI2141
aI1528
aI576
aI2994
aI1159
aa(lp989
I2111
aI1588
aI586
aI2826
aI224
aI145
aI1501
aI1435
aI578
aa(lp990
I1440
aI2544
aI2983
aI2178
aI1588
aI1189
aI2994
aI578
aI708
aa(lp991
I2300
aI1549
aI1567
aI2571
aI2967
aI2994
aI1418
aa(lp992
I690
aI1072
aI1590
aI157
aI2950
aI536
aI1023
aI1066
aI429
aa(lp993
I2625
aI545
aI157
aI1549
aI60
aI920
aI1528
aI2480
aI2790
aa(lp994
I1940
aI1528
aI1056
aI2178
aI2826
aI1458
aI3136
aI621
aI3004
aa(lp995
I1559
aI1567
aI2994
aI189
aI145
aI1549
aI1588
aI2387
aI1178
aa(lp996
I1814
aI1635
aI1588
aI2220
aI2826
aI1458
aI621
aI3004
aI708
aa(lp997
I920
aI2826
aI1588
aI1159
aI145
aI576
aI2164
aI1239
aI1680
aa(lp998
I1106
aI145
aI12
aI920
aI682
aI2122
aI157
aI189
aa(lp999
I932
aI3082
aI2017
aI967
aI145
aI576
aI1588
aI688
aa(lp1000
I2212
aI2432
aI2278
aI3153
aI119
aI1588
aI2780
aa(lp1001
I2398
aI3101
aI362
aI1169
aI145
aI688
aI1735
aI429
aI1635
aa(lp1002
I2994
aI971
aI2983
aI2547
aI1735
aI280
aI1178
aa(lp1003
I2676
aI789
aI119
aI2651
aI2064
aI1169
aa(lp1004
I2544
aI576
aI2756
aI369
aI1007
aI920
aI758
aI1528
aI3004
aI708
aa(lp1005
I2858
aI145
aI1505
aI2997
aI526
aI920
aI688
aI1588
aI1159
aa(lp1006
I569
aI2472
aI157
aI1274
aI1191
aI2297
aI1072
aI157
aa(lp1007
I1588
aI1069
aI145
aI1069
aI572
aI1635
aI1735
aI792
aI940
aI1178
aa(lp1008
I276
aI2813
aI2994
aI2776
aI1159
aI2308
aI1949
aI1567
aI2994
aI688
aa(lp1009
I27
aI2017
aI585
aI920
aI1635
aI1588
aI2826
aI1023
aI1178
aa(lp1010
I3175
aI145
aI576
aI1129
aI2129
aI1086
aI1505
aI1591
aI1159
aa(lp1011
I280
aI429
aI2520
aI1515
aI1756
aI1515
aI97
aI2
aI1418
aa(lp1012
I1038
aI621
aI507
aI2863
aI2776
aI2879
aI1359
aI2983
aa(lp1013
I266
aI1040
aI2141
aI621
aI1838
aI1274
aI1506
aI1285
aI2097
aa(lp1014
I2642
aI2709
aI1505
aI1068
aI621
aI2196
aI2129
aI145
aI576
aa(lp1015
I1340
aI621
aI576
aI279
aI1230
aI189
aI2950
aa(lp1016
I472
aI1204
aI555
aI671
aI1256
aI2308
aI1178
aI2308
aI2776
aa(lp1017
I1421
aI576
aI1610
aI1278
aI1619
aI1159
aI1999
aI2923
aI3078
aa(lp1018
I2168
aI2709
aI1505
aI1785
aI621
aI2196
aI2129
aI145
aI576
aa(lp1019
I2212
aI555
aI1975
aI2561
aI1505
aI391
aI621
aI1501
aI1159
aa(lp1020
I3080
aI144
aI570
aI2623
aI1500
aI621
aI2950
aa(lp1021
I2308
aI37
aI737
aI570
aI2776
aI1159
aI1549
aI396
aa(lp1022
I1706
aI1735
aI920
aI608
aI2495
aI2776
aI831
aI2129
aI2544
aa(lp1023
I1134
aI154
aI871
aI144
aI2129
aI2776
aI2997
aI1159
aI920
aI1635
aa(lp1024
I2150
aI1509
aI1159
aI1418
aI1114
aI2297
aI2790
aa(lp1025
I472
aI145
aI1137
aI2290
aI413
aI1610
aI1411
aa(lp1026
I537
aI2278
aI2350
aI2544
aI576
aI4
aI545
aI157
aa(lp1027
I3182
aI2290
aI228
aI1549
aI1039
aI581
aI688
aI2776
aa(lp1028
I1293
aI3017
aI2129
aI2544
aI658
aI2129
aI1418
aa(lp1029
I228
aI1635
aI1133
aI737
aI1961
aI1645
aI621
aa(lp1030
I2155
aI2561
aI569
aI2776
aI412
aI2790
aI2765
aI967
aI412
aI621
aa(lp1031
I145
aI1505
aI1961
aI219
aI621
aI1119
aI569
aI439
aI157
aa(lp1032
I545
aI1505
aI2554
aI621
aI3045
aI2790
aI1704
aI2129
aI224
aI1023
aa(lp1033
I680
aI1417
aI2472
aI157
aI1617
aI1505
aI942
aI621
aa(lp1034
I1487
aI1466
aI1798
aI1505
aI2320
aI341
aI621
aa(lp1035
I2299
aI2297
aI1635
aI228
aI1505
aI1909
aI326
aa(lp1036
I1728
aI570
aI2776
aI1159
aI569
aI1159
aI1505
aI27
aI621
aa(lp1037
I2517
aI228
aI1549
aI2544
aI1178
aI2544
aI569
aI1159
aI1178
aa(lp1038
I545
aI1635
aI1854
aI2950
aI605
aI157
aI1635
aI1588
aI2098
aI1023
aa(lp1039
I1244
aI621
aI1635
aI2098
aI1990
aI1105
aI2950
aI1515
aa(lp1040
I2268
aI2709
aI142
aI2994
aI1588
aI1505
aI2381
aI621
aI688
aI1178
aa(lp1041
I1876
aI569
aI931
aI2561
aI1178
aI2485
aI1798
aI2167
aI2950
aa(lp1042
I2130
aI1178
aI409
aI1569
aI2950
aI1226
aI1067
aa(lp1043
I1250
aI2561
aI455
aI2952
aI2404
aI319
aI621
aI2835
aa(lp1044
I907
aI1588
aI1549
aI2297
aI1635
aI467
aI2570
aI1067
aa(lp1045
I1809
aI157
aI2096
aI1007
aI1458
aI621
aI1159
aI102
aI224
aa(lp1046
I2283
aI1528
aI1501
aI2024
aI1549
aI1696
aI1610
aI783
aa(lp1047
I2178
aI1798
aI688
aI2230
aI2391
aI2308
aI1178
aI2308
aI1178
aa(lp1048
I600
aI792
aI425
aI1515
aI2704
aa(lp1049
I333
aI2297
aI1588
aI2516
aI144
aI1515
aI644
aI569
aI1680
aI653
aa(lp1050
I2642
aI2308
aI2642
aI1079
aI1178
aI897
aI2994
aI429
aI2960
aa(lp1051
I472
aI1610
aI1515
aI1610
aI1501
aI1375
aI1515
aa(lp1052
I25
aI75
aI1505
aI2032
aI1023
aI1440
aI157
aI569
aI2793
aa(lp1053
I909
aI874
aI1515
aI3181
aI2516
aI180
aI1023
aa(lp1054
I1201
aI115
aI1066
aI2994
aI429
aI1591
aI621
aI1549
aI2793
aa(lp1055
I1841
aI1291
aI1635
aI1178
aI728
aI668
aI1635
aa(lp1056
I1385
aI621
aI77
aI235
aI1610
aI1039
aI2994
aI997
aI2793
aa(lp1057
I1397
aI1919
aI1798
aI576
aI1670
aI2692
aI1178
aa(lp1058
I1072
aI157
aI127
aI2958
aI555
aI860
aI35
aI1159
aa(lp1059
I703
aI868
aI233
aI1274
aI1178
aI659
aI2720
aI3043
aa(lp1060
I1588
aI1505
aI997
aI1870
aI2994
aI920
aI2141
aI3038
aI708
aa(lp1061
I1185
aI157
aI1039
aI2098
aI920
aI1178
aI1588
aI1178
aa(lp1062
I75
aI2840
aI675
aI1637
aI569
aI467
aI157
aI1610
aI1023
aa(lp1063
I363
aI309
aI569
aI1680
aI1578
aI2331
aa(lp1064
I675
aI1178
aI75
aI822
aI569
aI1685
aI621
aI2950
aI688
aa(lp1065
I78
aI569
aI1680
aI2445
aI1039
aI920
aI157
aI569
aI1023
aa(lp1066
I495
aI2604
aI608
aI3079
aI228
aI1237
aI2952
aI137
aI608
aa(lp1067
I2929
aI3149
aI2891
aI608
aI3079
aI387
aI608
aa(lp1068
I2838
aI2952
aI1422
aI359
aI608
aI97
aI1410
aI1364
aa(lp1069
I1563
aI2129
aI1129
aI1333
aI2544
aI3171
aI2544
aI1505
aI1178
aa(lp1070
I1237
aI1264
aI2952
aI137
aI608
aI2776
aI2312
aI621
aa(lp1071
I943
aI228
aI936
aI2952
aI2424
aI2648
aI1505
aa(lp1072
I3038
aI1129
aI1536
aI1802
aI2169
aI608
aI2308
aI2129
aa(lp1073
I803
aI1635
aI2880
aI1771
aI2786
aa(lp1074
I2853
aI1265
aI943
aI608
aI1680
aI2178
aa(lp1075
I2049
aI394
aI2129
aI1178
aI187
aI2929
aI1364
aI1635
aI713
aa(lp1076
I2848
aI608
aI2516
aI2287
aI3163
aI69
aI1359
aa(lp1077
I361
aI608
aI1505
aI2288
aI75
aI1798
aI1204
aI1635
aa(lp1078
I2178
aI2947
aI2129
aI2950
aI3000
aI1023
aI670
aI1364
aa(lp1079
I3171
aI608
aI227
aI536
aI1178
aI228
aI1093
aI2290
aa(lp1080
I134
aI157
aI688
aI228
aI1289
aI2994
aI2765
aI3000
aI1023
aa(lp1081
I1440
aI157
aI576
aI891
aI461
aI2709
aI1876
aI1178
aa(lp1082
I2514
aI157
aI274
aI4
aI1574
aI2418
aI35
aI2950
aa(lp1083
I1425
aI2812
aI2720
aI228
aI22
aI1178
aa(lp1084
I2484
aI1635
aI2559
aI1501
aI2748
aI621
aI255
aI1159
aI1156
aI1119
aa(lp1085
I959
aI1635
aI2303
aI492
aI1877
aI1178
aa(lp1086
I1228
aI2708
aI621
aI1635
aI331
aI2282
aI2765
aa(lp1087
I2138
aI1970
aI1798
aI1964
aI283
aI1178
aa(lp1088
I1366
aI2994
aI2776
aI1159
aI1505
aI1226
aI2013
aI2297
aI638
aa(lp1089
I228
aI1505
aI681
aI1178
aI1119
aI569
aI2371
aI13
aa(lp1090
I1828
aI621
aI426
aI2790
aI3017
aI2129
aI3053
aI655
aI576
aa(lp1091
I2297
aI44
aI46
aI2141
aI608
aI1549
aI1338
aI1178
aa(lp1092
I1111
aI3017
aI1178
aI2092
aI157
aI1610
aI2092
aI2129
aI2790
aa(lp1093
I492
aI1791
aI157
aI1333
aI2950
aI2559
aI2950
aa(lp1094
I565
aI608
aI2983
aI736
aI868
aI907
aI2994
aI2611
aa(lp1095
I1964
aI2762
aI608
aI1610
aI644
aI907
aI1440
aI157
aa(lp1096
I2246
aI2098
aI1773
aI557
aI157
aI1067
aI2790
aa(lp1097
I1120
aI3025
aI1569
aI936
aI555
aI134
aI3173
aI157
aI1178
aa(lp1098
I1185
aI541
aI608
aI920
aI2141
aI2200
aI2994
aa(lp1099
I1574
aI1442
aI1798
aI1505
aI1991
aI621
aI2313
aa(lp1100
I833
aI555
aI2928
aI608
aI228
aI1505
aI1680
aI638
aa(lp1101
I1578
aI228
aI570
aI720
aI1178
aI1505
aI228
aI1251
aI3133
aa(lp1102
I860
aI1159
aI987
aI3133
aI1178
aI956
aI228
aI3055
aI3133
aa(lp1103
I936
aI3133
aI555
aI188
aI2907
aI608
aI2516
aa(lp1104
I2384
aI967
aI3133
aI2223
aI608
aI576
aI570
aI1876
aI1178
aa(lp1105
I940
aI555
aI228
aI576
aI1680
aI2790
aI228
aI1635
aI2547
aI792
aa(lp1106
I1189
aI555
aI3133
aI2776
aI1159
aI688
aI1066
aI2078
aI1044
aI224
aa(lp1107
I1384
aI3017
aI1999
aI608
aI2129
aI228
aI2193
aI3133
aI1680
aI1892
aa(lp1108
I997
aI429
aI1588
aI1505
aI2994
aI1418
aI717
aI2994
aI3079
aI708
aa(lp1109
I1072
aI1528
aI2514
aI555
aI439
aI219
aI1798
aI2117
aa(lp1110
I1845
aI2561
aI1610
aI1576
aI1860
aI2547
aI621
aI576
aI1178
aa(lp1111
I1379
aI1528
aI1505
aI1153
aI1290
aI145
aI586
aI1635
aa(lp1112
I569
aI614
aI621
aI2950
aI1171
aI27
aI1528
aI1892
aI2790
aa(lp1113
I2838
aI555
aI473
aI2934
aI621
aI2950
aI612
aI621
aa(lp1114
I2561
aI1635
aI180
aI1048
aI2101
aI1827
aI157
aa(lp1115
I890
aI1259
aI555
aI1055
aI3070
aI1528
aI1501
aa(lp1116
I2808
aI1278
aI145
aI142
aI2952
aI1815
aI1974
aI1528
aa(lp1117
I2545
aI555
aI1568
aI2734
aI1528
aI2983
aI3133
aI2611
aa(lp1118
I1336
aI2146
aI1798
aI1567
aI2994
aI402
aI1417
aI1515
aa(lp1119
I25
aI2369
aI1505
aI1178
aI1597
aI1027
aI1505
aI3133
aa(lp1120
I472
aI1367
aI2297
aI2994
aI1178
aI2115
aI3133
aI578
aI224
aa(lp1121
I2625
aI157
aI737
aI920
aI157
aI2544
aI737
aI1651
aI621
aa(lp1122
I586
aI1635
aI958
aI1528
aI940
aI2290
aI2994
aI1515
aa(lp1123
I2470
aI1567
aI412
aI576
aI2994
aI1418
aI125
aI1588
aI1515
aa(lp1124
I1204
aI1265
aI2122
aI943
aI1528
aI2698
aI2516
aa(lp1125
I2131
aI2297
aI2952
aI1961
aI245
aI145
aI576
aI3081
aa(lp1126
I2765
aI2290
aI545
aI3063
aI2698
aI2516
aI1072
aI1528
aa(lp1127
I869
aI144
aI1458
aI621
aI1610
aI1635
aI1559
aI2412
aI2994
aI385
aa(lp1128
I393
aI2086
aI1798
aI2790
aI145
aI1270
aI967
aI412
aI621
aa(lp1129
I2212
aI2290
aI1156
aI1161
aI576
aI1188
aI1588
aI1418
aa(lp1130
I1440
aI2762
aI157
aI2297
aI2290
aI3148
aI1528
aa(lp1131
I38
aI2290
aI295
aI638
aI1066
aI1156
aI2776
aa(lp1132
I690
aI2290
aI1417
aI1528
aI2297
aI1635
aI1983
aI1178
aa(lp1133
I680
aI2098
aI1458
aI2544
aI1505
aI1864
aI621
aI1610
aI1418
aa(lp1134
I1574
aI157
aI4
aI956
aI2709
aI940
aI2290
aI1039
aI1588
aa(lp1135
I487
aI1505
aI1091
aI621
aI576
aI60
aI398
aI2013
aI1343
aI1274
aa(lp1136
I134
aI157
aI1635
aI2850
aI1066
aI1172
aI2129
aI2200
aI2994
aa(lp1137
I2609
aI3104
aI1411
aI1129
aI124
aI1178
aa(lp1138
I2514
aI182
aI2776
aI2840
aI974
aI621
aa(lp1139
I3171
aI35
aI1351
aI468
aI461
aI2720
aI1505
aa(lp1140
I358
aI576
aI2950
aI2820
aI576
aI461
aI2950
aI2092
aI2129
aa(lp1141
I2547
aI157
aI1668
aI3147
aI1798
aI27
aI608
aI2003
aa(lp1142
I770
aI370
aI1635
aI2754
aI2092
aI124
aI1178
aa(lp1143
I296
aI531
aI621
aI1505
aI2151
aI162
aI2278
aa(lp1144
I3032
aI2765
aI233
aI1418
aI638
aI920
aI1023
aI429
aI1178
aa(lp1145
I1481
aI967
aI238
aI416
aI1493
aI1680
aa(lp1146
I1900
aI1264
aI1172
aI461
aI1264
aI2129
aa(lp1147
I349
aI251
aI608
aI2308
aI2840
aI2948
aI758
aI576
aa(lp1148
I2211
aI219
aI2297
aI1845
aI2804
aI1478
aI2720
aI1178
aa(lp1149
I1551
aI569
aI570
aI228
aI576
aI1794
aI2767
aI2526
aI1274
aa(lp1150
I2767
aI2804
aI868
aI1588
aI1159
aI2467
aI83
aI2994
aa(lp1151
I2091
aI2804
aI792
aI461
aI1528
aI1635
aI124
aI1178
aa(lp1152
I3058
aI868
aI1588
aI1876
aI2994
aI2998
aI1515
aI1876
aI2994
aa(lp1153
I498
aI629
aI1798
aI1505
aI1663
aI2032
aI1159
aa(lp1154
I441
aI1528
aI576
aI1938
aI2994
aI2765
aI124
aI1178
aa(lp1155
I1237
aI1845
aI2997
aI1715
aI1417
aI1999
aI1528
aI1588
aI1159
aa(lp1156
I1800
aI326
aI1313
aI555
aI59
aI360
aI1798
aI180
aI3079
aa(lp1157
I1016
aI555
aI1588
aI576
aI27
aI1680
aI27
aI1505
aI1153
aa(lp1158
I1556
aI868
aI1588
aI2582
aI157
aI688
aI1024
aI2544
aa(lp1159
I2748
aI1417
aI3138
aI157
aI2013
aI2297
aI2290
aI2776
aa(lp1160
I2823
aI1417
aI188
aI1066
aI960
aI2994
aI688
aa(lp1161
I2590
aI1798
aI2813
aI1178
aI545
aI936
aI119
aI2482
aI1418
aa(lp1162
I1156
aI461
aI1528
aI1505
aI235
aI576
aI545
aI1735
aI2173
aI1533
aa(lp1163
I3153
aI2547
aI576
aI967
aI3076
aI1528
aI2124
aI1169
aa(lp1164
I1735
aI1189
aI967
aI2776
aI2013
aI877
aI1159
aI570
aI569
aI2783
aa(lp1165
I1588
aI2098
aI907
aI1588
aI1159
aI2547
aI424
aI2544
aI1169
aa(lp1166
I1953
aI621
aI569
aI2355
aI1094
aI13
aI576
aa(lp1167
I1967
aI2900
aI1528
aI1274
aI158
aI2826
aI2776
aa(lp1168
I327
aI555
aI1574
aI1159
aI2321
aI1811
aI3071
aa(lp1169
I3138
aI1661
aI2278
aI1066
aI3055
aI468
aI2561
aI1635
aI1159
aa(lp1170
I127
aI967
aI3133
aI578
aI1588
aI1505
aI2496
aI1159
aI3133
aI2790
aa(lp1171
I2329
aI2561
aI175
aI1023
aI1588
aI2098
aI1588
aI1159
aa(lp1172
I2598
aI569
aI1588
aI576
aI1680
aI417
aI2790
aI2078
aI2480
aa(lp1173
I2027
aI1023
aI3135
aI490
aI1680
aI170
aI969
aI1066
aa(lp1174
I2508
aI2561
aI1379
aI2290
aI2693
aI1798
aI2709
aI1178
aa(lp1175
I1274
aI35
aI1894
aI1828
aI2561
aI969
aa(lp1176
I889
aI1798
aI3024
aI3095
aI2061
aI1528
aI1635
aI1588
aa(lp1177
I170
aI842
aI1528
aI2495
aI2776
aI2547
aI1501
aI2043
aI1417
aa(lp1178
I1039
aI2689
aI2575
aI2143
aI576
aI134
aI1290
aI157
aa(lp1179
I2067
aI1082
aI2547
aI1528
aI1505
aI691
aI2182
aa(lp1180
I59
aI106
aI1549
aI337
aI2720
aI404
aa(lp1181
I2348
aI1046
aI621
aI1610
aI2308
aI160
aI2891
aI1178
aa(lp1182
I2840
aI1850
aI997
aI3025
aI2611
aI605
aI1850
aI1125
aI2994
aa(lp1183
I1294
aI2082
aI1039
aI904
aI3174
aI3044
aI1178
aa(lp1184
I1142
aI439
aI2773
aI1159
aI887
aI35
aI1635
aa(lp1185
I1574
aI726
aI2997
aI1505
aI742
aI3102
aI576
aa(lp1186
I758
aI1262
aI1023
aI1262
aI1189
aI2994
aI847
aI1588
aI314
aa(lp1187
I1735
aI2562
aI3024
aI2547
aI1505
aI2013
aI621
aI1635
aI1178
aa(lp1188
I1588
aI1635
aI920
aI13
aI2998
aI157
aI576
aI569
aI1159
aI2790
aa(lp1189
I218
aI313
aI2561
aI2575
aI1260
aI1313
aI2840
aI385
aa(lp1190
I1707
aI2840
aI1505
aI1343
aI621
aI688
aI2482
aI224
aa(lp1191
I2984
aI576
aI1153
aI605
aI2748
aI157
aI688
aI145
aa(lp1192
I1440
aI2487
aI2561
aI1505
aI473
aI1696
aI1226
aI621
aI570
aI737
aa(lp1193
I1588
aI2891
aI326
aI1610
aI1505
aI42
aI621
aI688
aI722
aa(lp1194
I32
aI2848
aI157
aI576
aI605
aI2956
aI157
aI868
aI1159
aa(lp1195
I1967
aI233
aI2205
aI1694
aI621
aI2590
aI2720
aI969
aa(lp1196
I997
aI1635
aI255
aI2103
aI2308
aI439
aI2561
aI570
aI737
aa(lp1197
I680
aI145
aI1447
aI1159
aI1037
aI2697
aI1798
aI72
aa(lp1198
I671
aI2308
aI643
aI2561
aI1069
aI3133
aI2881
aI792
aa(lp1199
I755
aI1440
aI157
aI565
aI2078
aI2466
aa(lp1200
I3189
aI2837
aI1674
aI1159
aI1069
aI3133
aa(lp1201
I2721
aI1549
aI2078
aI3011
aI2986
aI2776
aa(lp1202
I912
aI1265
aI1024
aI157
aI1505
aI3113
aI2950
aa(lp1203
I2899
aI2516
aI885
aI1196
aI1505
aI3173
aI1066
aI737
aI2994
aa(lp1204
I2350
aI2561
aI1278
aI899
aI1310
aI1528
aI1418
aI2790
aa(lp1205
I362
aI2867
aI1159
aI345
aI2994
aI714
aI224
aa(lp1206
I2704
aI157
aI688
aI682
aI326
aI2092
aI2129
aI1084
aa(lp1207
I1722
aI608
aI1914
aI2129
aI1542
aI3044
aI1178
aa(lp1208
I2937
aI228
aI1154
aI27
aI608
aI1505
aI49
aI621
aa(lp1209
I206
aI1610
aI2098
aI228
aI576
aI2448
aI157
aa(lp1210
I16
aI608
aI2308
aI2790
aI228
aI142
aI2994
aI429
aI3079
aI688
aa(lp1211
I350
aI157
aI569
aI1274
aI2740
aI1159
aI688
aI1178
aa(lp1212
I660
aI569
aI145
aI576
aI667
aI461
aI2544
aI1505
aI2677
aI621
aa(lp1213
I1329
aI569
aI1578
aI748
aI584
aI157
aI1023
aI1178
aa(lp1214
I2117
aI1066
aI224
aI27
aI3101
aI608
aI1810
aI2129
aI1999
aI608
aa(lp1215
I286
aI2172
aI570
aI1810
aI2129
aI2157
aI1635
aI145
aI1515
aa(lp1216
I968
aI257
aI2983
aI667
aI2487
aI608
aI1023
aa(lp1217
I969
aI2256
aI219
aI1501
aI1578
aI3066
aI2569
aa(lp1218
I676
aI555
aI1812
aI1798
aI2950
aI228
aI644
aI2994
aI2765
aI2960
aa(lp1219
I345
aI2709
aI792
aI2459
aI2790
aI1965
aI1798
aI5
aI576
aa(lp1220
I2594
aI145
aI2091
aI1635
aI1534
aI2297
aI394
aI2129
aI1418
aa(lp1221
I481
aI1505
aI1725
aI621
aI576
aI1239
aI157
aI1120
aI1178
aa(lp1222
I733
aI1664
aI1999
aI157
aI507
aI249
aI608
aI2983
aa(lp1223
I431
aI2092
aI2129
aI385
aI2432
aI228
aI932
aI1178
aa(lp1224
I1461
aI467
aI1417
aI265
aI3101
aI362
aI1549
aa(lp1225
I2329
aI1798
aI724
aI2091
aI967
aI2994
aI1961
aI608
aI2983
aa(lp1226
I1766
aI1567
aI2994
aI2205
aI2306
aI1309
aI1505
aa(lp1227
I3138
aI536
aI2503
aI394
aI145
aI698
aI576
aI2129
aI1159
aa(lp1228
I326
aI3096
aI1798
aI2297
aI2952
aI2544
aI2308
aI2994
aI1178
aa(lp1229
I228
aI1501
aI605
aI945
aI157
aI1610
aI2044
aI688
aa(lp1230
I429
aI2994
aI1999
aI157
aI1635
aI1159
aI2239
aI621
aa(lp1231
I145
aI880
aI1406
aI228
aI2657
aa(lp1232
I2203
aI1023
aI2994
aI228
aI1635
aI920
aI157
aI569
aI2709
aa(lp1233
I190
aI1610
aI2838
aI2952
aI1999
aI157
aI674
aI608
aI688
aI1159
aa(lp1234
I505
aI2278
aI688
aI145
aI1304
aI3166
aI2129
aI1159
aI1189
aa(lp1235
I1452
aI1159
aI2983
aI2913
aI2952
aI2994
aI1178
aa(lp1236
I2964
aI2952
aI2179
aI2994
aI1178
aI1746
aI157
aI1505
aI526
aa(lp1237
I1681
aI792
aI969
aI2140
aI608
aI507
aa(lp1238
I506
aI1023
aI1065
aI145
aI775
aI920
aI1066
aI2273
aI2129
aa(lp1239
I909
aI2128
aI2983
aI742
aI1798
aI2091
aI1635
aa(lp1240
I2952
aI608
aI2117
aI775
aI1999
aI157
aI1664
aI2950
aa(lp1241
I1841
aI2178
aI1178
aI215
aI2288
aI2952
aI2994
aa(lp1242
I3098
aI157
aI576
aI1178
aI19
aI608
aI2516
aI760
aI2297
aa(lp1243
I327
aI2290
aI1735
aI792
aI1072
aI649
aI2141
aI608
aa(lp1244
I193
aI570
aI429
aI2826
aI1362
aI536
aI326
aI2994
aI3004
aa(lp1245
I127
aI2288
aI675
aI2664
aI1505
aI706
aI1178
aa(lp1246
I2817
aI2191
aI1664
aI1999
aI157
aI507
aI228
aI688
aa(lp1247
I11
aI3017
aI2129
aI2157
aI2078
aI920
aI64
aI144
aI2994
aI688
aa(lp1248
I1067
aI77
aI578
aI2947
aI2129
aI1418
aI145
aI11
aI224
aa(lp1249
I2968
aI1635
aI1834
aI157
aI1869
aI569
aI1458
aI621
aI2182
aI1067
aa(lp1250
I915
aI145
aI586
aI1462
aI1505
aI419
aI621
aI1549
aI82
aa(lp1251
I208
aI1569
aI688
aI576
aI1075
aI1066
aI429
aI1178
aa(lp1252
I2888
aI2544
aI2149
aI4
aI973
aI157
aI1418
aI1066
aI429
aI1564
aa(lp1253
I2111
aI1400
aI1798
aI1505
aI2690
aI621
aI576
aI1313
aa(lp1254
I2227
aI2377
aI1798
aI671
aI2419
aI1798
aI1066
aI936
aa(lp1255
I2170
aI2564
aI1798
aI2668
aI3092
aI1635
aa(lp1256
I2126
aI145
aI871
aI1066
aI429
aI145
aI871
aI2947
aI2129
aI578
aa(lp1257
I419
aI2720
aI1935
aI2765
aI332
aI1544
aI3025
aI1418
aa(lp1258
I1563
aI2994
aI2290
aI1023
aI1313
aI2000
aI621
aI576
aI2790
aa(lp1259
I1845
aI1279
aI1505
aI1651
aI1645
aI621
aI1127
aI2955
aa(lp1260
I2111
aI369
aI1067
aI2776
aI2111
aI1505
aI1383
aI3025
aI1178
aa(lp1261
I1023
aI369
aI1066
aI2952
aI228
aI1505
aI3042
aI1549
aI3165
aa(lp1262
I3015
aI2720
aI576
aI2278
aI659
aI2720
aI576
aI3138
aI2278
aa(lp1263
I50
aI2745
aI2720
aI576
aI2278
aI931
aI2720
aI576
aI2278
aa(lp1264
I506
aI1788
aI385
aI1225
aI2720
aI576
aI2278
aa(lp1265
I1941
aI2720
aI576
aI2278
aI1335
aI1178
aI323
aI2720
aI576
aI2278
aa(lp1266
I1809
aI2775
aI2561
aI4
aI921
aI35
aI1178
aa(lp1267
I1421
aI621
aI72
aI2887
aI1798
aI2135
aI570
aI2205
aa(lp1268
I3154
aI157
aI1066
aI2098
aI534
aI1364
aI2790
aa(lp1269
I467
aI2933
aI235
aI576
aI219
aI2994
aI1364
aI1610
aa(lp1270
I145
aI1635
aI659
aI2559
aI1169
aI219
aI569
aI920
aI608
aa(lp1271
I709
aI2263
aI1169
aI2722
aI931
aI1169
aI2741
aa(lp1272
I2297
aI1736
aI1178
aI323
aI1169
aI600
aI1735
aI1505
aa(lp1273
I912
aI2994
aI25
aI1161
aI1610
aI1505
aI228
aI2411
aI1178
aa(lp1274
I1204
aI1129
aI2129
aI1159
aI907
aI2544
aI576
aI1737
aa(lp1275
I586
aI2218
aI2013
aI145
aI1178
aI472
aI2544
aI1610
aa(lp1276
I472
aI1999
aI608
aI455
aI1635
aI1651
aI608
aI429
aI2790
aa(lp1277
I362
aI278
aI2092
aI2129
aI545
aI1505
aI1071
aI688
aa(lp1278
I3182
aI2952
aI920
aI608
aI1169
aI820
aI792
aI545
aI1178
aa(lp1279
I1119
aI1505
aI920
aI1159
aI2983
aI465
aI570
aI688
aa(lp1280
I939
aI1505
aI1651
aI621
aI885
aI1635
aI1066
aI2994
aI2767
aI224
aa(lp1281
I1013
aI4
aI545
aI157
aI225
aI1505
aI1947
aI621
aI576
aI1418
aa(lp1282
I648
aI145
aI1635
aI2878
aI219
aI1798
aI2096
aI2994
aa(lp1283
I1705
aI555
aI921
aI608
aI1501
aI2776
aI1159
aI1169
aa(lp1284
I361
aI3059
aI1549
aI145
aI845
aI1066
aI2273
aI2129
aa(lp1285
I2212
aI555
aI195
aI608
aI1501
aI545
aI157
aI1159
aI1892
aa(lp1286
I2049
aI2994
aI429
aI1249
aI739
aI1798
aI1680
aI708
aa(lp1287
I869
aI1635
aI739
aI920
aI608
aI2765
aI1635
aI739
aa(lp1288
I1432
aI792
aI2382
aI1159
aI110
aI1023
aI3176
aI2790
aa(lp1289
I1066
aI570
aI3038
aI2994
aI638
aI1178
aI2756
aI2297
aI1129
aI2129
aa(lp1290
I758
aI2092
aI2129
aI601
aI940
aI2994
aI2290
aI1023
aa(lp1291
I786
aI946
aI1023
aI1275
aI281
aI1798
aI3044
aa(lp1292
I75
aI683
aI385
aI145
aI1635
aI920
aI369
aI1039
aI1007
aa(lp1293
I1120
aI3025
aI576
aI973
aI608
aI145
aI1549
aI2615
aI608
aa(lp1294
I1725
aI1119
aI576
aI2315
aI792
aI940
aI967
aI1533
aI688
aa(lp1295
I909
aI608
aI3038
aI1265
aI2994
aI1159
aI576
aI124
aa(lp1296
I1763
aI1786
aI2756
aI621
aI2615
aI2814
aI576
aa(lp1297
I1841
aI2312
aI1178
aI2675
aI1178
aI2577
aI576
aI2598
aI569
aa(lp1298
I264
aI868
aI2277
aI608
aI576
aI1657
aI2790
aa(lp1299
I327
aI77
aI2826
aI920
aI2141
aI786
aI608
aI576
aI1159
aa(lp1300
I2297
aI3060
aI1786
aI608
aI1515
aI605
aI608
aI2926
aa(lp1301
I127
aI610
aI2790
aI2899
aI2017
aI2826
aI2615
aI608
aa(lp1302
I1016
aI188
aI608
aI555
aI2500
aI2450
aI3044
aI3079
aa(lp1303
I1237
aI608
aI1066
aI183
aI956
aI2141
aI608
aI578
aa(lp1304
I1756
aI429
aI2952
aI1178
aI1163
aI1635
aI1490
aI2765
aI1159
aI233
aa(lp1305
I1237
aI429
aI2013
aI233
aI1118
aI621
aI429
aI1066
aI429
aI1159
aa(lp1306
I1502
aI2950
aI2522
aI2098
aI2482
aI2216
aI2783
aa(lp1307
I1245
aI470
aI1635
aI1178
aI1038
aI2940
aa(lp1308
I46
aI3068
aI613
aI429
aI3151
aI233
aa(lp1309
I512
aI2516
aI2740
aI1886
aI1275
aI1178
aa(lp1310
I510
aI2720
aI1505
aI1916
aI1178
aI2359
aI621
aI2098
aI2114
aa(lp1311
I872
aI2720
aI1505
aI1901
aI2790
aI2482
aa(lp1312
I2141
aI1415
aI621
aI1635
aI569
aI1593
aI1438
aI621
aa(lp1313
I869
aI1178
aI940
aI937
aI570
aI1999
aI570
aI1635
aI385
aa(lp1314
I2549
aI2535
aI1909
aI1549
aI1593
aI1159
aI578
aI2790
aa(lp1315
I656
aI2561
aI2859
aI1397
aI1455
aI621
aa(lp1316
I1834
aI2720
aI2308
aI1234
aI2768
aI585
aI17
aI688
aa(lp1317
I1861
aI1169
aI170
aI180
aI802
aI2914
aI1159
aI761
aa(lp1318
I572
aI621
aI586
aI2129
aI3017
aI541
aI1178
aI2141
aI3079
aa(lp1319
I1436
aI2702
aI621
aI576
aI2586
aI1798
aI3044
aI2776
aa(lp1320
I1072
aI118
aI608
aI1505
aI188
aI621
aI1009
aI555
aa(lp1321
I2614
aI2476
aI608
aI2129
aI3017
aI2635
aI1680
aI576
aI708
aa(lp1322
I296
aI608
aI1505
aI2329
aI621
aI371
aI1159
aI3098
aI1159
aa(lp1323
I1198
aI608
aI1501
aI691
aI2961
aI969
aa(lp1324
I2547
aI1505
aI1966
aI1798
aI576
aI2790
aI2602
aI1265
aa(lp1325
I441
aI506
aI1569
aI1527
aI1072
aI608
aI3161
aa(lp1326
I274
aI640
aI1359
aI2765
aI8
aI1798
aI1680
aI708
aa(lp1327
I228
aI2668
aI2474
aI1136
aI2720
aI688
aI2776
aa(lp1328
I1432
aI35
aI2029
aI555
aI3114
aI780
aI1274
aa(lp1329
I2096
aI967
aI1156
aI1159
aI461
aI1635
aI1875
aI585
aI1610
aI1178
aa(lp1330
I539
aI263
aI2544
aI1505
aI973
aI682
aI3050
aI1204
aa(lp1331
I2229
aI2561
aI3051
aI555
aI1138
aI1487
aI965
aI621
aa(lp1332
I293
aI2278
aI1975
aI569
aI505
aI608
aI1189
aI2278
aa(lp1333
I1198
aI2762
aI1178
aI1975
aI569
aI1964
aI608
aI1189
aI2278
aa(lp1334
I2057
aI1178
aI1735
aI1505
aI2736
aI2098
aI1309
aI1178
aI1964
aI2124
aa(lp1335
I1839
aI228
aI1635
aI1159
aI46
aI1309
aI985
aI2129
aa(lp1336
I2434
aI1408
aI1798
aI1505
aI479
aI621
aI1501
aI2950
aa(lp1337
I2207
aI2997
aI2297
aI2952
aI3195
aI1455
aI621
aa(lp1338
I2194
aI2098
aI228
aI576
aI1159
aI390
aI1359
aI2098
aI1023
aa(lp1339
I79
aI585
aI758
aI688
aI1178
aI2270
aI1871
aI1635
aa(lp1340
I2060
aI1510
aI113
aI621
aI1845
aI2962
aI1316
aI3079
aa(lp1341
I2337
aI2615
aI2561
aI2691
aI3133
aI2568
aI1798
aI3044
aI578
aa(lp1342
I472
aI3069
aI2129
aI2580
aI1679
aI1316
aI3079
aa(lp1343
I2878
aI608
aI1610
aI1505
aI374
aI621
aI2514
aI203
aI2129
aI578
aa(lp1344
I2366
aI2709
aI576
aI228
aI920
aI2994
aI1023
aI1066
aI429
aI2790
aa(lp1345
I441
aI1850
aI608
aI569
aI362
aI362
aI1417
aI2129
aI2950
aa(lp1346
I533
aI1840
aI157
aI4
aI990
aI1798
aI3044
aI3079
aa(lp1347
I1086
aI3159
aI621
aI1505
aI1809
aI621
aI228
aI2516
aa(lp1348
I2194
aI296
aI602
aI1680
aI711
aI2994
aI2765
aI2974
aI1680
aa(lp1349
I955
aI1423
aI2987
aI675
aI1680
aa(lp1350
I1591
aI1438
aI737
aI757
aI1591
aI2544
aI638
aI1178
aa(lp1351
I1028
aI424
aI1549
aI2253
aI1976
aI1836
aI621
aa(lp1352
I1268
aI621
aI1505
aI2811
aI1630
aI621
aI3150
aa(lp1353
I3057
aI588
aI2720
aI189
aI2275
aI1517
aI3044
aa(lp1354
I145
aI1635
aI2423
aI1899
aI839
aI2544
aI638
aa(lp1355
I1398
aI768
aI1178
aI1078
aI1505
aI2832
aI2790
aa(lp1356
I228
aI1501
aI2160
aI2081
aI2561
aI1178
aI1415
aI688
aa(lp1357
I2823
aI2098
aI1040
aI1645
aI621
aI472
aI2129
aI1178
aa(lp1358
I2228
aI1798
aI2351
aI1023
aI1549
aI1262
aI2484
aI233
aI578
aI1515
aa(lp1359
I563
aI231
aI621
aI1937
aI2285
aI2178
aI97
aI1159
aa(lp1360
I2276
aI621
aI576
aI760
aI533
aI2994
aI2765
aI1588
aI2516
aa(lp1361
I774
aI2561
aI1610
aI576
aI3167
aI2902
aI1879
aI1418
aa(lp1362
I1118
aI35
aI576
aI1975
aI1505
aI439
aI1798
aI1911
aI4
aa(lp1363
I2078
aI1549
aI155
aI1178
aI380
aI442
aI1877
aI1159
aa(lp1364
I802
aI2141
aI621
aI1069
aI1040
aI1505
aI1305
aI621
aI1069
aI638
aa(lp1365
I358
aI576
aI1178
aI2188
aI576
aI1168
aI1380
aI1505
aa(lp1366
I127
aI2329
aI1438
aI1196
aI145
aI586
aI2691
aa(lp1367
I1967
aI233
aI1274
aI225
aI1307
aI192
aI1226
aI2720
aI2516
aI1515
aa(lp1368
I1151
aI2749
aI621
aI2955
aI1288
aI2994
aI868
aI1069
aa(lp1369
I1436
aI621
aI576
aI540
aI1568
aI621
aI2547
aI1069
aa(lp1370
I600
aI1505
aI1389
aI2790
aI2141
aI2790
aI1176
aI233
aa(lp1371
I1359
aI1610
aI1505
aI2874
aI1588
aI1588
aI189
aI482
aa(lp1372
I472
aI1588
aI1178
aI1039
aI990
aI570
aI2423
aI638
aa(lp1373
I2279
aI868
aI1364
aI1549
aI2994
aI661
aI1528
aI1549
aI2950
aa(lp1374
I1134
aI1023
aI2757
aI2129
aI1159
aI134
aI2129
aI2092
aI1274
aa(lp1375
I1845
aI608
aI1610
aI228
aI1154
aI2776
aI1159
aI1505
aI526
aI1635
aa(lp1376
I1644
aI2146
aI2278
aI1501
aI777
aI608
aI2129
aI2402
aa(lp1377
I2594
aI379
aI1909
aI1481
aI1635
aI1490
aI608
aI2566
aa(lp1378
I2257
aI2179
aI1178
aI134
aI746
aI1378
aa(lp1379
I363
aI344
aI1023
aI1591
aI1773
aI2762
aI576
aa(lp1380
I3107
aI1305
aI608
aI555
aI1159
aI3130
aI621
aI1635
aI2484
aa(lp1381
I1185
aI1178
aI3015
aI2124
aI1574
aI608
aI1154
aI1178
aa(lp1382
I2492
aI786
aI2141
aI946
aI157
aI134
aI94
aI2394
aa(lp1383
I1533
aI1749
aI2397
aI1196
aI2765
aI1591
aI578
aa(lp1384
I2625
aI1635
aI2154
aI1798
aI2297
aI1196
aI578
aa(lp1385
I955
aI730
aI1743
aI2786
aI586
aI1178
aa(lp1386
I545
aI2020
aI1591
aI1169
aI1626
aI1379
aI920
aI157
aI936
aa(lp1387
I1487
aI1292
aI1178
aI2478
aI2561
aI970
aI2129
aI1023
aa(lp1388
I2999
aI608
aI2297
aI2290
aI1680
aI134
aI259
aI708
aa(lp1389
I1603
aI188
aI576
aI2651
aI1505
aI2603
aI608
aI688
aa(lp1390
I465
aI920
aI157
aI1501
aI188
aI1178
aI2651
aI2124
aa(lp1391
I185
aI3056
aI1178
aI326
aI2129
aI3017
aI1023
aa(lp1392
I1189
aI706
aI1066
aI2129
aI2947
aI134
aI183
aI586
aa(lp1393
I2854
aI2996
aI2561
aI1549
aI2996
aI792
aI1778
aI1391
aa(lp1394
I191
aI1635
aI2651
aI780
aI2528
aI792
aI188
aa(lp1395
I2184
aI83
aI578
aI467
aI569
aI467
aI2790
aa(lp1396
I2748
aI2297
aI2129
aI2947
aI2547
aI792
aI1778
aI3133
aI2325
aa(lp1397
I228
aI576
aI725
aI764
aI1023
aI1024
aI1066
aI1745
aa(lp1398
I2590
aI2052
aI1798
aI2805
aI536
aI2078
aI586
aI1635
aa(lp1399
I2297
aI1635
aI638
aI1985
aI1505
aI847
aI2297
aI1635
aI1178
aa(lp1400
I3079
aI228
aI1912
aI2994
aI134
aI209
aI608
aI429
aI224
aa(lp1401
I1067
aI1101
aI3133
aI2950
aI2698
aI1134
aI369
aI2078
aI586
aI1635
aa(lp1402
I1926
aI576
aI491
aI1735
aI385
aI2856
aI569
aI920
aI157
aa(lp1403
I890
aI1237
aI621
aI2057
aI385
aI2057
aI1066
aI920
aI2994
aa(lp1404
I453
aI424
aI13
aI80
aI569
aI920
aI1159
aa(lp1405
I1274
aI35
aI1893
aI555
aI3098
aI2639
aI621
aa(lp1406
I2276
aI621
aI576
aI2790
aI224
aI1178
aI75
aI737
aI920
aI2664
aa(lp1407
I1305
aI157
aI1549
aI570
aI196
aI1635
aI1070
aI737
aI2994
aI1418
aa(lp1408
I2484
aI555
aI2638
aI1438
aI576
aI2822
aI2950
aa(lp1409
I296
aI2953
aI1505
aI3065
aI576
aI2802
aI2689
aI1482
aI1178
aa(lp1410
I1067
aI1907
aI2057
aI569
aI1415
aI621
aI1159
aI1066
aa(lp1411
I671
aI621
aI3064
aI868
aI1087
aI2175
aI2689
aI1418
aI1169
aa(lp1412
I2771
aI35
aI2488
aI123
aI405
aI1159
aI2790
aa(lp1413
I600
aI682
aI2720
aI3051
aI2086
aI579
aI2635
aI1178
aa(lp1414
I3098
aI157
aI142
aI783
aI2994
aI2689
aI3044
aI124
aa(lp1415
I1644
aI157
aI1549
aI1588
aI2351
aI1066
aI119
aI2994
aI2325
aa(lp1416
I276
aI133
aI134
aI157
aI2132
aI1680
aI202
aa(lp1417
I25
aI2689
aI1237
aI1635
aI944
aI1798
aI2709
aI2411
aI1159
aa(lp1418
I27
aI1735
aI1505
aI569
aI2097
aI1610
aI1185
aI621
aa(lp1419
I589
aI2547
aI2282
aI157
aI4
aI570
aI1418
aI1169
aa(lp1420
I997
aI967
aI1735
aI792
aI2994
aI578
aI1066
aI145
aI1308
aI708
aa(lp1421
I786
aI1798
aI908
aI1533
aI1178
aI137
aI1528
aI576
aI2178
aa(lp1422
I1106
aI1670
aI1207
aI157
aI1755
aI1159
aa(lp1423
I775
aI145
aI2657
aI1178
aI2596
aI157
aI389
aa(lp1424
I426
aI1635
aI143
aI224
aI778
aI1066
aI570
aI1176
aa(lp1425
I2997
aI737
aI218
aI1159
aI468
aI621
aI1004
aI1635
aa(lp1426
I2877
aI632
aI157
aI1672
aI3025
aI792
aI1635
aI688
aa(lp1427
I127
aI1635
aI1592
aI1528
aI1178
aI46
aI1528
aI1505
aI1169
aa(lp1428
I2573
aI967
aI1440
aI157
aI576
aI1169
aI1735
aI536
aI1735
aI1178
aa(lp1429
I570
aI576
aI2178
aI1588
aI1418
aI1588
aI1101
aI137
aI3101
aI1528
aa(lp1430
I675
aI2297
aI967
aI83
aI1588
aI349
aI461
aI145
aI1635
aa(lp1431
I1165
aI2994
aI1725
aI1528
aI1127
aI1418
aI1176
aI1588
aI2950
aI688
aa(lp1432
I1038
aI1224
aI532
aI1039
aI188
aI1528
aI1437
aI2709
aa(lp1433
I25
aI1439
aI532
aI917
aI3169
aI621
aI2516
aI2765
aa(lp1434
I1184
aI1976
aI2
aI1635
aI522
aI2061
aI532
aa(lp1435
I2194
aI2994
aI2765
aI2018
aI621
aI1505
aI2558
aI576
aa(lp1436
I873
aI122
aI181
aI532
aI576
aI1190
aI2902
aI532
aa(lp1437
I1206
aI2098
aI638
aI2776
aI2409
aI1588
aI2467
aI2994
aI1127
aI1892
aa(lp1438
I599
aI387
aI1798
aI3044
aI188
aI555
aI638
aI1564
aa(lp1439
I865
aI2181
aI792
aI1178
aI977
aI2561
aI2516
aI455
aa(lp1440
I1511
aI555
aI1039
aI3183
aI2776
aI358
aI2141
aI1528
aI1023
aa(lp1441
I281
aI2297
aI1007
aI1725
aI362
aI1178
aI1117
aI4
aa(lp1442
I2030
aI2404
aI2129
aI2544
aI752
aI2776
aI1505
aI885
aI688
aa(lp1443
I680
aI1415
aI780
aI737
aI681
aI1176
aI1588
aI154
aa(lp1444
I838
aI2363
aI2297
aI920
aI157
aI1066
aI2480
aa(lp1445
I1237
aI543
aI1569
aI2950
aI649
aI157
aI1069
aa(lp1446
I2297
aI842
aI1178
aI828
aI157
aI1989
aI1610
aI1892
aa(lp1447
I1023
aI77
aI1178
aI2709
aI1039
aI235
aI1505
aI235
aI1635
aa(lp1448
I1966
aI573
aI819
aI920
aI157
aI569
aI1966
aa(lp1449
I872
aI28
aI1798
aI576
aI2367
aI1039
aa(lp1450
I1457
aI395
aI1635
aI1440
aI157
aI124
aa(lp1451
I1655
aI2668
aI97
aI1485
aI1118
aI235
aa(lp1452
I1185
aI157
aI1610
aI569
aI758
aI1178
aI1966
aI461
aa(lp1453
I2840
aI3025
aI1635
aI830
aI758
aI1178
aI1966
aI461
aa(lp1454
I363
aI1670
aI157
aI569
aI909
aI2544
aI576
aI1178
aa(lp1455
I1142
aI944
aI28
aI2776
aI235
aI576
aI2629
aI532
aa(lp1456
I907
aI2164
aI2274
aI2765
aI758
aI1178
aI1966
aI461
aa(lp1457
I235
aI576
aI2719
aI607
aI83
aI1067
aI998
aI532
aI2776
aa(lp1458
I1591
aI2046
aI1505
aI2023
aI621
aI576
aI1418
aa(lp1459
I179
aI2725
aI621
aI1505
aI2751
aI2096
aI2994
aa(lp1460
I2440
aI675
aI1764
aI969
aI188
aI1178
aa(lp1461
I352
aI541
aI1178
aI680
aI1390
aI1505
aI2547
aI576
aa(lp1462
I467
aI780
aI2141
aI1505
aI1158
aI621
aI576
aI224
aa(lp1463
I1374
aI1505
aI1725
aI1505
aI2002
aI1505
aI1862
aI1505
aI599
aI1505
aa(lp1464
I2468
aI2765
aI119
aI1574
aI673
aI2720
aI2096
aI2994
aa(lp1465
I1067
aI325
aI1588
aI2950
aI188
aI1798
aI2709
aI60
aa(lp1466
I3126
aI2790
aI2098
aI842
aI2720
aI1610
aI1023
aa(lp1467
I2731
aI1588
aI1610
aI1591
aI2664
aI2544
aI1505
aa(lp1468
I1156
aI696
aI1549
aI2790
aI790
aI233
aI688
aI1178
aa(lp1469
I2484
aI1635
aI27
aI1528
aI1542
aI3015
aI1066
aI644
aI233
aa(lp1470
I296
aI1636
aI1364
aI3175
aI1067
aI2776
aI486
aI688
aa(lp1471
I2547
aI1635
aI1983
aI1615
aI2790
aI1288
aI1635
aI1156
aI2765
aa(lp1472
I963
aI3120
aI621
aI1069
aI2382
aI3101
aI362
aI1066
aa(lp1473
I1313
aI1635
aI585
aI1501
aI1526
aI1458
aI1171
aI621
aI1505
aa(lp1474
I2553
aI920
aI758
aI157
aI1505
aI1954
aI621
aI638
aI967
aa(lp1475
I1751
aI1457
aI1798
aI1635
aI1033
aI2950
aI1979
aa(lp1476
I1371
aI151
aI2689
aI4
aI1483
aI2697
aI621
aa(lp1477
I1302
aI3101
aI2720
aI2387
aI2085
aI1187
aI621
aI1178
aa(lp1478
I278
aI2522
aI744
aI1067
aI1585
aa(lp1479
I2404
aI2845
aI1505
aI1494
aI464
aI2381
aI1178
aa(lp1480
I1591
aI2292
aI2013
aI2544
aI1505
aI2550
aI621
aI1549
aI1067
aa(lp1481
I1344
aI145
aI1635
aI2122
aI1178
aI2409
aI2615
aI920
aI157
aa(lp1482
I2440
aI1590
aI2544
aI576
aI940
aI1664
aI2078
aI1505
aI419
aI1892
aa(lp1483
I2271
aI1857
aI1178
aI2351
aI2739
aI3085
aI3133
aI2182
aa(lp1484
I3148
aI608
aI2049
aI394
aI2544
aI576
aI2129
aI1178
aa(lp1485
I363
aI2098
aI1595
aI1505
aI2416
aI1178
aI1676
aI1382
aI1418
aa(lp1486
I337
aI1007
aI3158
aI1159
aI2848
aI621
aI576
aI3176
aa(lp1487
I439
aI758
aI157
aI228
aI1635
aI2895
aI1066
aI4
aI2776
aa(lp1488
I1803
aI1635
aI1067
aI1680
aI526
aI1635
aI75
aI3176
aa(lp1489
I1239
aI682
aI608
aI1515
aI920
aI157
aI2068
aI1007
aI1159
aa(lp1490
I1476
aI1286
aI3044
aI638
aI2790
aI911
aI2141
aI2017
aa(lp1491
I1385
aI1645
aI621
aI2739
aI1189
aI2642
aI245
aI144
aI2994
aa(lp1492
I1119
aI2994
aI362
aI2129
aI675
aI1118
aI675
aI792
aI2570
aa(lp1493
I1072
aI461
aI608
aI1948
aI2994
aI1127
aI1418
aI2950
aI60
aa(lp1494
I1360
aI2409
aI946
aI576
aI920
aI282
aI1159
aI1023
aa(lp1495
I2404
aI1505
aI1734
aI1178
aI2988
aI621
aI1066
aI1878
aa(lp1496
I1120
aI2312
aI2261
aI1635
aI1154
aI1069
aa(lp1497
I3054
aI2561
aI2912
aI688
aI1931
aI2495
aI2790
aa(lp1498
I2798
aI1533
aI920
aI1505
aI2489
aI1127
aI621
aI2003
aa(lp1499
I680
aI570
aI1237
aI119
aI742
aI2102
aI1178
aI1591
aI1274
aa(lp1500
I973
aI1505
aI2756
aI737
aI2994
aI1159
aI1189
aI83
aI708
aa(lp1501
I1908
aI1635
aI348
aI157
aI2423
aI1840
aI385
aa(lp1502
I1717
aI1999
aI157
aI2516
aI2994
aI1845
aI547
aI2950
aa(lp1503
I2212
aI555
aI2073
aI608
aI576
aI2776
aI963
aI157
aI2516
aI2950
aa(lp1504
I1697
aI2765
aI2994
aI578
aI920
aI1505
aI3066
aI157
aI569
aI1159
aa(lp1505
I1578
aI1378
aI2994
aI1889
aI1159
aI2078
aI3044
aa(lp1506
I447
aI1591
aI621
aI1549
aI1066
aI1591
aI621
aI1635
aI626
aa(lp1507
I1258
aI157
aI688
aI905
aI2813
aI1999
aI157
aI1159
aI1023
aa(lp1508
I2710
aI490
aI157
aI576
aI385
aI1963
aI83
aa(lp1509
I1794
aI1505
aI2910
aI1610
aI2392
aI1159
aI2621
aI1610
aa(lp1510
I919
aI2297
aI2828
aI1023
aI2691
aI570
aI1159
aa(lp1511
I1850
aI1505
aI1686
aI608
aI1610
aI2017
aI688
aI871
aI1635
aa(lp1512
I736
aI2994
aI2307
aI1171
aI2544
aI2017
aI688
aa(lp1513
I1610
aI157
aI2092
aI2129
aI570
aI576
aI1436
aI157
aI2129
aI653
aa(lp1514
I1533
aI1178
aI84
aI1559
aI2765
aI2994
aI758
aI1262
aI1164
aa(lp1515
I2855
aI621
aI1635
aI109
aI1798
aI1999
aI157
aI3135
aI1178
aa(lp1516
I682
aI2013
aI569
aI1680
aI1238
aI2119
aI605
aI3101
aI362
aI437
aa(lp1517
I75
aI2641
aI1505
aI2014
aI675
aI3135
aa(lp1518
I2651
aI1501
aI790
aI2765
aI2994
aI1159
aI569
aI570
aI758
aI2013
aa(lp1519
I72
aI1610
aI2308
aI2790
aI729
aI1178
aI351
aa(lp1520
I1975
aI317
aI973
aI157
aI654
aI430
aI1364
aa(lp1521
I920
aI1505
aI467
aI157
aI228
aI1334
aI1951
aI170
aI1178
aa(lp1522
I1013
aI792
aI2765
aI2290
aI1680
aI2765
aI1935
aI569
aI1610
aI1067
aa(lp1523
I2226
aI2952
aI1735
aI83
aI2994
aI9
aI362
aa(lp1524
I349
aI2221
aI1569
aI2449
aI1635
aI2494
aI2347
aI1501
aa(lp1525
I1457
aI1567
aI2994
aI2157
aI1635
aI920
aI576
aI267
aI1798
aa(lp1526
I467
aI621
aI1657
aI157
aI2519
aI809
aI145
aI936
aI224
aa(lp1527
I2073
aI945
aI2013
aI2013
aI1178
aI1921
aI608
aI1635
aI60
aa(lp1528
I2333
aI1462
aI1549
aI1588
aI429
aI933
aI157
aI688
aI708
aa(lp1529
I1834
aI2787
aI157
aI1505
aI502
aI73
aI621
aa(lp1530
I174
aI545
aI157
aI688
aI219
aI1066
aI868
aI1159
aa(lp1531
I972
aI2143
aI1693
aI2776
aI2836
aI1693
aI1169
aa(lp1532
I3122
aI1798
aI509
aI1072
aI157
aI1159
aI570
aI2569
aI2899
aa(lp1533
I1503
aI569
aI490
aI157
aI2899
aI2958
aI1178
aa(lp1534
I599
aI1545
aI621
aI3044
aI576
aI3053
aI570
aI1680
aI1635
aa(lp1535
I406
aI1176
aI2994
aI3140
aI1178
aI224
aI145
aI500
aa(lp1536
I2982
aI2952
aI2994
aI884
aI2630
aI1798
aI3044
aI2611
aa(lp1537
I2535
aI1706
aI157
aI1621
aI2034
aI1505
aI303
aa(lp1538
I1125
aI328
aI2952
aI2994
aI1159
aI343
aI792
aa(lp1539
I1182
aI1100
aI1635
aI458
aI1970
aI1069
aa(lp1540
I1855
aI55
aI2994
aI1178
aI349
aI682
aI224
aI145
aI500
aa(lp1541
I145
aI622
aI1635
aI1542
aI569
aI500
aI1528
aI1159
aI60
aa(lp1542
I1577
aI2807
aI591
aI555
aI500
aI1178
aI920
aI1528
aa(lp1543
I1374
aI157
aI2983
aI2605
aI2510
aI2718
aI2776
aa(lp1544
I506
aI1515
aI2997
aI145
aI1600
aI2783
aI2994
aI1110
aI1680
aI688
aa(lp1545
I2599
aI1850
aI157
aI2674
aI157
aI1497
aI1588
aI1023
aa(lp1546
I2644
aI144
aI2994
aI1178
aI1458
aI621
aI1610
aI157
aI2098
aI1588
aa(lp1547
I3098
aI1528
aI2516
aI842
aI1178
aI2980
aI157
aI3038
aI1635
aa(lp1548
I3062
aI1756
aI1635
aI2994
aI1069
aI145
aI1635
aI2172
aI1756
aa(lp1549
I190
aI1515
aI674
aI2866
aI1515
aI979
aI399
aI157
aI1159
aa(lp1550
I1110
aI1610
aI1443
aI2994
aI1589
aI2645
aI1023
aI576
aa(lp1551
I979
aI1784
aI157
aI1159
aI930
aI655
aI1505
aa(lp1552
I2098
aI1874
aI1221
aI1635
aI1178
aI982
aI1635
aa(lp1553
I30
aI429
aI2994
aI2603
aI157
aI1549
aI3079
aI1342
aa(lp1554
I2798
aI2217
aI157
aI576
aI1558
aI1023
aI2098
aI1588
aa(lp1555
I680
aI2098
aI3183
aI1758
aI1458
aI621
aI1610
aI1159
aa(lp1556
I361
aI157
aI576
aI569
aI1725
aI362
aI1588
aI624
aI2994
aI1892
aa(lp1557
I3088
aI2421
aI1635
aI145
aI2341
aI2776
aI1159
aI1178
aa(lp1558
I1128
aI2165
aI569
aI1178
aI3119
aI2561
aI1961
aI555
aa(lp1559
I2668
aI569
aI92
aI2790
aI816
aI1437
aa(lp1560
I973
aI621
aI1635
aI3129
aI742
aI792
aI570
aI688
aa(lp1561
I773
aI555
aI570
aI2776
aI2237
aI1515
aI1593
aI1505
aI2471
aI1505
aa(lp1562
I1961
aI792
aI361
aI621
aI4
aI2479
aI874
aI2561
aI1505
aa(lp1563
I554
aI555
aI570
aI1680
aI2575
aI2059
aI3101
aI2561
aI1069
aa(lp1564
I2283
aI2109
aI1515
aI194
aI621
aI2096
aI570
aI578
aI688
aa(lp1565
I1789
aI2417
aI1515
aI893
aI2141
aI2013
aI621
aa(lp1566
I671
aI1515
aI2642
aI621
aI2099
aI621
aI1515
aI1995
aI621
aa(lp1567
I178
aI1528
aI1635
aI225
aI2269
aI570
aI2717
aI1515
aI2456
aI621
aa(lp1568
I1588
aI1549
aI1797
aI1735
aI1505
aI618
aa(lp1569
I2858
aI362
aI633
aI2960
aI361
aI758
aI2013
aI157
aa(lp1570
I1588
aI1549
aI290
aI1417
aI361
aI157
aI555
aI3139
aI1515
aa(lp1571
I2053
aI2544
aI3127
aI1276
aI621
aI1278
aI2982
aa(lp1572
I758
aI329
aI1725
aI362
aI1189
aI2994
aI2290
aI3139
aI1515
aa(lp1573
I647
aI2544
aI570
aI255
aI920
aI1528
aI1159
aI1178
aa(lp1574
I886
aI585
aI1178
aI1796
aI1505
aI586
aI1635
aa(lp1575
I1801
aI1999
aI2141
aI1528
aI2950
aI1727
aI2709
aa(lp1576
I467
aI2619
aI1798
aI2674
aI35
aI2118
aa(lp1577
I1498
aI2579
aI2561
aI1635
aI2479
aI2950
aI1531
aI2950
aa(lp1578
I816
aI157
aI576
aI2053
aI1262
aI1127
aI621
aI1262
aI708
aa(lp1579
I1278
aI570
aI2004
aI1852
aI2013
aI361
aI2487
aI157
aI1178
aa(lp1580
I312
aI569
aI2849
aI2561
aI1549
aI1680
aI1739
aI2997
aI1725
aI362
aa(lp1581
I2244
aI621
aI1532
aI555
aI1223
aI2561
aI1635
aI1178
aa(lp1582
I2582
aI561
aI621
aI1262
aI2088
aI2297
aI570
aI578
aa(lp1583
I1210
aI1127
aI555
aI1178
aI570
aI2746
aI1725
aI362
aI1159
aa(lp1584
I2212
aI429
aI2598
aI2765
aI218
aI2994
aI1159
aI2596
aI1359
aa(lp1585
I642
aI1588
aI920
aI1066
aI2691
aI2994
aI469
aI1159
aI1359
aI60
aa(lp1586
I2793
aI1711
aI792
aI1215
aI2989
aI157
aI224
aI638
aa(lp1587
I1216
aI695
aI1430
aI2826
aI348
aI1696
aI2013
aI157
aa(lp1588
I3201
aI324
aI13
aI1591
aI3018
aI2790
aa(lp1589
I1474
aI1505
aI2463
aI909
aI1178
aI2875
aI2167
aI576
aI686
aa(lp1590
I1560
aI2328
aI621
aI1207
aI188
aI1787
aI3188
aa(lp1591
I585
aI2455
aI1505
aI1036
aI621
aI1635
aI2901
aI1706
aI2777
aa(lp1592
I2931
aI2786
aI1505
aI878
aI2793
aI1164
aa(lp1593
I467
aI1588
aI920
aI2994
aI2437
aI1189
aI224
aI1066
aI2994
aI1845
aa(lp1594
I538
aI2739
aI2927
aI737
aI2994
aI1418
aa(lp1595
I1421
aI621
aI1505
aI2835
aI1636
aI621
aI310
aa(lp1596
I1023
aI1189
aI1066
aI2994
aI1845
aI224
aI2529
aI1798
aI569
aI920
aa(lp1597
I1016
aI555
aI1039
aI2776
aI1159
aI1635
aI3065
aI1696
aI936
aI1635
aa(lp1598
I2901
aI758
aI1505
aI2830
aI621
aI1635
aI1066
aI145
aI2480
aa(lp1599
I920
aI1066
aI569
aI920
aI2380
aI2903
aa(lp1600
I2135
aI2660
aI570
aI1418
aI2123
aI2776
aa(lp1601
I2084
aI1635
aI1218
aI621
aI1549
aI1880
aI1515
aa(lp1602
I1342
aI1582
aI1569
aI569
aI570
aI792
aI708
aa(lp1603
I702
aI83
aI569
aI1178
aI499
aI1501
aI2615
aI1159
aa(lp1604
I2101
aI1587
aI35
aI1635
aI3179
aI621
aI569
aI570
aa(lp1605
I1733
aI2297
aI519
aI2561
aI3081
aI301
aI2589
aI13
aa(lp1606
I2526
aI1178
aI2281
aI2162
aI385
aI1372
aI2786
aI1066
aI946
aa(lp1607
I1313
aI2074
aI2574
aI2044
aI2561
aI2321
aa(lp1608
I1640
aI1178
aI1701
aI1687
aI2561
aI1549
aI1066
aI2123
aI920
aa(lp1609
I1751
aI1505
aI2229
aI621
aI1635
aI60
aI2668
aI570
aI298
aI2790
aa(lp1610
I1334
aI145
aI2983
aI1178
aI2871
aI2297
aI2544
aI578
aa(lp1611
I2736
aI77
aI1017
aI792
aI1069
aI2598
aI83
aI2994
aa(lp1612
I1610
aI2443
aI2765
aI2994
aI1159
aI2960
aI145
aI2444
aa(lp1613
I1604
aI2055
aI2487
aI1528
aI2826
aI2994
aI2205
aa(lp1614
I736
aI1635
aI920
aI2613
aI1528
aI2983
aI256
aa(lp1615
I2642
aI2308
aI2642
aI145
aI800
aI429
aI2448
aI1610
aI2334
aa(lp1616
I2901
aI301
aI1549
aI533
aI1126
aI2765
aI2994
aI1159
aa(lp1617
I674
aI1407
aI3101
aI1528
aI1591
aI1635
aI283
aI1178
aa(lp1618
I1669
aI621
aI1610
aI1635
aI473
aI3121
aI2765
aI2994
aI1159
aa(lp1619
I2283
aI1528
aI2516
aI2860
aI145
aI3067
aI2826
aI2776
aa(lp1620
I724
aI390
aI1178
aI2413
aI157
aI2124
aI3171
aa(lp1621
I2222
aI2376
aI2494
aI626
aI1501
aI1178
aa(lp1622
I1449
aI1528
aI1505
aI867
aI621
aI2321
aI145
aI2813
aa(lp1623
I11
aI1629
aI1528
aI576
aI145
aI2955
aI1066
aI34
aI2790
aa(lp1624
I932
aI1635
aI2644
aI868
aI2994
aI877
aI898
aI157
aI1892
aa(lp1625
I920
aI1528
aI1505
aI956
aI1178
aI395
aI621
aa(lp1626
I2694
aI1735
aI9
aI2664
aI586
aI1635
aI2950
aI3044
aa(lp1627
I1209
aI1223
aI2664
aI486
aI1291
aI530
aI1549
aa(lp1628
I3039
aI550
aI2664
aI875
aI1635
aI2950
aa(lp1629
I964
aI486
aI1418
aI1394
aI1692
aI1635
aI1920
aI486
aa(lp1630
I610
aI3108
aI1528
aI1505
aI1696
aI1417
aI1023
aI60
aa(lp1631
I14
aI157
aI2862
aI2994
aI868
aI2286
aI328
aI1635
aa(lp1632
I1547
aI1505
aI1966
aI1798
aI1876
aI1623
aI1505
aI3173
aI1178
aa(lp1633
I244
aI758
aI737
aI1533
aI1159
aI154
aI232
aI2297
aI1635
aa(lp1634
I1971
aI1662
aI920
aI576
aI1053
aI2960
aa(lp1635
I278
aI1309
aI1635
aI1967
aI1066
aI1176
aI1159
aI2659
aI621
aa(lp1636
I2878
aI2343
aI1798
aI1650
aI1635
aI665
aI1178
aa(lp1637
I2688
aI2297
aI506
aI2308
aI119
aI3157
aI1505
aI313
aI2776
aa(lp1638
I758
aI2327
aI621
aI2049
aI1178
aI1761
aI2994
aI2899
aI2790
aa(lp1639
I1588
aI1505
aI3173
aI1507
aI1023
aI1159
aI2078
aI411
aI549
aa(lp1640
I1254
aI1010
aI1505
aI2752
aI2994
aI2765
aI303
aI1680
aa(lp1641
I2321
aI1824
aI2950
aI36
aI1263
aI2516
aI1388
aa(lp1642
I2382
aI1635
aI2349
aI1178
aI2349
aI1635
aI2382
aI1552
aa(lp1643
I2503
aI1635
aI1999
aI157
aI2467
aI2994
aI1418
aI698
aI1039
aa(lp1644
I1277
aI973
aI157
aI4
aI390
aI1737
aI1680
aa(lp1645
I83
aI1523
aI1023
aI1999
aI570
aI2998
aI4
aI570
aI2611
aa(lp1646
I403
aI533
aI916
aI2720
aI1505
aI2668
aI1156
aI362
aI2765
aI3079
aa(lp1647
I1083
aI475
aI2544
aI1505
aI2079
aI621
aI576
aa(lp1648
I758
aI2049
aI2994
aI1067
aI506
aI1505
aI1465
aI708
aa(lp1649
I219
aI3135
aI1039
aI289
aI2308
aI569
aI219
aI1159
aa(lp1650
I770
aI1997
aI569
aI570
aI1418
aI920
aI1285
aI1178
aa(lp1651
I2633
aI180
aI1706
aI1735
aI1127
aI2955
aI1169
aI2197
aI593
aa(lp1652
I270
aI157
aI1635
aI2442
aI1378
aI2994
aI1023
aa(lp1653
I363
aI2765
aI2994
aI1169
aI1735
aI542
aI2659
aI2308
aI3128
aI1178
aa(lp1654
I1067
aI145
aI1675
aI1247
aI2412
aI1176
aI1588
aI1159
aa(lp1655
I1929
aI868
aI224
aI2994
aI2776
aI2888
aI1159
aI688
aI1178
aa(lp1656
I915
aI2744
aI157
aI22
aI2994
aI144
aI1778
aa(lp1657
I2735
aI2518
aI1515
aI1595
aI1176
aI3052
aI157
aI2780
aa(lp1658
I702
aI1219
aI157
aI2308
aI1176
aI1588
aI578
aI688
aa(lp1659
I1591
aI1505
aI1824
aI1798
aI1950
aI2041
aI623
aI2308
aI2994
aI2950
aa(lp1660
I1733
aI435
aI792
aI2765
aI2616
aI1798
aI2994
aI1178
aa(lp1661
I1253
aI1528
aI576
aI848
aI2994
aI2412
aI3079
aI2395
aI1635
aa(lp1662
I2299
aI2765
aI1845
aI2111
aI1505
aI671
aI2664
aI1159
aI708
aa(lp1663
I2894
aI2888
aI758
aI1883
aI3079
aI979
aI759
aI157
aa(lp1664
I1719
aI224
aI145
aI1635
aI1588
aI2950
aI1588
aI1635
aI1818
aI1178
aa(lp1665
I2588
aI590
aI2803
aI2776
aI2236
aI612
aI621
aa(lp1666
I2305
aI1798
aI2385
aI1067
aI1240
aI1528
aI1159
aI2790
aa(lp1667
I145
aI2965
aI144
aI623
aI1178
aI623
aI1416
aI362
aa(lp1668
I2207
aI15
aI1169
aI15
aI2297
aI1635
aI219
aI1262
aa(lp1669
I1417
aI1505
aI1913
aI509
aI2297
aI1635
aI1066
aI1418
aa(lp1670
I79
aI1023
aI569
aI2776
aI3045
aI1809
aI626
aI621
aI1178
aa(lp1671
I816
aI655
aI2308
aI2790
aI2125
aI2664
aI2308
aI1066
aa(lp1672
I1156
aI2156
aI2756
aI655
aI2826
aI2793
aI688
aa(lp1673
I1794
aI2051
aI157
aI1635
aI1284
aI936
aa(lp1674
I90
aI707
aI2098
aI2793
aI2621
aI157
aI1501
aI1515
aa(lp1675
I1850
aI1125
aI2994
aI1680
aI2674
aI3134
aI2925
aI2720
aI576
aI2776
aa(lp1676
I867
aI1159
aI233
aI1178
aI1567
aI2994
aI1159
aI1567
aI2994
aI792
aa(lp1677
I3101
aI2720
aI1278
aI2009
aI1557
aI157
aI2955
aa(lp1678
I2354
aI2297
aI2522
aI233
aI385
aI2179
aI2297
aI1007
aI2994
aa(lp1679
I1089
aI2297
aI1066
aI144
aI1834
aI157
aI605
aI313
aI2720
aI2308
aa(lp1680
I199
aI233
aI289
aI2933
aI2544
aI2780
aa(lp1681
I813
aI2724
aI2720
aI576
aI1178
aI2674
aI2098
aI487
aI1610
aa(lp1682
I2848
aI157
aI2321
aI2098
aI2242
aI608
aI667
aI608
aa(lp1683
I943
aI2981
aI1549
aI1434
aI1696
aa(lp1684
I1759
aI313
aI346
aI1159
aI72
aI2290
aI2776
aa(lp1685
I803
aI1635
aI60
aI1012
aI1610
aI1887
aa(lp1686
I973
aI1178
aI2848
aI2950
aI1134
aI1023
aI1947
aI621
aI2955
aI1515
aa(lp1687
I784
aI1635
aI490
aI2308
aI1393
aI2765
aa(lp1688
I1961
aI2561
aI1270
aI2291
aI53
aI1635
aI245
aI998
aa(lp1689
I1891
aI2297
aI967
aI83
aI2873
aI608
aI228
aI1505
aa(lp1690
I142
aI536
aI1023
aI1066
aI2691
aI840
aI1590
aI1159
aa(lp1691
I478
aI1635
aI920
aI682
aI608
aI1214
aI2994
aI2767
aI1069
aa(lp1692
I694
aI2994
aI737
aI145
aI2516
aI225
aI936
aI1635
aI124
aa(lp1693
I1735
aI228
aI2174
aI1159
aI2242
aI1359
aI524
aI1635
aa(lp1694
I228
aI1019
aI1635
aI2775
aI1569
aI2692
aI1635
aa(lp1695
I145
aI576
aI1495
aI1300
aI1635
aI1176
aa(lp1696
I909
aI429
aI2994
aI1159
aI912
aI1066
aI394
aI2129
aI1591
aI792
aa(lp1697
I1845
aI2347
aI1549
aI1278
aI1997
aI807
aI608
aa(lp1698
I1841
aI2017
aI2944
aI2017
aI2098
aI145
aI1635
aa(lp1699
I2283
aI1633
aI1798
aI1505
aI2886
aI2790
aI2098
aI233
aa(lp1700
I2180
aI486
aI124
aI1178
aI1687
aI2098
aI1315
aI2664
aa(lp1701
I675
aI569
aI1159
aI2358
aI2983
aI166
aI3017
aI2129
aI1680
aa(lp1702
I664
aI2664
aI1635
aI681
aI225
aI586
aI1022
aI1178
aa(lp1703
I78
aI225
aI981
aI2765
aI218
aI486
aI1159
aI1125
aI1169
aa(lp1704
I1396
aI2124
aI2994
aI228
aI1178
aI2047
aI608
aa(lp1705
I1668
aI621
aI1069
aI1636
aI621
aI2955
aI459
aI1066
aa(lp1706
I2212
aI555
aI2096
aI486
aI1680
aI1178
aI1064
aI608
aI688
aa(lp1707
I200
aI836
aI608
aI2308
aI2057
aI1515
aI1735
aI3135
aa(lp1708
I2297
aI77
aI2290
aI2544
aI1178
aI2191
aI429
aI2994
aI2544
aa(lp1709
I228
aI1178
aI2478
aI608
aI440
aI758
aI2297
aI2952
aI2994
aa(lp1710
I2878
aI1505
aI553
aI621
aI2790
aI1176
aI920
aI682
aI157
aI578
aa(lp1711
I768
aI2297
aI2770
aI1279
aI688
aI1845
aI570
aa(lp1712
I11
aI2786
aI1635
aI1515
aI920
aI2786
aI1635
aI468
aI2950
aa(lp1713
I2475
aI1168
aI1549
aI1168
aI1515
aI1861
aI1323
aI1861
aa(lp1714
I503
aI2516
aI180
aI2026
aI737
aI570
aI792
aa(lp1715
I2572
aI1069
aI1157
aI1825
aI576
aI1066
aI1548
aI570
aa(lp1716
I2414
aI2498
aI1505
aI1431
aI621
aI22
aa(lp1717
I1600
aI356
aI2664
aI1591
aI2265
aI591
aI2334
aa(lp1718
I2846
aI1159
aI1053
aI1066
aI2382
aI570
aa(lp1719
I1701
aI679
aI1505
aI2842
aI1501
aI3053
aI2776
aa(lp1720
I105
aI1605
aI2022
aI907
aI1610
aI2790
aa(lp1721
I1990
aI1549
aI2010
aI1069
aI751
aI1549
aI593
aI1069
aI570
aI1159
aa(lp1722
I1591
aI1505
aI3041
aI621
aI736
aI3172
aI2994
aI2544
aI1635
aa(lp1723
I1253
aI688
aI2164
aI2765
aI2783
aI3157
aI688
aI869
aI2776
aa(lp1724
I2908
aI621
aI684
aI2994
aI145
aI1635
aI2738
aI2729
aa(lp1725
I517
aI2102
aI621
aI1401
aI157
aI1549
aa(lp1726
I803
aI688
aI2827
aI2487
aI271
aI1515
aa(lp1727
I1843
aI1515
aI2929
aI1169
aI1800
aI1735
aI1368
aI2776
aa(lp1728
I893
aI1178
aI742
aI1501
aI1319
aI2194
aI1066
aI2994
aI2765
aa(lp1729
I2304
aI536
aI326
aI1641
aI2308
aI1735
aI1178
aI1610
aI3051
aa(lp1730
I223
aI3023
aI1484
aI2141
aI1419
aI688
aa(lp1731
I363
aI2652
aI2720
aI576
aI3177
aI652
aa(lp1732
I973
aI608
aI576
aI2816
aI2297
aI145
aI2480
aI792
aa(lp1733
I284
aI2790
aI1590
aI1649
aI157
aI2129
aI1204
aI1178
aa(lp1734
I2092
aI792
aI1739
aI1491
aI1549
aI1513
aI1066
aI569
aI2776
aa(lp1735
I228
aI688
aI145
aI937
aI1830
aI3164
aI2790
aa(lp1736
I963
aI758
aI1798
aI1347
aI3112
aI2129
aI2698
aa(lp1737
I2553
aI608
aI576
aI1947
aI2022
aI1910
aI2013
aI1418
aa(lp1738
I461
aI645
aI1066
aI737
aI1256
aI2404
aI675
aI621
aI576
aa(lp1739
I1072
aI780
aI1066
aI684
aI570
aI1176
aI570
aI578
aI1515
aa(lp1740
I2533
aI1282
aI780
aI1256
aI569
aI1067
aI2790
aa(lp1741
I572
aI2770
aI1798
aI1549
aI837
aI188
aI1178
aa(lp1742
I1490
aI1886
aI1501
aI1911
aI4
aI599
aI245
aI1892
aI688
aa(lp1743
I786
aI428
aI2756
aI2006
aI1549
aI36
aI621
aI2289
aa(lp1744
I1962
aI131
aI792
aI1072
aI792
aI4
aI188
aI2141
aa(lp1745
I775
aI576
aI2173
aI1066
aI578
aI211
aI569
aI2790
aa(lp1746
I1256
aI3028
aI2098
aI1156
aI1865
aI157
aI124
aa(lp1747
I369
aI1200
aI233
aI1178
aI1594
aI1023
aI1156
aI2689
aa(lp1748
I1615
aI188
aI792
aI461
aI681
aI1066
aI2783
aI2709
aI2955
aa(lp1749
I3107
aI2756
aI1798
aI1549
aI2277
aI2335
aa(lp1750
I2111
aI2720
aI1505
aI745
aI858
aI233
aI1023
aI638
aa(lp1751
I1023
aI2178
aI2826
aI188
aI877
aI3098
aI35
aI1159
aa(lp1752
I1052
aI123
aI123
aI157
aI2129
aI1418
aI3000
aI3079
aa(lp1753
I1139
aI1117
aI13
aI941
aI1523
aI1159
aI2983
aa(lp1754
I3198
aI2760
aI2129
aI1418
aI67
aI2141
aI608
aI1549
aa(lp1755
I844
aI3130
aI362
aI1159
aI253
aI2883
aI621
aa(lp1756
I3072
aI2477
aI1159
aI1197
aI1359
aI2819
aI2994
aI429
aa(lp1757
I599
aI608
aI1505
aI1833
aI1663
aI621
aI3008
aI1635
aa(lp1758
I1459
aI2539
aI1159
aI2826
aI2776
aI2281
aI1590
aI157
aI2611
aa(lp1759
I1511
aI821
aI228
aI2308
aI1902
aI2159
aI621
aI2955
aa(lp1760
I2878
aI2720
aI909
aI119
aI233
aI2632
aI1023
aI2297
aI1635
aa(lp1761
I1047
aI1998
aI1359
aI1549
aI1370
aI1178
aa(lp1762
I3125
aI2762
aI1549
aI2918
aI67
aI608
aI2157
aI2739
aa(lp1763
I2281
aI1088
aI1169
aI1492
aI1735
aI941
aI680
aI969
aa(lp1764
I2544
aI576
aI2098
aI739
aI1023
aI1197
aI1827
aI1892
aa(lp1765
I3008
aI1635
aI2281
aI608
aI145
aI67
aI608
aI225
aI936
aa(lp1766
I572
aI1505
aI2929
aI1798
aI576
aI439
aI1505
aI512
aI591
aa(lp1767
I2789
aI1713
aI998
aI1178
aI1713
aI576
aI2789
aI569
aa(lp1768
I1308
aI1505
aI1696
aI923
aI3089
aI1807
aI569
aa(lp1769
I524
aI1635
aI1066
aI3145
aI1791
aI2486
aI1673
aa(lp1770
I2179
aI730
aI2790
aI1062
aI792
aI414
aa(lp1771
I644
aI1062
aI792
aI1178
aI1863
aI1711
aI1668
aa(lp1772
I407
aI927
aI1798
aI2950
aI2245
aI1711
aI1668
aa(lp1773
I1011
aI699
aI621
aI586
aI1635
aI271
aI2217
aI1501
aa(lp1774
I1023
aI2527
aI576
aI1178
aI88
aI576
aI1011
aa(lp1775
I2486
aI2765
aI1635
aI2258
aI576
aI1178
aI2411
aI644
aa(lp1776
I2111
aI1645
aI1798
aI1334
aI1178
aI2494
aI576
aI422
aI1798
aa(lp1777
I1812
aI1798
aI1296
aI418
aI2887
aI1798
aI218
aa(lp1778
I2997
aI1739
aI1756
aI638
aI1739
aI2997
aI1458
aI621
aI2544
aI1610
aa(lp1779
I1824
aI2544
aI1635
aI487
aI835
aI1159
aI1657
aI621
aI1692
aI1635
aa(lp1780
I1685
aI621
aI3044
aI2017
aI2098
aI1156
aI1865
aI157
aa(lp1781
I2678
aI2281
aI2689
aI1169
aI2678
aI1735
aI180
aI569
aI705
aa(lp1782
I3091
aI2098
aI2393
aI2689
aI224
aI2793
aI1151
aI2297
aI376
aI578
aa(lp1783
I740
aI2689
aI1501
aI1016
aI1392
aI1256
aI1392
aI2297
aI3097
aI578
aa(lp1784
I1151
aI1178
aI2678
aI2643
aI1586
aI2194
aI2765
aI2994
aa(lp1785
I2526
aI2689
aI576
aI2994
aI2096
aI1586
aI2709
aI792
aI2790
aa(lp1786
I600
aI1735
aI1533
aI569
aI1190
aI2278
aI576
aI1178
aa(lp1787
I625
aI291
aI157
aI2516
aI1159
aI1343
aI621
aI576
aI1169
aa(lp1788
I3038
aI2994
aI2997
aI638
aI526
aI2689
aI752
aI1635
aI920
aI2994
aa(lp1789
I377
aI2431
aI1735
aI180
aI1798
aI4
aI123
aI1159
aa(lp1790
I2421
aI502
aI1798
aI2467
aI83
aI2994
aI2200
aI2994
aa(lp1791
I1244
aI621
aI1501
aI2654
aI19
aI2852
aI1418
aI291
aI157
aa(lp1792
I3090
aI2950
aI920
aI157
aI1125
aI2994
aI1657
aI2308
aI638
aI1178
aa(lp1793
I1765
aI2756
aI1549
aI1903
aI2852
aI1196
aI2950
aa(lp1794
I2092
aI2129
aI2950
aI1023
aI1395
aI2950
aI2092
aI2129
aa(lp1795
I3145
aI225
aI586
aI1579
aI2604
aI13
aI1359
aI2950
aa(lp1796
I973
aI450
aI682
aI157
aI1635
aI1914
aI2129
aI2997
aI688
aa(lp1797
I3195
aI2891
aI2013
aI1178
aI2725
aI621
aI2092
aI2129
aa(lp1798
I3175
aI228
aI1159
aI1189
aI2278
aI2310
aI1850
aI576
aI638
aa(lp1799
I1541
aI920
aI586
aI1635
aI1490
aI621
aI1066
aI4
aI786
aI608
aa(lp1800
I694
aI1023
aI2297
aI1066
aI1460
aI2994
aI148
aI233
aI1189
aI1635
aa(lp1801
I907
aI1999
aI157
aI1635
aI570
aI2578
aI2994
aI3081
aa(lp1802
I2578
aI2994
aI2756
aI1066
aI569
aI1159
aI1211
aI2297
aI1635
aI1178
aa(lp1803
I786
aI608
aI1501
aI1435
aI2790
aI513
aI1350
aI1798
aa(lp1804
I2838
aI3172
aI429
aI375
aI1080
aI1501
aI235
aa(lp1805
I1120
aI1580
aI157
aI576
aI2725
aI569
aI1256
aI608
aa(lp1806
I1834
aI608
aI576
aI653
aI1256
aI2129
aI2092
aI2017
aI576
aa(lp1807
I2969
aI1125
aI2994
aI2950
aI2361
aI2544
aI2899
aI1178
aa(lp1808
I145
aI2655
aI2950
aI233
aI1178
aI920
aI2994
aI1156
aI1119
aa(lp1809
I504
aI1549
aI145
aI2764
aI973
aI608
aI2117
aa(lp1810
I2297
aI1200
aI945
aI1178
aI1256
aI1501
aI1911
aI2765
aa(lp1811
I1212
aI157
aI2983
aI2208
aI2530
aI1549
aI1096
aa(lp1812
I1657
aI1505
aI1685
aI1271
aI621
aI1066
aI1264
aI1178
aa(lp1813
I559
aI621
aI1505
aI2526
aI1973
aI621
aI2385
aI219
aa(lp1814
I60
aI621
aI576
aI2557
aI1159
aI3179
aI1696
aI1159
aI1069
aa(lp1815
I1340
aI318
aI621
aI1635
aI3138
aI1159
aI1065
aI555
aa(lp1816
I786
aI608
aI1943
aI1156
aI285
aI1729
aI1359
aI2950
aa(lp1817
I973
aI608
aI448
aI2997
aI2950
aI224
aI570
aI2480
aI708
aa(lp1818
I1964
aI228
aI555
aI285
aI1892
aI145
aI688
aI858
aI1635
aa(lp1819
I1961
aI35
aI576
aI3044
aI500
aI608
aI2336
aI1178
aa(lp1820
I1256
aI569
aI420
aI188
aI2578
aI2994
aI2952
aI224
aa(lp1821
I1615
aI1298
aI608
aI1159
aI36
aI233
aI1610
aI1178
aa(lp1822
I1541
aI1635
aI973
aI157
aI2495
aI1159
aI973
aI1159
aI3099
aa(lp1823
I145
aI1178
aI349
aI157
aI1154
aI570
aI587
aI1568
aI1159
aI688
aa(lp1824
I907
aI145
aI2436
aI1635
aI1542
aI1066
aI2189
aa(lp1825
I2297
aI144
aI349
aI87
aI157
aI240
aI1635
aI2978
aI2790
aa(lp1826
I1733
aI4
aI1725
aI3145
aI608
aI1999
aI157
aI2516
aI145
aa(lp1827
I2204
aI1704
aI3094
aI2129
aI1999
aI2519
aI157
aI1178
aa(lp1828
I2581
aI1567
aI2994
aI228
aI1178
aI1999
aI157
aI2078
aI1505
aa(lp1829
I2546
aI2297
aI1635
aI2960
aI2951
aI542
aI2764
aI1798
aa(lp1830
I141
aI689
aI2735
aI608
aI576
aI973
aI157
aI650
aa(lp1831
I413
aI973
aI1590
aI157
aI2480
aI973
aI6
aI157
aI224
aI2790
aa(lp1832
I3105
aI2561
aI2297
aI973
aI157
aI2480
aI145
aI201
aI2504
aa(lp1833
I96
aI157
aI576
aI2183
aI2514
aI224
aI1066
aI2273
aI2129
aa(lp1834
I228
aI576
aI1829
aI1417
aI2994
aI688
aI2947
aI2129
aI638
aI1178
aa(lp1835
I145
aI576
aI569
aI1159
aI1610
aI1178
aI1119
aI1567
aI2730
aa(lp1836
I1119
aI569
aI3133
aI1159
aI1183
aI2765
aI2994
aI1067
aI1023
aa(lp1837
I2952
aI608
aI1635
aI1972
aI1567
aI1999
aI157
aI2994
aI1178
aa(lp1838
I362
aI3025
aI1159
aI1023
aI1033
aI1664
aI1999
aI157
aa(lp1839
I1039
aI1782
aI157
aI2297
aI1635
aI3005
aI2947
aI2129
aa(lp1840
I284
aI2297
aI1066
aI2952
aI3133
aI1069
aI1066
aI2947
aI2129
aI2790
aa(lp1841
I1966
aI569
aI3133
aI1178
aI2210
aI2092
aI2129
aI688
aa(lp1842
I145
aI688
aI997
aI1635
aI2946
aI2790
aI754
aI3133
aa(lp1843
I2368
aI555
aI1562
aI2950
aI2078
aI1159
aI1445
aI1159
aI22
aa(lp1844
I1204
aI2947
aI2129
aI188
aI608
aI1505
aI743
aI621
aa(lp1845
I2514
aI1635
aI1610
aI276
aI1520
aI1159
aI321
aI2129
aa(lp1846
I933
aI157
aI688
aI2943
aI2408
aI349
aI1798
aI297
aI1178
aa(lp1847
I2587
aI1247
aI157
aI1822
aI3051
aI2994
aI2078
aI1023
aa(lp1848
I145
aI1178
aI2078
aI2124
aI1704
aI2129
aI3045
aI2994
aI2765
aI2078
aa(lp1849
I284
aI1066
aI2994
aI1567
aI638
aI1178
aI2995
aI621
aI720
aI3133
aa(lp1850
I2952
aI608
aI1704
aI2129
aI3140
aI2689
aI4
aI829
aa(lp1851
I523
aI576
aI254
aI1178
aI3168
aI1635
aI254
aI1178
aa(lp1852
I1039
aI228
aI845
aI1159
aI2994
aI1567
aI1542
aI1169
aI1735
aa(lp1853
I2960
aI2924
aI969
aI2952
aI2141
aI608
aI1635
aa(lp1854
I657
aI1178
aI263
aI569
aI2952
aI13
aI2129
aI2947
aa(lp1855
I1119
aI576
aI2952
aI157
aI63
aI1635
aI1656
aI2412
aI1066
aa(lp1856
I557
aI674
aI369
aI2482
aI576
aI2952
aI2290
aa(lp1857
I2309
aI2153
aI461
aI792
aI2952
aI157
aI576
aI1178
aa(lp1858
I1039
aI598
aI509
aI638
aI905
aI1610
aI2099
aI621
aa(lp1859
I1953
aI2561
aI1635
aI849
aI851
aI576
aI1178
aa(lp1860
I2952
aI608
aI1635
aI3024
aI2952
aI576
aI424
aI1417
aI2129
aI1023
aa(lp1861
I1735
aI2952
aI263
aI608
aI586
aI1635
aI362
aI1505
aI2952
aI235
aa(lp1862
I2087
aI3049
aI461
aI792
aI1247
aI792
aI2480
aa(lp1863
I1646
aI235
aI1159
aI576
aI145
aI1178
aI235
aI2790
aI1610
aI1125
aa(lp1864
I563
aI1023
aI1313
aI2994
aI1159
aI228
aI1386
aI963
aI608
aI578
aa(lp1865
I254
aI608
aI737
aI2994
aI1159
aI963
aI1128
aI608
aI1635
aI2578
aa(lp1866
I1533
aI3048
aI569
aI1739
aI963
aI608
aI2952
aI1178
aa(lp1867
I1472
aI2141
aI1698
aI157
aI920
aI688
aI180
aI2960
aa(lp1868
I920
aI608
aI1505
aI1250
aI621
aI1472
aI2952
aI254
aa(lp1869
I235
aI2952
aI157
aI1178
aI2925
aI1549
aI1696
aI570
aI1577
aI1575
aa(lp1870
I932
aI486
aI1360
aI1549
aI1081
aI2487
aI1505
aI585
aI576
aa(lp1871
I1756
aI2427
aI569
aI235
aI1930
aI1798
aI1323
aa(lp1872
I1243
aI1672
aI145
aI2480
aI1930
aI621
aI576
aI224
aa(lp1873
I2297
aI144
aI235
aI2994
aI2542
aI2906
aI608
aI576
aI385
aa(lp1874
I142
aI228
aI2105
aI570
aI1023
aI145
aI142
aI2017
aI688
aa(lp1875
I228
aI1635
aI2141
aI2562
aI1798
aI145
aI2017
aI1159
aa(lp1876
I1039
aI1159
aI920
aI1178
aI920
aI608
aI1072
aI157
aI2790
aI586
aa(lp1877
I2952
aI569
aI1072
aI157
aI688
aI145
aI794
aI2129
aI224
aI1178
aa(lp1878
I1156
aI362
aI1635
aI2129
aI3017
aI1680
aI920
aI1372
aI1128
aI2129
aa(lp1879
I2096
aI233
aI1680
aI1066
aI2096
aI1178
aI3175
aI233
aI1159
aa(lp1880
I725
aI570
aI1274
aI2096
aI569
aI188
aI1680
aI3038
aI233
aa(lp1881
I2297
aI1635
aI1651
aI621
aI1204
aI569
aI467
aI621
aI1680
aI638
aa(lp1882
I2615
aI2433
aI2308
aI466
aI1156
aI578
aa(lp1883
I2545
aI487
aI1610
aI1274
aI2665
aI621
aI576
aI2634
aI2297
aa(lp1884
I2889
aI1622
aI2129
aI1704
aI1473
aI3143
aI1505
aI2793
aa(lp1885
I302
aI569
aI973
aI157
aI1505
aI2989
aI621
aI2334
aa(lp1886
I117
aI592
aI1798
aI1159
aI1125
aI973
aI157
aI2826
aI2793
aa(lp1887
I1120
aI2086
aI121
aI1171
aI621
aI1739
aI973
aI157
aI2776
aa(lp1888
I1066
aI569
aI2544
aI1189
aI2544
aI816
aI1156
aI362
aI1515
aa(lp1889
I786
aI1798
aI36
aI1023
aI2983
aI2651
aI461
aI1911
aI1635
aa(lp1890
I548
aI2765
aI1156
aI1178
aI973
aI157
aI758
aI674
aI585
aI576
aa(lp1891
I1175
aI1067
aI233
aI2098
aI3127
aI2756
aI2544
aI1635
aI1178
aa(lp1892
I2651
aI1505
aI3135
aI569
aI2852
aI1159
aI635
aI920
aI157
aI1418
aa(lp1893
I725
aI2852
aI3038
aI2994
aI385
aI2689
aI1963
aI429
aI2994
aa(lp1894
I1975
aI308
aI2278
aI145
aI1125
aI1845
aI2852
aI1159
aa(lp1895
I161
aI2756
aI121
aI621
aI576
aI1738
aa(lp1896
I2428
aI145
aI1477
aI2852
aI1159
aI1435
aI2610
aI2960
aa(lp1897
I467
aI621
aI1668
aI2098
aI296
aI157
aI1739
aI2852
aI3081
aa(lp1898
I3098
aI2446
aI2689
aI99
aI2994
aI1712
aa(lp1899
I1441
aI2651
aI3023
aI569
aI2960
aI1535
aI2124
aI1501
aa(lp1900
I164
aI569
aI2852
aI1066
aI2852
aI877
aI882
aI2790
aa(lp1901
I675
aI1567
aI2994
aI1159
aI2994
aI1066
aI1189
aI882
aI1178
aa(lp1902
I524
aI1926
aI576
aI569
aI462
aI467
aI946
aI708
aa(lp1903
I78
aI1035
aI2765
aI1635
aI1066
aI2746
aI920
aI576
aI2404
aI1178
aa(lp1904
I145
aI1549
aI2852
aI1178
aI2689
aI1549
aI2212
aI2994
aI124
aa(lp1905
I2297
aI1208
aI486
aI725
aI2308
aI1309
aI2664
aI576
aI1178
aa(lp1906
I190
aI621
aI388
aI1635
aI145
aI1066
aI736
aI708
aa(lp1907
I973
aI157
aI2983
aI1305
aI1219
aI608
aI1159
aa(lp1908
I3098
aI608
aI1549
aI2790
aI1725
aI1119
aI1549
aI1066
aI145
aI587
aa(lp1909
I2092
aI2308
aI1066
aI145
aI1181
aI1178
aI1490
aI1549
aI1490
aI2514
aa(lp1910
I2283
aI157
aI576
aI2790
aI2340
aI794
aI2129
aI145
aI127
aa(lp1911
I1201
aI1725
aI1119
aI115
aI1635
aI1848
aI973
aI682
aa(lp1912
I1845
aI608
aI1418
aI1753
aI1549
aI587
aI2129
aI2534
aI1680
aa(lp1913
I772
aI967
aI1681
aI3010
aI157
aI1169
aI1735
aI569
aa(lp1914
I1739
aI2997
aI920
aI157
aI1564
aI228
aI1745
aI145
aI2480
aa(lp1915
I687
aI362
aI533
aI2765
aI2615
aI2530
aI2689
aa(lp1916
I501
aI157
aI1875
aI2852
aI786
aI157
aI2516
aI124
aI1178
aa(lp1917
I2239
aI2720
aI1454
aI1845
aI2340
aI233
aI1159
aa(lp1918
I1331
aI563
aI1567
aI2994
aI1892
aI2790
aI1023
aI1066
aI429
aI638
aa(lp1919
I1212
aI157
aI2195
aI1178
aI2615
aI1549
aI2264
aI145
aI2087
aa(lp1920
I3040
aI1066
aI429
aI3145
aI2092
aI2129
aI2950
aI3136
aI2297
aa(lp1921
I504
aI536
aI326
aI1549
aI112
aI1290
aI157
aa(lp1922
I2068
aI2840
aI1178
aI2840
aI145
aI1481
aI2888
aI3004
aa(lp1923
I1212
aI2464
aI157
aI1505
aI364
aI621
aa(lp1924
I1176
aI570
aI219
aI2508
aI228
aI1912
aI1845
aI2994
aI578
aa(lp1925
I1023
aI145
aI127
aI1635
aI920
aI638
aI920
aI1635
aI1066
aI385
aa(lp1926
I563
aI2297
aI3152
aI2720
aI1418
aI487
aI3173
aI3031
aI2950
aa(lp1927
I3038
aI2957
aI2720
aI2516
aI1895
aI2790
aI497
aI792
aa(lp1928
I1011
aI1016
aI2826
aI2994
aI710
aI2826
aI2994
aI578
aI688
aa(lp1929
I228
aI1505
aI506
aI526
aI1845
aI1325
aI157
aI576
aI1178
aa(lp1930
I2674
aI1023
aI579
aI569
aI1458
aI1690
aI2544
aI1067
aa(lp1931
I2297
aI40
aI2699
aI1011
aI2308
aI1946
aI1011
aa(lp1932
I1903
aI2129
aI1069
aI1023
aI2297
aI1066
aI1007
aI2994
aI1159
aa(lp1933
I1171
aI2421
aI973
aI1226
aI608
aI385
aI2179
aI1156
aI1119
aI2838
aa(lp1934
I1156
aI362
aI1549
aI228
aI920
aI1066
aI429
aI2994
aI2310
aI576
aa(lp1935
I1202
aI390
aI1350
aI1798
aI228
aI576
aI233
aI688
aa(lp1936
I2038
aI233
aI1680
aI2746
aI1159
aI973
aI157
aI1262
aI2790
aa(lp1937
I552
aI1635
aI894
aI569
aI2855
aI1505
aI440
aI576
aI2783
aa(lp1938
I1063
aI1849
aI2250
aI608
aI1549
aI1104
aI362
aI2098
aI1069
aa(lp1939
I521
aI416
aI1909
aI1635
aI2125
aI1663
aI1069
aa(lp1940
I2898
aI2297
aI1635
aI664
aI802
aI1069
aI1563
aI1069
aa(lp1941
I907
aI228
aI1549
aI2647
aI1993
aI1196
aI1635
aa(lp1942
I967
aI2782
aI3037
aI157
aI1069
aI2772
aI3037
aI157
aI2790
aa(lp1943
I228
aI1030
aI2516
aI973
aI2272
aI235
aI2483
aa(lp1944
I1017
aI1798
aI1505
aI1867
aI621
aI2011
aI97
aI2783
aa(lp1945
I2297
aI1635
aI1203
aI3199
aI1178
aI2978
aI1786
aI1226
aI608
aa(lp1946
I3128
aI157
aI3134
aI2994
aI180
aI2960
aI3127
aI157
aI937
aa(lp1947
I1212
aI145
aI1320
aI2582
aI145
aI2495
aI1159
aI2852
aI1159
aa(lp1948
I11
aI956
aI682
aI608
aI1178
aI2582
aI157
aI569
aI920
aa(lp1949
I945
aI778
aI1501
aI2127
aI2582
aI157
aI1505
aI11
aa(lp1950
I2878
aI3101
aI1119
aI2129
aI1765
aI362
aI1549
aI2790
aI708
aa(lp1951
I1167
aI1066
aI2865
aI570
aI2049
aI394
aI2129
aI1178
aa(lp1952
I1119
aI1505
aI2281
aI1359
aI2516
aI1066
aI429
aI570
aI578
aI1515
aa(lp1953
I776
aI1363
aI2720
aI211
aI2765
aI1159
aa(lp1954
I362
aI2950
aI3000
aI2950
aI920
aI1505
aI2448
aI2756
aI1720
aI1178
aa(lp1955
I1939
aI2720
aI1505
aI156
aI2785
aI655
aI1349
aa(lp1956
I1359
aI794
aI2129
aI2950
aI228
aI920
aI2994
aI3109
aI570
aI2297
aa(lp1957
I228
aI1618
aI362
aI2950
aI2824
aI1156
aI1119
aI2157
aa(lp1958
I593
aI570
aI1418
aI1159
aI973
aI608
aI576
aI500
aI913
aa(lp1959
I2297
aI2703
aI1635
aI1581
aI1007
aI500
aI608
aa(lp1960
I63
aI3017
aI2129
aI1680
aI2765
aI1635
aI370
aI3017
aI2129
aI578
aa(lp1961
I693
aI2297
aI2129
aI1129
aI3191
aI2308
aa(lp1962
I554
aI1635
aI444
aI782
aI1357
aI1798
aI2950
aI2626
aa(lp1963
I472
aI1748
aI1677
aI3006
aI2689
aI1505
aI235
aa(lp1964
I1330
aI2893
aI1610
aI2495
aI1178
aI2529
aI2689
aI724
aI3001
aa(lp1965
I3182
aI2765
aI119
aI2852
aI1118
aI621
aI1505
aI88
aI576
aa(lp1966
I2198
aI576
aI2689
aI2575
aI553
aI951
aI2689
aI2611
aa(lp1967
I1869
aI569
aI1110
aI1213
aI13
aI2689
aI554
aI1635
aI3013
aa(lp1968
I786
aI2689
aI218
aI2137
aI2776
aI1159
aI1624
aI1635
aa(lp1969
I2414
aI3027
aI1590
aI2689
aI277
aI1066
aa(lp1970
I228
aI2516
aI2137
aI2776
aI1159
aI189
aI2129
aI269
aI1023
aa(lp1971
I1296
aI1982
aI228
aI2198
aI2529
aI608
aI2994
aI2611
aa(lp1972
I145
aI1635
aI748
aI2768
aI2832
aI608
aI554
aI2129
aI578
aI2790
aa(lp1973
I1966
aI2297
aI145
aI3008
aI1961
aI342
aI621
aI2279
aI1178
aa(lp1974
I2952
aI608
aI2765
aI1129
aI2129
aI1159
aI1832
aI2994
aI2952
aI1023
aa(lp1975
I1039
aI2248
aI304
aI157
aI1178
aI748
aI2768
aI2129
aI578
aa(lp1976
I710
aI1178
aI1782
aI1505
aI2765
aI2994
aI2746
aI1729
aa(lp1977
I1039
aI145
aI515
aI429
aI2103
aI1729
aI3044
aI2776
aa(lp1978
I461
aI674
aI1017
aI1798
aI569
aI1180
aI219
aI621
aa(lp1979
I506
aI1648
aI1642
aI1798
aI439
aI70
aI621
aa(lp1980
I289
aI2656
aI157
aI1824
aI1635
aI1818
aI145
aI2503
aI1635
aa(lp1981
I249
aI157
aI2516
aI1180
aI219
aI157
aI922
aa(lp1982
I2147
aI1798
aI2297
aI1635
aI1958
aI157
aI466
aI119
aI1178
aa(lp1983
I25
aI36
aI2689
aI1549
aI983
aI2561
aI580
aa(lp1984
I2062
aI1184
aI2297
aI1180
aI157
aI1159
aI3139
aI1178
aa(lp1985
I127
aI1135
aI1066
aI638
aI1007
aI2994
aI895
aa(lp1986
I349
aI245
aI1635
aI2124
aI145
aI2516
aI2124
aI1417
aI2790
aa(lp1987
I1824
aI1080
aI576
aI1180
aI235
aI685
aI2994
aa(lp1988
I2521
aI576
aI940
aI2790
aI3038
aI64
aI2994
aI2290
aI2544
aI638
aa(lp1989
I2668
aI235
aI1850
aI157
aI2168
aI1180
aI2674
aI157
aI998
aa(lp1990
I586
aI868
aI599
aI3101
aI946
aI1159
aI2281
aI1359
aa(lp1991
I2267
aI432
aI469
aI1159
aI377
aI621
aI276
aI401
aa(lp1992
I933
aI2689
aI688
aI2441
aI1159
aI145
aI1635
aa(lp1993
I2878
aI1744
aI157
aI2467
aI2852
aI1418
aI2790
aa(lp1994
I1313
aI2066
aI868
aI973
aI2689
aI576
aI2179
aa(lp1995
I2141
aI77
aI1159
aI3098
aI1159
aI2821
aa(lp1996
I1751
aI2762
aI2466
aI576
aI2211
aI737
aa(lp1997
I196
aI1635
aI770
aI2960
aI570
aI255
aI1178
aa(lp1998
I1013
aI1569
aI1549
aI683
aI2852
aI2267
aI432
aa(lp1999
I2642
aI2762
aI2950
aI570
aI1090
aI1159
aa(lp2000
I2062
aI1798
aI3044
aI2783
aI671
aI1624
aI555
aa(lp2001
I472
aI2215
aI569
aI1824
aI1635
aI1657
aI2516
aa(lp2002
I544
aI2852
aI472
aI11
aI2516
aI2267
aI432
aa(lp2003
I1543
aI2438
aI1242
aI545
aI157
aI1647
aI1178
aa(lp2004
I412
aI778
aI157
aI1505
aI2781
aI621
aI963
aI1590
aa(lp2005
I260
aI354
aI1107
aI1364
aI412
aI778
aI157
aa(lp2006
I3155
aI1826
aI1178
aI2321
aI897
aI2129
aI3017
aI2793
aa(lp2007
I2166
aI114
aI1023
aI1858
aI2102
aI608
aI2804
aa(lp2008
I1954
aI1798
aI1800
aI1023
aI2411
aI883
aI263
aI1023
aI2793
aa(lp2009
I2233
aI8
aI1992
aI608
aI2983
aI2129
aI3017
aa(lp2010
I1703
aI2544
aI1505
aI71
aI1617
aI2290
aa(lp2011
I1013
aI2745
aI608
aI2544
aI569
aI846
aI608
aI1278
aI3131
aa(lp2012
I3042
aI975
aI608
aI2983
aI2129
aI940
aI963
aI224
aa(lp2013
I1953
aI608
aI383
aI1635
aI897
aI1159
aI2480
aI1178
aa(lp2014
I1341
aI1505
aI1701
aI1956
aI576
aI1476
aI488
aI2763
aa(lp2015
I1735
aI792
aI424
aI2297
aI1411
aI1008
aI2297
aI2321
aa(lp2016
I487
aI1501
aI1499
aI1159
aI2122
aI1501
aI1924
aI2129
aI2290
aI1023
aa(lp2017
I224
aI791
aI1735
aI792
aI20
aI680
aI2412
aI2122
aI1178
aa(lp2018
I1039
aI1959
aI1083
aI1798
aI2950
aI569
aI920
aI157
aa(lp2019
I2800
aI621
aI1638
aI820
aI2776
aI1159
aI688
aa(lp2020
I506
aI621
aI484
aI555
aI2776
aI1159
aI1501
aI14
aa(lp2021
I2105
aI1635
aI9
aI212
aI1074
aI591
aa(lp2022
I920
aI157
aI1635
aI558
aI621
aI1711
aI157
aa(lp2023
I607
aI1066
aI2098
aI901
aI2561
aI1159
aI935
aa(lp2024
I2134
aI1067
aI1179
aI2994
aI1178
aI145
aI624
aI4
aa(lp2025
I2144
aI868
aI2591
aI2776
aI2122
aI569
aI664
aa(lp2026
I1110
aI1668
aI569
aI1711
aI1067
aI1567
aI2994
aI622
aI1668
aa(lp2027
I43
aI10
aI1549
aI1355
aI1178
aa(lp2028
I2098
aI1161
aI1011
aI2950
aI2206
aI157
aI1178
aI605
aI157
aa(lp2029
I2468
aI2610
aI2651
aI621
aI2516
aI1409
aI2955
aa(lp2030
I1241
aI228
aI2998
aI1178
aI461
aI228
aI1001
aI2765
aI2994
aI688
aa(lp2031
I671
aI2950
aI602
aI2950
aI1824
aI2950
aI1256
aI2950
aI2092
aI2783
aa(lp2032
I740
aI157
aI576
aI1911
aI920
aI4
aI1156
aI1680
aI145
aI708
aa(lp2033
I2283
aI758
aI1549
aI1057
aI792
aI2765
aI2776
aa(lp2034
I3022
aI2989
aI157
aI569
aI1274
aI2765
aI233
aI578
aI1515
aa(lp2035
I2238
aI2096
aI233
aI1680
aI798
aI606
aI1159
aa(lp2036
I552
aI1156
aI2756
aI157
aI2623
aI461
aI2297
aI1159
aI578
aa(lp2037
I1023
aI1066
aI569
aI570
aI1189
aI1635
aI1458
aI621
aI2836
aI1680
aa(lp2038
I3156
aI2997
aI555
aI920
aI224
aI1066
aI2297
aI570
aI578
aa(lp2039
I792
aI1161
aI1610
aI2950
aI758
aI1023
aI1066
aI569
aI1725
aI946
aa(lp2040
I758
aI2297
aI1725
aI946
aI967
aI3079
aI708
aI570
aI967
aI3079
aa(lp2041
I1254
aI1549
aI1178
aI575
aI1549
aI516
aI1023
aI569
aI1159
aa(lp2042
I2855
aI157
aI103
aI2994
aI385
aI224
aI2410
aI792
aa(lp2043
I1361
aI1657
aI998
aI1066
aI357
aI1999
aI570
aI1685
aI621
aa(lp2044
I1128
aI145
aI1634
aI2129
aI1254
aI1549
aI920
aI1753
aI708
aa(lp2045
I2049
aI2826
aI1309
aI36
aI608
aI1772
aI1156
aI3004
aa(lp2046
I1066
aI228
aI920
aI2994
aI1189
aI3145
aI708
aI2129
aI2273
aa(lp2047
I1257
aI228
aI1549
aI1999
aI157
aI507
aI2994
aI1418
aa(lp2048
I256
aI2994
aI1418
aI228
aI1501
aI1125
aI1066
aI2994
aI429
aa(lp2049
I933
aI608
aI688
aI1006
aI1999
aI157
aI1505
aI1567
aa(lp2050
I349
aI157
aI736
aI429
aI2994
aI1159
aI228
aI1014
aI2783
aa(lp2051
I2983
aI0
aI429
aI2994
aI1159
aI2129
aI2225
aI2157
aI1501
aa(lp2052
I2233
aI1066
aI2994
aI429
aI145
aI1501
aI996
aI2129
aI578
aI2386
aa(lp2053
I1940
aI1636
aI1549
aI1999
aI157
aI2983
aI1700
aa(lp2054
I1707
aI1999
aI157
aI576
aI2994
aI429
aI1239
aI1680
aa(lp2055
I2038
aI1635
aI1917
aI608
aI1226
aI1023
aI569
aI1159
aa(lp2056
I1986
aI608
aI2296
aI555
aI467
aI157
aI1610
aI1418
aa(lp2057
I1156
aI1119
aI1505
aI1117
aI621
aI2308
aI1754
aa(lp2058
I361
aI608
aI3038
aI2994
aI1067
aI688
aI1501
aI11
aI920
aI2790
aa(lp2059
I1128
aI1567
aI2994
aI1178
aI794
aI2129
aI2096
aI967
aI1159
aI1359
aa(lp2060
I1845
aI2705
aI2544
aI2129
aI1704
aI1490
aI1680
aI2516
aI708
aa(lp2061
I26
aI1635
aI973
aI157
aI2536
aI1549
aa(lp2062
I2283
aI758
aI157
aI1635
aI2212
aI621
aI936
aI145
aI586
aI1635
aa(lp2063
I2642
aI621
aI1964
aI1066
aI555
aI239
aI1159
aI2578
aI1178
aa(lp2064
I506
aI585
aI1505
aI745
aI2544
aI2129
aI1704
aI1508
aa(lp2065
I1834
aI608
aI1505
aI1799
aI1645
aI621
aI576
aI1159
aa(lp2066
I3015
aI1505
aI1470
aI1178
aI374
aI2709
aI569
aI1533
aa(lp2067
I511
aI467
aI1610
aI1651
aI608
aI361
aI157
aI576
aI1159
aa(lp2068
I1735
aI228
aI920
aI145
aI586
aI1635
aI3079
aI228
aI255
aI2783
aa(lp2069
I11
aI1505
aI2677
aI626
aI2096
aI1178
aI752
aI2994
aI1735
aI621
aa(lp2070
I2778
aI429
aI2482
aI1680
aI920
aI2994
aI385
aI708
aa(lp2071
I2878
aI157
aI2778
aI1066
aI2054
aI2129
aI2482
aI1549
aa(lp2072
I145
aI576
aI920
aI716
aI2148
aI608
aI578
aa(lp2073
I228
aI1505
aI649
aI2297
aI1635
aI2994
aI3082
aI1735
aa(lp2074
I569
aI1678
aI1680
aI3038
aI1635
aI2428
aI326
aI569
aI920
aa(lp2075
I920
aI1505
aI681
aI569
aI1678
aI1066
aI1739
aI2783
aI638
aa(lp2076
I365
aI157
aI1066
aI1209
aI823
aI2762
aI224
aa(lp2077
I932
aI1999
aI2141
aI608
aI1309
aI157
aI1505
aI73
aI3004
aa(lp2078
I2060
aI429
aI2994
aI145
aI925
aI2129
aI688
aa(lp2079
I1606
aI2745
aI1478
aI157
aI1635
aI1961
aI1352
aI157
aa(lp2080
I1007
aI3133
aI1159
aI2472
aI157
aI127
aI555
aI963
aI157
aa(lp2081
I1711
aI456
aI792
aI1817
aI2979
aI920
aI576
aI47
aa(lp2082
I228
aI2668
aI2139
aI555
aI1072
aI608
aI2955
aI1524
aI2790
aa(lp2083
I25
aI2544
aI1505
aI1226
aI42
aI3142
aI2561
aI2950
aa(lp2084
I2297
aI1635
aI855
aI1590
aI608
aI1114
aI569
aI3133
aa(lp2085
I249
aI608
aI2308
aI1653
aI2110
aI608
aI576
aI1511
aI1635
aa(lp2086
I736
aI2994
aI1159
aI570
aI142
aI1678
aI1505
aI976
aI792
aa(lp2087
I1653
aI1178
aI2394
aI2994
aI920
aI682
aI13
aI688
aI920
aI2689
aa(lp2088
I431
aI1567
aI2994
aI1914
aI2129
aI228
aI945
aI576
aa(lp2089
I107
aI920
aI145
aI1635
aI431
aI451
aI2092
aI2129
aI2790
aa(lp2090
I2915
aI2310
aI75
aI1178
aI1748
aI205
aI608
aI1512
aI576
aa(lp2091
I3150
aI920
aI75
aI189
aI11
aI75
aI2345
aI576
aa(lp2092
I228
aI2444
aI2994
aI429
aI1076
aI1530
aI1729
aI1505
aI2793
aI2790
aa(lp2093
I2013
aI1807
aI1567
aI2994
aI1922
aI230
aI2994
aI1418
aa(lp2094
I228
aI2531
aI1635
aI2790
aI408
aI2098
aI2875
aI157
aI1610
aI688
aa(lp2095
I3045
aI569
aI228
aI576
aI2310
aI1116
aI157
aI1610
aI1178
aa(lp2096
I2640
aI1568
aI608
aI1505
aI408
aI1568
aI1001
aI2765
aI2994
aI688
aa(lp2097
I395
aI608
aI2651
aI608
aI920
aI608
aI1505
aI408
aa(lp2098
I756
aI1635
aI1156
aI654
aI228
aI483
aI1635
aI1178
aa(lp2099
I2096
aI233
aI1118
aI621
aI507
aI2578
aI225
aI3135
aI1515
aa(lp2100
I2994
aI1807
aI1735
aI461
aI228
aI1001
aI2765
aI2994
aI688
aa(lp2101
I2297
aI1798
aI36
aI1023
aI2651
aI621
aI507
aI2578
aI1635
aa(lp2102
I1280
aI1509
aI1178
aI3122
aI2561
aI2308
aI271
aI421
aa(lp2103
I1876
aI854
aI2544
aI825
aI1505
aI1050
aI1798
aa(lp2104
I2750
aI3110
aI868
aI2168
aI3194
aI2561
aI1178
aa(lp2105
I1244
aI1159
aI1505
aI1446
aI1038
aI1798
aI576
aa(lp2106
I920
aI1505
aI2168
aI131
aI2544
aI2516
aI428
aI2776
aa(lp2107
I2116
aI1635
aI1039
aI751
aI1525
aI2885
aI1798
aa(lp2108
I932
aI487
aI638
aI2776
aI715
aI1085
aI1798
aI1967
aI1178
aa(lp2109
I622
aI732
aI1798
aI550
aI1841
aI507
aa(lp2110
I1988
aI3122
aI946
aI1725
aI1865
aI157
aI2955
aI2790
aa(lp2111
I2073
aI157
aI1427
aI119
aI1778
aI1768
aI688
aI911
aI621
aa(lp2112
I2128
aI715
aI1505
aI1815
aI621
aI924
aI3173
aI2994
aa(lp2113
I1942
aI1521
aI1187
aI1798
aI2362
aI3016
aI1178
aa(lp2114
I725
aI1815
aI157
aI688
aI715
aI621
aI622
aI792
aI1876
aI2790
aa(lp2115
I1156
aI1865
aI157
aI2168
aI75
aI274
aI421
aI1274
aa(lp2116
I1280
aI2412
aI2035
aI3012
aI1145
aI621
aa(lp2117
I3122
aI272
aI2561
aI249
aI2561
aI2308
aI271
aa(lp2118
I2692
aI1635
aI545
aI2499
aI1405
aI1159
aI1859
aI1316
aI2611
aa(lp2119
I599
aI384
aI2689
aI576
aI2790
aI2308
aI2870
aI2408
aa(lp2120
I2168
aI1159
aI1278
aI333
aI857
aI2725
aI621
aa(lp2121
I2322
aI644
aI620
aI758
aI1505
aI2653
aI1316
aI2776
aa(lp2122
I664
aI181
aI1505
aI2933
aI621
aI1023
aI1178
aa(lp2123
I392
aI599
aI734
aI1798
aI2308
aI2869
aI737
aa(lp2124
I2308
aI2997
aI863
aI1798
aI576
aI1695
aI2852
aI3122
aI2544
aa(lp2125
I3046
aI751
aI333
aI2168
aI946
aI2516
aI2776
aa(lp2126
I2071
aI2343
aI1178
aI715
aI1798
aI968
aa(lp2127
I2576
aI1865
aI157
aI2994
aI2790
aI29
aI487
aI688
aa(lp2128
I932
aI2994
aI1159
aI2308
aI2544
aI1178
aI622
aI688
aI1533
aI2408
aa(lp2129
I920
aI1066
aI583
aI905
aI905
aI2407
aI2168
aI946
aa.