(dp1
S'fawn'
p2
I0
sS'pardon'
p3
I1
sS'yellow'
p4
I2
sS'four'
p5
I3
sS'hath'
p6
I4
sS'sleep'
p7
I5
sS"friend's"
p8
I6
sS'hanging'
p9
I7
sS'mansion'
p10
I8
sS'appetite'
p11
I9
sS'captain'
p12
I62
sS'hate'
p13
I11
sS'poorly'
p14
I76
sS'whose'
p15
I13
sS'feeding'
p16
I14
sS'effectually'
p17
I92
sS'granting'
p18
I16
sS'sweetest'
p19
I17
sS'presents'
p20
I18
sS'whatsoever'
p21
I21
sS'under'
p22
I22
sS'lord'
p23
I23
sS'sorry'
p24
I24
sS'pride'
p25
I25
sS'sway'
p26
I26
sS'worth'
p27
I27
sS'frowns'
p28
I2675
sS'discased'
p29
I29
sS'dispense'
p30
I30
sS'hadst'
p31
I31
sS'inhearse'
p32
I32
sS"women's"
p33
I33
sS'every'
p34
I35
sS'foul'
p35
I36
sS'nourished'
p36
I37
sS"o'er-read"
p37
I38
sS'uttering'
p38
I41
sS'prize'
p39
I42
sS'sunk'
p40
I1620
sS'graced'
p41
I44
sS'succession'
p42
I45
sS'graces'
p43
I46
sS'triumph'
p44
I47
sS'enjoy'
p45
I48
sS'charter'
p46
I49
sS'force'
p47
I50
sS'tired'
p48
I51
sS'razed'
p49
I53
sS'out-going'
p50
I54
sS'tires'
p51
I56
sS'crave'
p52
I57
sS'persuade'
p53
I58
sS'down-rased'
p54
I2884
sS'esteem'
p55
I3107
sS'quill'
p56
I59
sS'even'
p57
I60
sS'beated'
p58
I61
sS'evermore'
p59
I10
sS'hide'
p60
I63
sS"ne'er"
p61
I64
sS'solemn'
p62
I65
sS'thunder'
p63
I66
sS'fingers'
p64
I67
sS'liberty'
p65
I68
sS"gild'st"
p66
I1628
sS'worser'
p67
I70
sS'wakened'
p68
I1629
sS'above'
p69
I72
sS'matcheth'
p70
I74
sS'new'
p71
I75
sS'increasing'
p72
I445
sS'ever'
p73
I77
sS'told'
p74
I78
sS'deemed'
p75
I79
sS'sinks'
p76
I81
sS'never'
p77
I83
sS'here'
p78
I84
sS'herd'
p79
I85
sS'beck'
p80
I86
sS"sweet'st"
p81
I87
sS'pursuit'
p82
I88
sS'active'
p83
I89
sS'quite'
p84
I1106
sS'a-doting'
p85
I91
sS'dry'
p86
I93
sS'resty'
p87
I94
sS'substance'
p88
I95
sS'attending'
p89
I2684
sS'leaves'
p90
I97
sS'climbed'
p91
I98
sS'credit'
p92
I99
sS'smoke'
p93
I100
sS'permit'
p94
I101
sS'bettered'
p95
I102
sS'mistake'
p96
I103
sS'settled'
p97
I104
sS'golden'
p98
I106
sS'swearing'
p99
I107
sS'divide'
p100
I108
sS'blessed-fair'
p101
I110
sS'sorrows'
p102
I111
sS'patience'
p103
I112
sS'stern'
p104
I113
sS'glance'
p105
I115
sS"light's"
p106
I116
sS'plot'
p107
I117
sS'would'
p108
I119
sS'crowning'
p109
I310
sS"world's"
p110
I121
sS'junes'
p111
I122
sS'music'
p112
I123
sS'therefore'
p113
I124
sS'survive'
p114
I125
sS'gilding'
p115
I126
sS'tell'
p116
I127
sS'breathe'
p117
I128
sS'leese'
p118
I129
sS'unbless'
p119
I130
sS'holy'
p120
I131
sS'wary'
p121
I132
sS'brings'
p122
I133
sS'muse'
p123
I134
sS'hurt'
p124
I1163
sS'grief'
p125
I136
sS'glass'
p126
I137
sS'warm'
p127
I138
sS'former'
p128
I1633
sS'excellent'
p129
I139
sS'robbing'
p130
I140
sS'ward'
p131
I141
sS'hold'
p132
I142
sS'striving'
p133
I143
sS'must'
p134
I144
sS'shoot'
p135
I34
sS'join'
p136
I82
sS'room'
p137
I147
sS'err'
p138
I148
sS'rights'
p139
I149
sS'work'
p140
I150
sS'eclipse'
p141
I151
sS'roof'
p142
I152
sS'meadows'
p143
I153
sS'ere'
p144
I154
sS'sharp'
p145
I1775
sS'leaped'
p146
I155
sS'dost'
p147
I3017
sS'revenues'
p148
I156
sS'root'
p149
I913
sS'example'
p150
I158
sS'shook'
p151
I917
sS'fresher'
p152
I162
sS'wane'
p153
I163
sS'unjust'
p154
I164
sS'impair'
p155
I960
sS"wand'rest"
p156
I1115
sS'want'
p157
I976
sS'appearance'
p158
I2949
sS'story'
p159
I2329
sS'returned'
p160
I1643
sS'ceremony'
p161
I171
sS"consum'st"
p162
I172
sS'gusts'
p163
I173
sS'provide'
p164
I174
sS'dignifies'
p165
I175
sS'travel'
p166
I176
sS'feature'
p167
I178
sS'wights'
p168
I179
sS'faults'
p169
I1309
sS'hot'
p170
I181
sS'writers'
p171
I182
sS'low'
p172
I2727
sS'answer'
p173
I183
sS'gate'
p174
I184
sS'dignified'
p175
I185
sS"o'er-snowed"
p176
I186
sS'blanks'
p177
I187
sS'beauty'
p178
I188
sS'after'
p179
I189
sS'wrong'
p180
I190
sS'lay'
p181
I191
sS'lap'
p182
I192
sS'wronk'
p183
I193
sS"grow'st"
p184
I2556
sS"rud'st"
p185
I194
sS'revolt'
p186
I195
sS'greet'
p187
I196
sS'purging'
p188
I197
sS'wink'
p189
I198
sS'maintain'
p190
I199
sS'green'
p191
I1206
sS'keeps'
p192
I201
sS'alack'
p193
I202
sS'mightier'
p194
I2374
sS'wouldst'
p195
I203
sS'wind'
p196
I204
sS'bed-vow'
p197
I205
sS'determinate'
p198
I206
sS'couplement'
p199
I207
sS'after-loss'
p200
I208
sS'office'
p201
I209
sS'consent'
p202
I210
sS'choose'
p203
I2631
sS'profaned'
p204
I211
sS'sickly'
p205
I212
sS'fortify'
p206
I213
sS'ghastly'
p207
I214
sS'budding'
p208
I118
sS"bestow'st"
p209
I216
sS'wrought'
p210
I217
sS'before'
p211
I218
sS'wilt'
p212
I2947
sS'thrust'
p213
I2686
sS'better'
p214
I219
sS'fade'
p215
I220
sS'carve'
p216
I221
sS'hidden'
p217
I222
sS'possessing'
p218
I2704
sS'then'
p219
I224
sS'them'
p220
I225
sS'blots'
p221
I226
sS'weakness'
p222
I265
sS'thee'
p223
I228
sS"truth's"
p224
I229
sS'break'
p225
I230
sS"winter's"
p226
I231
sS'diseased'
p227
I232
sS'they'
p228
I233
sS'glazed'
p229
I234
sS"lovers'"
p230
I2513
sS'silver'
p231
I236
sS'shadows'
p232
I237
sS'rhetoric'
p233
I238
sS'brightness'
p234
I239
sS'slavery'
p235
I240
sS'rocks'
p236
I241
sS'herald'
p237
I242
sS'victories'
p238
I243
sS'each'
p239
I245
sS'wantonly'
p240
I246
sS'dulness'
p241
I247
sS'went'
p242
I248
sS'side'
p243
I249
sS'luck'
p244
I250
sS'true-telling'
p245
I251
sS'woes'
p246
I252
sS'concord'
p247
I253
sS"'will'"
p248
I254
sS'taught'
p249
I255
sS'forgot'
p250
I256
sS'misprision'
p251
I257
sS'whit'
p252
I258
sS'truant'
p253
I259
sS'array'
p254
I260
sS'borne'
p255
I261
sS'contend'
p256
I262
sS'silvered'
p257
I1659
sS'decree'
p258
I264
sS'god'
p259
I267
sS'forty'
p260
I268
sS'moiety'
p261
I2712
sS'content'
p262
I270
sS'laid'
p263
I271
sS'heart-inflaming'
p264
I272
sS'heavenly'
p265
I273
sS'got'
p266
I274
sS'marigold'
p267
I275
sS'forth'
p268
I276
sS'assured'
p269
I278
sS'fadeth'
p270
I279
sS'hang'
p271
I280
sS'eternal'
p272
I282
sS'given'
p273
I283
sS'free'
p274
I284
sS'mourning'
p275
I285
sS'small'
p276
I1661
sS'bestow'
p277
I287
sS'whereupon'
p278
I288
sS'evil'
p279
I289
sS'basest'
p280
I1455
sS'crowned'
p281
I290
sS'mistress'
p282
I291
sS'knit'
p283
I292
sS"receiv'st"
p284
I294
sS'created'
p285
I295
sS'days'
p286
I296
sS'ordering'
p287
I2716
sS'renew'
p288
I299
sS'tempting'
p289
I300
sS'potions'
p290
I303
sS'loud'
p291
I304
sS'ruinate'
p292
I305
sS'penury'
p293
I1811
sS'separable'
p294
I307
sS'untutored'
p295
I308
sS'already'
p296
I309
sS'hearsay'
p297
I311
sS"'greeing"
p298
I312
sS'maladies'
p299
I550
sS'hearing'
p300
I314
sS'workings'
p301
I3060
sS'featured'
p302
I316
sS'another'
p303
I317
sS'sober'
p304
I318
sS'filching'
p305
I319
sS'exchequer'
p306
I320
sS'usurer'
p307
I321
sS'their'
p308
I2720
sS'top'
p309
I322
sS'hawks'
p310
I323
sS'millioned'
p311
I324
sS'master'
p312
I325
sS'too'
p313
I326
sS'dwell'
p314
I327
sS'bitter'
p315
I328
sS'feathers'
p316
I331
sS'griefs'
p317
I332
sS'took'
p318
I333
sS'wisdom'
p319
I334
sS'wardrobe'
p320
I335
sS"youth's"
p321
I336
sS'character'
p322
I337
sS'begins'
p323
I338
sS'distance'
p324
I339
sS'coward'
p325
I341
sS"mother's"
p326
I342
sS'bitterness'
p327
I343
sS'idly'
p328
I344
sS'matter'
p329
I345
sS'idle'
p330
I346
sS'inheritors'
p331
I71
sS'flame'
p332
I348
sS'speaking'
p333
I1153
sS'deserving'
p334
I350
sS'knights'
p335
I352
sS'prone'
p336
I521
sS'powers'
p337
I354
sS'swift-footed'
p338
I355
sS'fashion'
p339
I356
sS'sees'
p340
I357
sS'gaudy'
p341
I1155
sS"mind's"
p342
I359
sS'modern'
p343
I360
sS'mind'
p344
I361
sS'mine'
p345
I362
sS'loathsome'
p346
I2224
sS'manner'
p347
I364
sS'bewailed'
p348
I366
sS"deserv'st"
p349
I367
sS'churl'
p350
I368
sS'seem'
p351
I369
sS'seek'
p352
I370
sS'tells'
p353
I371
sS'contents'
p354
I372
sS'praising'
p355
I373
sS'strength'
p356
I374
sS'snow'
p357
I376
sS'chest'
p358
I378
sS'subjects'
p359
I379
sS'laughed'
p360
I380
sS'pilgrimage'
p361
I381
sS'rider'
p362
I382
sS'maiden'
p363
I384
sS'though'
p364
I385
sS'object'
p365
I386
sS'dial'
p366
I387
sS'dulling'
p367
I389
sS'errors'
p368
I390
sS'disarmed'
p369
I392
sS'grave'
p370
I393
sS'shalt'
p371
I394
sS'constancy'
p372
I395
sS'foist'
p373
I166
sS'flow'
p374
I397
sS'breathes'
p375
I398
sS'spend'
p376
I2233
sS'points'
p377
I400
sS'breathed'
p378
I401
sS'sum'
p379
I1686
sS'fitted'
p380
I403
sS'reserve'
p381
I404
sS'saying'
p382
I1242
sS'bait'
p383
I407
sS'his'
p384
I2561
sS'enjoyer'
p385
I409
sS'ending'
p386
I410
sS'showing'
p387
I3043
sS'poison'
p388
I411
sS'earth'
p389
I412
sS'bail'
p390
I413
sS'enjoyed'
p391
I414
sS'touches'
p392
I416
sS'busy'
p393
I1213
sS'proposed'
p394
I418
sS'spite'
p395
I419
sS"woman's"
p396
I1918
sS'spites'
p397
I2732
sS'cupid'
p398
I421
sS'bliss'
p399
I422
sS"stick'st"
p400
I1170
sS'rich'
p401
I424
sS'pursuing'
p402
I425
sS'mend'
p403
I426
sS"'thou"
p404
I427
sS'soundless'
p405
I2734
sS'borrowed'
p406
I428
sS'do'
p407
I429
sS'blenches'
p408
I430
sS'forsworn'
p409
I431
sS'stop'
p410
I433
sS'perceive'
p411
I434
sS'leisure'
p412
I435
sS'raiment'
p413
I436
sS'gored'
p414
I437
sS'bootless'
p415
I438
sS'despite'
p416
I440
sS'report'
p417
I441
sS'saturn'
p418
I442
sS'seemly'
p419
I443
sS'runs'
p420
I444
sS'bar'
p421
I446
sS"o'er"
p422
I2739
sS'thrusts'
p423
I449
sS'public'
p424
I1693
sS'twice'
p425
I451
sS'eyelids'
p426
I452
sS'esteeming'
p427
I453
sS'hasten'
p428
I454
sS'steal'
p429
I455
sS'thanks'
p430
I634
sS'unprovident'
p431
I457
sS'penance'
p432
I458
sS"wond'ring"
p433
I459
sS'unrespected'
p434
I460
sS'fair'
p435
I461
sS'habit'
p436
I462
sS'imitate'
p437
I463
sS'proclaims'
p438
I464
sS'depends'
p439
I465
sS'corrupt'
p440
I466
sS'best'
p441
I467
sS'subject'
p442
I468
sS'said'
p443
I469
sS'temptation'
p444
I470
sS"bett'ring"
p445
I471
sS'away'
p446
I472
sS'sail'
p447
I473
sS'bier'
p448
I474
sS'injuries'
p449
I2239
sS'wilful-slow'
p450
I476
sS'mud'
p451
I477
sS'score'
p452
I478
sS'finger'
p453
I479
sS'pebbled'
p454
I480
sS'scorn'
p455
I481
sS'drawn'
p456
I482
sS'enlighten'
p457
I483
sS'preserve'
p458
I484
sS'warrior'
p459
I485
sS'we'
p460
I486
sS'men'
p461
I487
sS'terms'
p462
I488
sS'parallels'
p463
I489
sS'nature'
p464
I490
sS'lover'
p465
I2747
sS'weak'
p466
I491
sS'ignorance'
p467
I492
sS'religious'
p468
I1627
sS'authorizing'
p469
I493
sS'disdaineth'
p470
I494
sS'wear'
p471
I495
sS'diest'
p472
I496
sS'news'
p473
I497
sS'debt'
p474
I498
sS'pity'
p475
I500
sS'foes'
p476
I501
sS'goddess'
p477
I502
sS'accident'
p478
I503
sS'disdain'
p479
I504
sS'fault'
p480
I505
sS'ill'
p481
I506
sS'against'
p482
I507
sS'brag'
p483
I508
sS'receives'
p484
I509
sS'faces'
p485
I510
sS'exceeds'
p486
I511
sS'expense'
p487
I512
sS'groans'
p488
I513
sS'asked'
p489
I514
sS'vexed'
p490
I516
sS'honouring'
p491
I517
sS'burthen'
p492
I518
sS'height'
p493
I519
sS'hers'
p494
I520
sS'springs'
p495
I522
sS'trust'
p496
I524
sS'heals'
p497
I525
sS'speak'
p498
I526
sS'petty'
p499
I1544
sS'unhappily'
p500
I528
sS'puts'
p501
I529
sS'hues'
p502
I2247
sS'time-bettering'
p503
I531
sS'three'
p504
I532
sS'been'
p505
I533
sS'particulars'
p506
I534
sS'twain'
p507
I535
sS'much'
p508
I536
sS'afloat'
p509
I2808
sS'interest'
p510
I537
sS'incertainty'
p511
I538
sS'privilege'
p512
I539
sS'lovely'
p513
I541
sS'thrice'
p514
I542
sS'idol'
p515
I543
sS'threw'
p516
I544
sS'life'
p517
I545
sS"brav'ry"
p518
I546
sS'easy'
p519
I547
sS'erred'
p520
I548
sS'drugs'
p521
I549
sS'pointing'
p522
I1612
sS'decrepit'
p523
I551
sS'dote'
p524
I552
sS'child'
p525
I553
sS'catch'
p526
I554
sS"ne'er-cloying"
p527
I3108
sS'doth'
p528
I555
sS'erst'
p529
I556
sS'gracious'
p530
I557
sS'play'
p531
I2279
sS'physician'
p532
I558
sS'east'
p533
I559
sS'gentle'
p534
I2762
sS'air'
p535
I560
sS'lesser'
p536
I561
sS'ugly'
p537
I562
sS'near'
p538
I563
sS'suppose'
p539
I564
sS'aid'
p540
I565
sS'voice'
p541
I566
sS'weakens'
p542
I567
sS'recured'
p543
I120
sS'is'
p544
I569
sS'it'
p545
I570
sS'defeated'
p546
I571
sS'shame'
p547
I572
sS'to-morrow'
p548
I573
sS'splendour'
p549
I574
sS'in'
p550
I576
sS'bounteous'
p551
I577
sS'if'
p552
I578
sS'grown'
p553
I579
sS'wooing'
p554
I580
sS'memorial'
p555
I581
sS'lacking'
p556
I2252
sS'cools'
p557
I583
sS'patent'
p558
I584
sS'suggest'
p559
I515
sS'make'
p560
I586
sS'wound'
p561
I587
sS"lords'"
p562
I588
sS'beside'
p563
I589
sS"th'"
p564
I591
sS'several'
p565
I592
sS'grows'
p566
I593
sS'entitled'
p567
I594
sS'lusty'
p568
I595
sS'fairly'
p569
I596
sS'thereof'
p570
I1860
sS'tops'
p571
I597
sS'rain'
p572
I598
sS'hand'
p573
I599
sS'delight'
p574
I600
sS'supposing'
p575
I601
sS'jealous'
p576
I315
sS'bequest'
p577
I603
sS'blamed'
p578
I604
sS'thoughts'
p579
I605
sS'censures'
p580
I606
sS'kept'
p581
I607
sS'thy'
p582
I608
sS'singleness'
p583
I609
sS'askance'
p584
I351
sS'possessed'
p585
I611
sS'humble'
p586
I612
sS'inherit'
p587
I613
sS'ocean'
p588
I614
sS'ragged'
p589
I615
sS'quest'
p590
I2258
sS'greatest'
p591
I617
sS'incapable'
p592
I618
sS'mother'
p593
I619
sS'hearts'
p594
I620
sS'the'
p595
I621
sS'yours'
p596
I623
sS'left'
p597
I624
sS'just'
p598
I626
sS'wasteful'
p599
I627
sS'yea'
p600
I628
sS"poet's"
p601
I629
sS'unfair'
p602
I630
sS'repose'
p603
I631
sS'verses'
p604
I632
sS'maketh'
p605
I633
sS'farther'
p606
I456
sS'swears'
p607
I635
sS'prognosticate'
p608
I636
sS'plight'
p609
I637
sS'yet'
p610
I638
sS'succeeding'
p611
I639
sS'vices'
p612
I640
sS'adding'
p613
I641
sS'strangle'
p614
I215
sS'dearer'
p615
I642
sS'compeers'
p616
I643
sS'had'
p617
I644
sS'about'
p618
I3088
sS'presagers'
p619
I646
sS'alchemy'
p620
I647
sS'belongs'
p621
I648
sS'beloved'
p622
I649
sS'prison'
p623
I650
sS'hap'
p624
I651
sS'pitiful'
p625
I652
sS'save'
p626
I653
sS'gave'
p627
I654
sS"others'"
p628
I655
sS'dignity'
p629
I656
sS'looks'
p630
I2615
sS'reviewest'
p631
I658
sS'birth'
p632
I659
sS'wanting'
p633
I660
sS'shadow'
p634
I661
sS'dreams'
p635
I662
sS"picture's"
p636
I663
sS'desire'
p637
I664
sS'brought'
p638
I665
sS"feed'st"
p639
I666
sS'gift'
p640
I667
sS'new-found'
p641
I668
sS'vilest'
p642
I669
sS'offices'
p643
I670
sS'night'
p644
I671
sS'hung'
p645
I672
sS'antique'
p646
I673
sS'right'
p647
I674
sS'old'
p648
I675
sS'flatter'
p649
I676
sS'all-oblivious'
p650
I2187
sS'deaf'
p651
I678
sS'short-numbered'
p652
I679
sS'dead'
p653
I680
sS'born'
p654
I681
sS'kind-hearted'
p655
I2293
sS'dear'
p656
I682
sS'altered'
p657
I683
sS'bore'
p658
I684
sS'creep'
p659
I686
sS'enemies'
p660
I687
sS'for'
p661
I688
sS"bosom's"
p662
I689
sS'rehearse'
p663
I690
sS'comments'
p664
I691
sS'foe'
p665
I692
sS'drudge'
p666
I855
sS'who'
p667
I2783
sS'bold'
p668
I694
sS'burn'
p669
I695
sS'translated'
p670
I2270
sS'shifting'
p671
I697
sS'losing'
p672
I698
sS'all-tyrant'
p673
I1006
sS'peep'
p674
I700
sS'disdains'
p675
I701
sS'shaken'
p676
I702
sS'takes'
p677
I1726
sS'theirs'
p678
I704
sS'coral'
p679
I705
sS'haply'
p680
I706
sS'frailer'
p681
I707
sS'o'
I708
sS'despair'
p682
I710
sS'cherish'
p683
I712
sS'commit'
p684
I713
sS'lacked'
p685
I714
sS'bath'
p686
I715
sS'raised'
p687
I716
sS'contains'
p688
I1728
sS'issueless'
p689
I2461
sS'presence'
p690
I718
sS'civil'
p691
I719
sS'pays'
p692
I720
sS'tract'
p693
I1222
sS'delighted'
p694
I1063
sS'son'
p695
I723
sS'down'
p696
I724
sS'lies'
p697
I725
sS'refined'
p698
I726
sS"pour'st"
p699
I727
sS'often'
p700
I2274
sS'strangely'
p701
I729
sS'despised'
p702
I730
sS'jealousy'
p703
I731
sS'sovereign'
p704
I732
sS'tame'
p705
I1140
sS'virgin'
p706
I734
sS'way'
p707
I735
sS'call'
p708
I736
sS'was'
p709
I737
sS'war'
p710
I738
sS'carcanet'
p711
I1177
sS'head'
p712
I740
sS'perfumes'
p713
I1190
sS'form'
p714
I742
sS'afresh'
p715
I2795
sS'crown'
p716
I744
sS'becoming'
p717
I745
sS'remover'
p718
I1218
sS'fore'
p719
I747
sS'heinous'
p720
I749
sS'garments'
p721
I1225
sS"travel's"
p722
I1227
sS'perfumed'
p723
I1233
sS'odours'
p724
I753
sS'astonished'
p725
I755
sS'blindness'
p726
I756
sS'removed'
p727
I757
sS'true'
p728
I758
sS'deepest'
p729
I759
sS'absent'
p730
I760
sS'lilies'
p731
I761
sS'captive'
p732
I762
sS'extremity'
p733
I763
sS"for't"
p734
I764
sS'bids'
p735
I765
sS'ruined'
p736
I1285
sS'crystal'
p737
I767
sS'unfathered'
p738
I768
sS'adore'
p739
I769
sS'lays'
p740
I1305
sS'engraft'
p741
I771
sS'bide'
p742
I772
sS'latch'
p743
I773
sS'trim'
p744
I774
sS'proved'
p745
I1334
sS'sight'
p746
I2283
sS'nought'
p747
I721
sS'sinful'
p748
I778
sS'steep-up'
p749
I779
sS"beauty's"
p750
I780
sS'huswife'
p751
I782
sS'sometime'
p752
I783
sS'subsist'
p753
I784
sS'shines'
p754
I785
sS'face'
p755
I786
sS'injurious'
p756
I787
sS'posting'
p757
I788
sS'willingly'
p758
I789
sS'pipe'
p759
I2802
sS'dying'
p760
I791
sS'no'
p761
I792
sS'excel'
p762
I793
sS"lov'st"
p763
I794
sS'actor'
p764
I795
sS'thriftless'
p765
I796
sS'despising'
p766
I797
sS'falsely'
p767
I798
sS'papers'
p768
I799
sS'tie'
p769
I800
sS'vanished'
p770
I801
sS'smell'
p771
I802
sS'eternity'
p772
I803
sS'picture'
p773
I804
sS'intend'
p774
I805
sS'phoenix'
p775
I806
sS'delivered'
p776
I2287
sS'dies'
p777
I808
sS'welcome'
p778
I809
sS'first-born'
p779
I810
sS'present-absent'
p780
I811
sS'journey'
p781
I812
sS'reign'
p782
I813
sS'rolling'
p783
I814
sS'pierced'
p784
I815
sS'died'
p785
I817
sS'wrackful'
p786
I818
sS'to-day'
p787
I819
sS'longer'
p788
I820
sS'blushing'
p789
I821
sS'daily'
p790
I822
sS'cheater'
p791
I823
sS'teeth'
p792
I824
sS'controlling'
p793
I1747
sS'buriest'
p794
I1235
sS'restored'
p795
I827
sS'songs'
p796
I828
sS'deface'
p797
I2806
sS'whoever'
p798
I829
sS"perceiv'st"
p799
I831
sS'souls'
p800
I832
sS'vermilion'
p801
I540
sS'engrafted'
p802
I834
sS'leads'
p803
I835
sS'continual'
p804
I836
sS'idolatry'
p805
I838
sS'abundant'
p806
I839
sS'retention'
p807
I840
sS'doom'
p808
I1751
sS'praises'
p809
I842
sS'april'
p810
I2902
sS'father'
p811
I843
sS'pen'
p812
I1574
sS'vex'
p813
I845
sS'charge'
p814
I846
sS'praised'
p815
I847
sS'suffered'
p816
I848
sS'furrows'
p817
I850
sS'me'
p818
I145
sS'strumpeted'
p819
I852
sS'string'
p820
I853
sS'advantage'
p821
I854
sS'denied'
p822
I693
sS'none'
p823
I1756
sS'votary'
p824
I857
sS'mourn'
p825
I858
sS'lest'
p826
I3004
sS'advised'
p827
I859
sS'locked'
p828
I146
sS'trouble'
p829
I861
sS'feeble'
p830
I862
sS'cool'
p831
I863
sS"soul's"
p832
I864
sS'perceived'
p833
I865
sS'clouds'
p834
I866
sS'level'
p835
I867
sS'did'
p836
I868
sS'die'
p837
I869
sS'dig'
p838
I870
sS'leave'
p839
I871
sS'excellence'
p840
I872
sS'quick'
p841
I874
sS'prevent'
p842
I875
sS'brave'
p843
I876
sS'says'
p844
I877
sS'fearing'
p845
I878
sS"offender's"
p846
I879
sS'double-vantage'
p847
I880
sS'sigh'
p848
I881
sS'wherefore'
p849
I882
sS'cost'
p850
I883
sS'run'
p851
I2298
sS'rough'
p852
I2815
sS'drinks'
p853
I2004
sS'hymn'
p854
I887
sS"fleet'st"
p855
I888
sS'curse'
p856
I889
sS'appear'
p857
I890
sS'assistance'
p858
I891
sS'contracted'
p859
I892
sS'favour'
p860
I893
sS'debate'
p861
I2817
sS'suspect'
p862
I895
sS'goes'
p863
I896
sS'view'
p864
I2855
sS'appeal'
p865
I898
sS'filled'
p866
I899
sS"april's"
p867
I900
sS'prescriptions'
p868
I901
sS'wail'
p869
I902
sS'heavily'
p870
I3009
sS'honour'
p871
I903
sS'clerk'
p872
I904
sS'water'
p873
I905
sS'entertain'
p874
I906
sS'alone'
p875
I907
sS'appears'
p876
I908
sS'change'
p877
I909
sS'blunter'
p878
I910
sS'boy'
p879
I911
sS'boast'
p880
I912
sS'my'
p881
I157
sS'guilty'
p882
I73
sS'bow'
p883
I915
sS'spheres'
p884
I916
sS'recounting'
p885
I918
sS'stained'
p886
I919
sS'love'
p887
I920
sS'humour'
p888
I921
sS'tempteth'
p889
I922
sS'bloody'
p890
I923
sS'withal'
p891
I924
sS'betraying'
p892
I925
sS'surmount'
p893
I926
sS'swallowed'
p894
I927
sS"suff'ring"
p895
I928
sS"o'erworn"
p896
I929
sS'wealth'
p897
I931
sS'prove'
p898
I932
sS'sake'
p899
I933
sS'confounded'
p900
I934
sS'angry'
p901
I935
sS'give'
p902
I936
sS'only'
p903
I937
sS'by'
p904
I2308
sS'wrongs'
p905
I939
sS'live'
p906
I940
sS'going'
p907
I1255
sS'prey'
p908
I942
sS'memory'
p909
I943
sS'scope'
p910
I944
sS'loving'
p911
I945
sS"love's"
p912
I946
sS'love-god'
p913
I3012
sS'riot'
p914
I948
sS'sessions'
p915
I949
sS'towers'
p916
I950
sS'share'
p917
I1769
sS'acceptable'
p918
I952
sS"strength's"
p919
I953
sS'fuel'
p920
I2829
sS'drown'
p921
I954
sS'everywhere'
p922
I955
sS'virtue'
p923
I956
sS'stain'
p924
I1258
sS'epitaph'
p925
I958
sS'fly'
p926
I959
sS'honey'
p927
I165
sS'sheds'
p928
I961
sS'car'
p929
I962
sS'soul'
p930
I963
sS'purge'
p931
I964
sS'hardest'
p932
I965
sS'sour'
p933
I966
sS'can'
p934
I967
sS'believed'
p935
I40
sS'making'
p936
I969
sS"prevent'st"
p937
I970
sS'deceased'
p938
I971
sS'breeds'
p939
I972
sS'heart'
p940
I973
sS'dedicated'
p941
I974
sS"servant's"
p942
I975
sS'respose'
p943
I168
sS'figure'
p944
I977
sS'predict'
p945
I978
sS'well-tuned'
p946
I1774
sS'distillation'
p947
I980
sS'heard'
p948
I981
sS'critic'
p949
I982
sS'purity'
p950
I983
sS'hides'
p951
I984
sS"mak'st"
p952
I985
sS'provoke'
p953
I986
sS'stole'
p954
I987
sS'churls'
p955
I989
sS'winter'
p956
I990
sS'allege'
p957
I1776
sS'divided'
p958
I992
sS'watching'
p959
I575
sS'vainly'
p960
I2610
sS'pine'
p961
I897
sS"lour'st"
p962
I996
sS'write'
p963
I997
sS'till'
p964
I998
sS'sword'
p965
I999
sS'husbandry'
p966
I1000
sS'sworn'
p967
I1001
sS"eye's"
p968
I1002
sS'map'
p969
I1003
sS'mar'
p970
I1004
sS'where-through'
p971
I1005
sS'coming'
p972
I1795
sS'may'
p973
I1007
sS'use'
p974
I2514
sS'spot'
p975
I1009
sS'needs'
p976
I1778
sS'mad'
p977
I1011
sS'date'
p978
I1012
sS'end'
p979
I1013
sS'hateth'
p980
I1014
sS'flourish'
p981
I1015
sS'grow'
p982
I1016
sS'man'
p983
I1017
sS'temperate'
p984
I1018
sS'neck'
p985
I375
sS'liquid'
p986
I1020
sS'candles'
p987
I1021
sS'needy'
p988
I1780
sS'so'
p989
I1023
sS'odour'
p990
I2188
sS'deceive'
p991
I1025
sS'thorns'
p992
I1026
sS'tall'
p993
I1027
sS'increase'
p994
I1028
sS'augurs'
p995
I2085
sS'serving'
p996
I1030
sS'receivest'
p997
I1031
sS'food'
p998
I1854
sS'indeed'
p999
I1032
sS'forfeit'
p1000
I1033
sS'wishing'
p1001
I1034
sS'years'
p1002
I1035
sS'course'
p1003
I1036
sS'pitch'
p1004
I1037
sS'cold'
p1005
I1038
sS'still'
p1006
I1039
sS'birds'
p1007
I1040
sS'trifle'
p1008
I1041
sS'limbs'
p1009
I1042
sS'derive'
p1010
I1043
sS'thank'
p1011
I1044
sS'acknowledge'
p1012
I1045
sS'muses'
p1013
I1046
sS'spur'
p1014
I2843
sS'torn'
p1015
I2915
sS'curls'
p1016
I1049
sS"offence's"
p1017
I2844
sS'maid'
p1018
I1050
sS'spacious'
p1019
I657
sS"play'st"
p1020
I1052
sS'policy'
p1021
I1053
sS"stol'n"
p1022
I1054
sS'main'
p1023
I1055
sS'style'
p1024
I1828
sS'conquest'
p1025
I2320
sS'correspondence'
p1026
I1057
sS'prime'
p1027
I1268
sS'truest'
p1028
I1059
sS'equipage'
p1029
I1060
sS'thereby'
p1030
I1061
sS'sooner'
p1031
I1062
sS'bound'
p1032
I722
sS'records'
p1033
I1064
sS'half'
p1034
I1065
sS'not'
p1035
I1066
sS'now'
p1036
I1067
sS'twilight'
p1037
I1068
sS'nor'
p1038
I1069
sS'wont'
p1039
I1070
sS'term'
p1040
I1071
sS'name'
p1041
I1072
sS'servant'
p1042
I1073
sS'drop'
p1043
I1075
sS'veins'
p1044
I1077
sS'seldom'
p1045
I1269
sS'surfeit'
p1046
I1079
sS"another's"
p1047
I1080
sS'receipt'
p1048
I1081
sS'richly'
p1049
I1082
sS'fever'
p1050
I1083
sS'farewell'
p1051
I1084
sS'seeting'
p1052
I1085
sS'year'
p1053
I1086
sS'hymns'
p1054
I1087
sS'living'
p1055
I1088
sS'shown'
p1056
I1089
sS'mouths'
p1057
I1091
sS'space'
p1058
I1092
sS'profit'
p1059
I1093
sS'abide'
p1060
I1095
sS'looking'
p1061
I1096
sS'boundless'
p1062
I1097
sS'grecian'
p1063
I1098
sS'receiving'
p1064
I1099
sS'correct'
p1065
I1100
sS'shows'
p1066
I1101
sS'worthiness'
p1067
I1102
sS'state'
p1068
I2878
sS'siege'
p1069
I1103
sS'cars'
p1070
I1104
sS'sweet-seasoned'
p1071
I1105
sS'spies'
p1072
I90
sS'wits'
p1073
I2772
sS'rebel'
p1074
I1107
sS'plea'
p1075
I1108
sS"feel'st"
p1076
I1109
sS'care'
p1077
I1110
sS'advance'
p1078
I1111
sS"age's"
p1079
I1112
sS'embassage'
p1080
I1113
sS"widow's"
p1081
I2801
sS'contented'
p1082
I1114
sS'kingdoms'
p1083
I167
sS'honest'
p1084
I1116
sS'motion'
p1085
I1117
sS'thing'
p1086
I1118
sS'thine'
p1087
I1119
sS'place'
p1088
I1120
sS'recompense'
p1089
I1121
sS'sufferance'
p1090
I1122
sS'widow'
p1091
I1123
sS'star'
p1092
I3179
sS'think'
p1093
I1125
sS'frequent'
p1094
I1126
sS'first'
p1095
I1127
sS'blind'
p1096
I1128
sS'mayst'
p1097
I1129
sS'faculty'
p1098
I1393
sS'one'
p1099
I235
sS'nativity'
p1100
I1132
sS'consecrate'
p1101
I1133
sS'fast'
p1102
I1531
sS'directly'
p1103
I1135
sS'habitation'
p1104
I1136
sS'carry'
p1105
I1137
sS'ill-used'
p1106
I1138
sS'sounds'
p1107
I1139
sS'fight'
p1108
I733
sS'open'
p1109
I1141
sS'affords'
p1110
I1142
sS'millions'
p1111
I1143
sS'interchange'
p1112
I1144
sS'little'
p1113
I1145
sS'checked'
p1114
I1146
sS'silent'
p1115
I1147
sS'breed'
p1116
I1148
sS'steep'
p1117
I2750
sS'fiery'
p1118
I1149
sS'bounty'
p1119
I1150
sS'white'
p1120
I1151
sS'utmost'
p1121
I2177
sS"tiger's"
p1122
I1152
sS'friend'
p1123
I349
sS'gives'
p1124
I1154
sS'hue'
p1125
I358
sS'eyes'
p1126
I1156
sS'pomp'
p1127
I1157
sS'grant'
p1128
I2200
sS'blazon'
p1129
I1158
sS'that'
p1130
I1159
sS'brains'
p1131
I1160
sS"men's"
p1132
I1161
sS'proving'
p1133
I1162
sS'alas'
p1134
I1164
sS'eyed'
p1135
I1165
sS'girded'
p1136
I1166
sS'copy'
p1137
I417
sS'than'
p1138
I1169
sS"here's"
p1139
I340
sS'wide'
p1140
I1171
sS'feeds'
p1141
I1499
sS'wert'
p1142
I1172
sS'require'
p1143
I1173
sS'folly'
p1144
I1174
sS'transferred'
p1145
I1175
sS'were'
p1146
I1176
sS'happy'
p1147
I739
sS'and'
p1148
I1178
sS'angel'
p1149
I1180
sS'slay'
p1150
I1181
sS'correction'
p1151
I1182
sS'confessed'
p1152
I1183
sS'turned'
p1153
I1184
sS'argument'
p1154
I1185
sS'jewels'
p1155
I1186
sS'voices'
p1156
I930
sS'entombed'
p1157
I1188
sS'worms'
p1158
I1617
sS'say'
p1159
I1189
sS'faring'
p1160
I741
sS'buried'
p1161
I1191
sS'foiled'
p1162
I1192
sS'anger'
p1163
I1193
sS'sap'
p1164
I1194
sS'pry'
p1165
I1195
sS'any'
p1166
I1196
sS'elsewhere'
p1167
I2340
sS'defaced'
p1168
I1199
sS'describe'
p1169
I2932
sS'mourners'
p1170
I1200
sS'aside'
p1171
I1201
sS'note'
p1172
I1202
sS'wretch'
p1173
I1203
sS'take'
p1174
I1204
sS'resembling'
p1175
I1205
sS'haste'
p1176
I200
sS'blunt'
p1177
I1207
sS'flattered'
p1178
I1208
sS'urge'
p1179
I1209
sS'begin'
p1180
I1210
sS'sure'
p1181
I1211
sS'pain'
p1182
I1212
sS'tallies'
p1183
I1214
sS'knew'
p1184
I1215
sS'clearer'
p1185
I1216
sS'paid'
p1186
I1217
sS'forgetful'
p1187
I746
sS'unkindness'
p1188
I1219
sS'staineth'
p1189
I1220
sS'flatterer'
p1190
I1221
sS'successive'
p1191
I1282
sS'winters'
p1192
I1224
sS'pricked'
p1193
I750
sS'proud'
p1194
I1226
sS'hungry'
p1195
I781
sS'wing'
p1196
I1228
sS"perfect'st"
p1197
I1229
sS'sunset'
p1198
I1230
sS'amis'
p1199
I1231
sS'glutton'
p1200
I1232
sS'hear'
p1201
I752
sS'sourest'
p1202
I1234
sS'laws'
p1203
I826
sS'shop'
p1204
I1236
sS'show'
p1205
I1237
sS'cheap'
p1206
I1238
sS'merit'
p1207
I1239
sS'trespass'
p1208
I1240
sS'bright'
p1209
I1241
sS'untold'
p1210
I1243
sS'tend'
p1211
I2877
sS'ground'
p1212
I1244
sS'slow'
p1213
I1245
sS'woos'
p1214
I1246
sS'unkind'
p1215
I1247
sS'stormy'
p1216
I1248
sS'title'
p1217
I1249
sS'treasure'
p1218
I1250
sS'robs'
p1219
I1251
sS'cloak'
p1220
I994
sS'crime'
p1221
I1253
sS'tears'
p1222
I1254
sS'wood'
p1223
I941
sS'black'
p1224
I1256
sS'nurse'
p1225
I1691
sS'partake'
p1226
I1257
sS'robe'
p1227
I957
sS'wilfully'
p1228
I1259
sS'hindmost'
p1229
I1260
sS'get'
p1230
I1261
sS"'tis"
p1231
I1262
sS'limbecks'
p1232
I1263
sS'truly'
p1233
I1264
sS'cannot'
p1234
I1265
sS'nearly'
p1235
I1266
sS'dye'
p1236
I1267
sS'closure'
p1237
I1058
sS'orphans'
p1238
I1078
sS'yield'
p1239
I1270
sS'morning'
p1240
I1271
sS'naked'
p1241
I1272
sS'miles'
p1242
I1273
sS'where'
p1243
I1274
sS'husband'
p1244
I1275
sS'signs'
p1245
I1823
sS'up'
p1246
I1278
sS"fortune's"
p1247
I1279
sS'asleep'
p1248
I1280
sS'expiate'
p1249
I1281
sS'seal'
p1250
I1283
sS'salutation'
p1251
I1284
sS'sport'
p1252
I1198
sS'purest'
p1253
I1287
sS'wonder'
p1254
I1288
sS'invoked'
p1255
I1289
sS'tongue-tied'
p1256
I1290
sS'compounds'
p1257
I1291
sS'crooked'
p1258
I1292
sS'review'
p1259
I1293
sS'dateless'
p1260
I2885
sS'ornament'
p1261
I1295
sS'glorious'
p1262
I2911
sS'behind'
p1263
I1296
sS'departest'
p1264
I1297
sS'complexion'
p1265
I1298
sS'sable'
p1266
I1299
sS'import'
p1267
I1300
sS'enjoys'
p1268
I1301
sS'presage'
p1269
I1302
sS'untainted'
p1270
I1303
sS'forsake'
p1271
I1304
sS'anew'
p1272
I770
sS'eye'
p1273
I1725
sS'merchandized'
p1274
I80
sS'pluck'
p1275
I1307
sS'blame'
p1276
I1308
sS'countenance'
p1277
I1310
sS'awards'
p1278
I1320
sS'profitless'
p1279
I1312
sS'come'
p1280
I1313
sS'grieved'
p1281
I1314
sS'dates'
p1282
I1315
sS'many'
p1283
I1316
sS'region'
p1284
I1317
sS'quiet'
p1285
I1318
sS'called'
p1286
I2363
sS'dwellers'
p1287
I1319
sS'reigns'
p1288
I1311
sS"sea's"
p1289
I1321
sS'duty'
p1290
I1322
sS'among'
p1291
I1323
sS'unthrifts'
p1292
I1324
sS'madness'
p1293
I1325
sS'afterwards'
p1294
I1430
sS'unthrifty'
p1295
I1327
sS'swerving'
p1296
I1329
sS'dispatch'
p1297
I1330
sS'eisel'
p1298
I2034
sS'slain'
p1299
I1331
sS'stretched'
p1300
I1332
sS'learning'
p1301
I1333
sS'disgrace'
p1302
I775
sS'famished'
p1303
I1837
sS'consider'
p1304
I1611
sS'boat'
p1305
I1336
sS'doctor-like'
p1306
I1337
sS'arts'
p1307
I1338
sS'self-doing'
p1308
I1339
sS'west'
p1309
I1340
sS'absence'
p1310
I1840
sS'mark'
p1311
I1342
sS'breath'
p1312
I1343
sS'subscribes'
p1313
I1344
sS"self's"
p1314
I1345
sS'beams'
p1315
I2579
sS'mars'
p1316
I1346
sS'informer'
p1317
I1347
sS'straying'
p1318
I1348
sS'robbed'
p1319
I1349
sS'thousand'
p1320
I1350
sS'blessing'
p1321
I1351
sS'nobler'
p1322
I1352
sS'figured'
p1323
I2895
sS'wake'
p1324
I1353
sS'external'
p1325
I1354
sS'frantic-mad'
p1326
I1355
sS'masonry'
p1327
I1356
sS'careful'
p1328
I1357
sS'deceivest'
p1329
I1358
sS'those'
p1330
I1359
sS'sound'
p1331
I377
sS'profane'
p1332
I1362
sS'rarities'
p1333
I2372
sS'these'
p1334
I1364
sS'sheaves'
p1335
I1365
sS'compile'
p1336
I1366
sS'cast'
p1337
I1367
sS'cure'
p1338
I622
sS'graven'
p1339
I1749
sS'cancelled'
p1340
I1369
sS'situation'
p1341
I1370
sS'endured'
p1342
I1371
sS'anchored'
p1343
I2634
sS'forbear'
p1344
I1848
sS'determination'
p1345
I3200
sS'endowed'
p1346
I1373
sS'brow'
p1347
I1374
sS'gluttoning'
p1348
I1375
sS'middle'
p1349
I1376
sS'limping'
p1350
I1377
sS'commanded'
p1351
I1754
sS'fame'
p1352
I1379
sS'different'
p1353
I1380
sS'harsh'
p1354
I1381
sS"tyrants'"
p1355
I1382
sS'strains'
p1356
I1383
sS'pay'
p1357
I1384
sS'same'
p1358
I1385
sS'check'
p1359
I1386
sS'shifts'
p1360
I1387
sS'enrich'
p1361
I227
sS'streams'
p1362
I2905
sS"'truth"
p1363
I1391
sS'wires'
p1364
I1392
sS'sickness'
p1365
I1394
sS'tyrannous'
p1366
I1395
sS'defy'
p1367
I1396
sS'weed'
p1368
I1397
sS'fruit'
p1369
I1398
sS'scorned'
p1370
I1399
sS'extern'
p1371
I1401
sS'changing'
p1372
I1402
sS'weep'
p1373
I1403
sS"slander's"
p1374
I1404
sS'vowed'
p1375
I1405
sS'vantage'
p1376
I1406
sS'dear-purchased'
p1377
I1407
sS'throned'
p1378
I1408
sS'vacant'
p1379
I1410
sS'costs'
p1380
I709
sS'relief'
p1381
I1412
sS'very'
p1382
I1645
sS'justify'
p1383
I388
sS'distills'
p1384
I1414
sS'summer'
p1385
I1415
sS'ransoms'
p1386
I1416
sS'being'
p1387
I1417
sS'when'
p1388
I1418
sS'weeds'
p1389
I1861
sS'shamefully'
p1390
I1420
sS'over-plus'
p1391
I523
sS'imprint'
p1392
I1422
sS'bareness'
p1393
I1423
sS'cease'
p1394
I1424
sS'disperse'
p1395
I1425
sS'aspect'
p1396
I1426
sS'touch'
p1397
I1427
sS'speed'
p1398
I1428
sS'guides'
p1399
I1429
sS'blow'
p1400
I1431
sS'renewed'
p1401
I406
sS'unwooed'
p1402
I1433
sS'thinking'
p1403
I1435
sS'rose'
p1404
I1436
sS'seems'
p1405
I1437
sS"summer's"
p1406
I1438
sS"summers'"
p1407
I1439
sS'verse'
p1408
I1440
sS'suppressed'
p1409
I1441
sS'worthier'
p1410
I1442
sS'dully'
p1411
I1444
sS'valley-fountain'
p1412
I1446
sS'struck'
p1413
I1447
sS'kingdom'
p1414
I1448
sS'frown'
p1415
I1449
sS'kills'
p1416
I1450
sS'read'
p1417
I1451
sS'offence'
p1418
I1452
sS'sums'
p1419
I1453
sS'dart'
p1420
I1454
sS'dark'
p1421
I602
sS'traffic'
p1422
I1456
sS'confined'
p1423
I1457
sS'world'
p1424
I1458
sS'reap'
p1425
I1459
sS'dare'
p1426
I1460
sS'acquainted'
p1427
I1461
sS'fortune'
p1428
I1462
sS'achieve'
p1429
I1463
sS'miracle'
p1430
I1464
sS'invention'
p1431
I1670
sS'benefit'
p1432
I1465
sS'beguiled'
p1433
I2920
sS'either'
p1434
I1467
sS'robbery'
p1435
I1468
sS'offenders'
p1436
I1469
sS'tombed'
p1437
I1471
sS'fulfil'
p1438
I1472
sS'falsehood'
p1439
I1473
sS'what'
p1440
I1680
sS'elements'
p1441
I2390
sS'respect'
p1442
I1707
sS'images'
p1443
I1475
sS'divine'
p1444
I1476
sS'thinks'
p1445
I1477
sS'gross'
p1446
I1478
sS'bones'
p1447
I2563
sS'courses'
p1448
I1479
sS'noon'
p1449
I1480
sS'besiege'
p1450
I2392
sS'stops'
p1451
I1482
sS'moon'
p1452
I1483
sS'forgoing'
p1453
I1484
sS'expressing'
p1454
I1485
sS'self-loving'
p1455
I1486
sS'knife'
p1456
I1487
sS'destroys'
p1457
I1488
sS'felt'
p1458
I711
sS'power'
p1459
I1490
sS'seconds'
p1460
I1491
sS'strained'
p1461
I1493
sS'olives'
p1462
I1494
sS'forgetfulness'
p1463
I1495
sS'broken'
p1464
I1496
sS"o'er-green"
p1465
I1497
sS'assemble'
p1466
I1498
sS'throw'
p1467
I1443
sS'renewest'
p1468
I2922
sS'on'
p1469
I1501
sS'stone'
p1470
I1502
sS'subdued'
p1471
I1503
sS'zealous'
p1472
I1504
sS'of'
p1473
I1505
sS'choirs'
p1474
I1506
sS'feil'
p1475
I1507
sS'greater'
p1476
I2633
sS'whence'
p1477
I1508
sS'fell'
p1478
I1509
sS'wolf'
p1479
I1510
sS'stand'
p1480
I1511
sS'act'
p1481
I1512
sS'mixed'
p1482
I1513
sS'bond'
p1483
I1445
sS'or'
p1484
I1515
sS'imitated'
p1485
I1516
sS'ladies'
p1486
I1390
sS'long-lived'
p1487
I1518
sS'burning'
p1488
I1519
sS'weighs'
p1489
I1878
sS'distempered'
p1490
I1521
sS'image'
p1491
I1522
sS'blessed'
p1492
I1523
sS'rising'
p1493
I1524
sS'lively'
p1494
I1525
sS'dreaming'
p1495
I1526
sS'blesses'
p1496
I1527
sS'your'
p1497
I1528
sS'buds'
p1498
I1529
sS"oaths'"
p1499
I1530
sS'prepare'
p1500
I1532
sS'there'
p1501
I1533
sS'disposed'
p1502
I1534
sS'desert'
p1503
I2398
sS'stealth'
p1504
I1536
sS"whate'er"
p1505
I2926
sS"'i"
p1506
I432
sS'stars'
p1507
I1539
sS'house'
p1508
I1882
sS'groan'
p1509
I1541
sS'enough'
p1510
I1542
sS"you'"
p1511
I1543
sS"dyer's"
p1512
I1545
sS'strikes'
p1513
I1546
sS'meetness'
p1514
I1547
sS'land'
p1515
I2399
sS'brain'
p1516
I2848
sS'with'
p1517
I1549
sS'faster'
p1518
I1626
sS'abused'
p1519
I1551
sS'applying'
p1520
I1552
sS'naming'
p1521
I3161
sS'rage'
p1522
I1553
sS'niggarding'
p1523
I1554
sS'self-same'
p1524
I1555
sS'impute'
p1525
I1556
sS'abuses'
p1526
I1557
sS'define'
p1527
I2930
sS'minded'
p1528
I1652
sS'strongly'
p1529
I1558
sS'gone'
p1530
I1559
sS'intents'
p1531
I1560
sS'palate'
p1532
I1223
sS'surly'
p1533
I1885
sS'taste'
p1534
I1563
sS'ah'
p1535
I1564
sS'accents'
p1536
I1565
sS'stealing'
p1537
I1566
sS'am'
p1538
I1567
sS'deep'
p1539
I1568
sS'an'
p1540
I1569
sS'toiled'
p1541
I1570
sS'excusing'
p1542
I1571
sS'deem'
p1543
I1572
sS'carved'
p1544
I1573
sS'walks'
p1545
I19
sS'ay'
p1546
I1575
sS'horse'
p1547
I1941
sS'spends'
p1548
I1576
sS'fill'
p1549
I1577
sS'again'
p1550
I1578
sS'proudly'
p1551
I1579
sS"judgment's"
p1552
I1580
sS'deserve'
p1553
I1581
sS"helen's"
p1554
I1583
sS'repent'
p1555
I1584
sS'orient'
p1556
I1888
sS'roses'
p1557
I1586
sS'you'
p1558
I1588
sS'abysm'
p1559
I1589
sS'poor'
p1560
I1590
sS'time'
p1561
I1591
sS'gifts'
p1562
I1592
sS'lovers'
p1563
I1890
sS'suited'
p1564
I1594
sS'brass'
p1565
I1595
sS'celestial'
p1566
I1561
sS'sequent'
p1567
I1596
sS'building'
p1568
I1597
sS'backward'
p1569
I1598
sS'remote'
p1570
I1599
sS'calls'
p1571
I1600
sS'wife'
p1572
I1601
sS"life's"
p1573
I1602
sS'dyed'
p1574
I1603
sS'extant'
p1575
I1715
sS'repay'
p1576
I1604
sS'hugely'
p1577
I1605
sS'treason'
p1578
I1606
sS'apparel'
p1579
I1607
sS'tanned'
p1580
I1608
sS'unset'
p1581
I1609
sS'maturity'
p1582
I2360
sS'all'
p1583
I1610
sS'forget'
p1584
I12
sS'vile'
p1585
I15
sS'suns'
p1586
I1613
sS'forbidden'
p1587
I1614
sS'lack'
p1588
I1615
sS'neigh'
p1589
I1616
sS'bosoms'
p1590
I590
sS'importune'
p1591
I1618
sS'seals'
p1592
I1619
sS'unrest'
p1593
I43
sS"'gainst"
p1594
I1621
sS'forged'
p1595
I1622
sS'welfare'
p1596
I1623
sS'follow'
p1597
I1624
sS'meditation'
p1598
I1625
sS'lace'
p1599
I1328
sS'children'
p1600
I69
sS'oaths'
p1601
I408
sS'wanton'
p1602
I1630
sS'homage'
p1603
I1631
sS'sparkling'
p1604
I1632
sS'spirit'
p1605
I439
sS"keep'st"
p1606
I1634
sS'to'
p1607
I1635
sS'painter'
p1608
I2942
sS'dressing'
p1609
I1637
sS"is't"
p1610
I2189
sS'health'
p1611
I1895
sS'hideous'
p1612
I1639
sS'subtleties'
p1613
I161
sS'case'
p1614
I1360
sS'woman'
p1615
I1642
sS'worse'
p1616
I170
sS'song'
p1617
I1644
sS'far'
p1618
I180
sS"'will"
p1619
I1646
sS'saved'
p1620
I1647
sS'coloured'
p1621
I1648
sS'oblation'
p1622
I1649
sS'medicine'
p1623
I1650
sS'worst'
p1624
I1651
sS'invent'
p1625
I833
sS'fall'
p1626
I1653
sS'hems'
p1627
I1654
sS'difference'
p1628
I1655
sS'vouchsafe'
p1629
I1656
sS'heaven'
p1630
I1657
sS'list'
p1631
I1658
sS'large'
p1632
I263
sS'sang'
p1633
I266
sS'plain'
p1634
I2948
sS'mistaking'
p1635
I286
sS"t'"
p1636
I1662
sS'wantonness'
p1637
I293
sS"i'll"
p1638
I1664
sS'quicker'
p1639
I1665
sS'ten'
p1640
I1666
sS'outworn'
p1641
I1667
sS'lascivious'
p1642
I2961
sS'past'
p1643
I1668
sS'winds'
p1644
I1669
sS'titles'
p1645
I347
sS'perspective'
p1646
I1671
sS'pass'
p1647
I1672
sS'harder'
p1648
I3094
sS'affable'
p1649
I1674
sS'befriends'
p1650
I1675
sS'crests'
p1651
I1676
sS'creatures'
p1652
I1677
sS'conscience'
p1653
I1678
sS'gazers'
p1654
I1679
sS'sue'
p1655
I297
sS'defence'
p1656
I1681
sS'darkness'
p1657
I1682
sS'sweetly'
p1658
I1683
sS'clock'
p1659
I1684
sS'sun'
p1660
I1685
sS'wrecked'
p1661
I402
sS'gardens'
p1662
I3202
sS'brief'
p1663
I1687
sS'prevailed'
p1664
I1688
sS'foison'
p1665
I1689
sS'unseen'
p1666
I3039
sS'ill-wresting'
p1667
I1690
sS'learned'
p1668
I754
sS'doting'
p1669
I450
sS'themselves'
p1670
I2522
sS'womb'
p1671
I1694
sS'quenched'
p1672
I1695
sS'full'
p1673
I1696
sS'ranged'
p1674
I1697
sS'love-suit'
p1675
I1698
sS'answers'
p1676
I1699
sS'revenge'
p1677
I1700
sS'hours'
p1678
I1701
sS'ensconce'
p1679
I1702
sS'excess'
p1680
I1703
sS'hast'
p1681
I1704
sS'depend'
p1682
I1705
sS'yellowed'
p1683
I527
sS'table'
p1684
I2921
sS'enmity'
p1685
I1708
sS'losses'
p1686
I1709
sS'dearths'
p1687
I1710
sS'qualify'
p1688
I1908
sS'within'
p1689
I2321
sS'action'
p1690
I1713
sS'steepy'
p1691
I1714
sS'sweetness'
p1692
I610
sS"day's"
p1693
I1716
sS'followed'
p1694
I1090
sS'impiety'
p1695
I1718
sS'tendered'
p1696
I1719
sS"lion's"
p1697
I1721
sS'estimate'
p1698
I1722
sS'unthrift'
p1699
I1723
sS'self-love'
p1700
I1724
sS'taker'
p1701
I699
sS'proceed'
p1702
I703
sS'cherubins'
p1703
I1727
sS'faint'
p1704
I717
sS'two'
p1705
I1729
sS'pearl'
p1706
I1730
sS'morn'
p1707
I1731
sS'soil'
p1708
I1732
sS'taken'
p1709
I1733
sS'injury'
p1710
I1734
sS'more'
p1711
I1735
sS'horses'
p1712
I1736
sS'wretched'
p1713
I1737
sS'unlearned'
p1714
I1738
sS'knows'
p1715
I1739
sS'delves'
p1716
I1740
sS"ow'st"
p1717
I1741
sS'foregone'
p1718
I1742
sS'spoils'
p1719
I1743
sS'excuse'
p1720
I1745
sS'lameness'
p1721
I1746
sS"dian's"
p1722
I825
sS'broke'
p1723
I1748
sS'varying'
p1724
I830
sS'known'
p1725
I1750
sS'mounted'
p1726
I841
sS'glad'
p1727
I1752
sS'cunning'
p1728
I1753
sS'lust'
p1729
I2789
sS'fleece'
p1730
I856
sS'hour'
p1731
I1757
sS'besides'
p1732
I1758
sS'remain'
p1733
I1759
sS'nine'
p1734
I1760
sS'learn'
p1735
I1761
sS'marble'
p1736
I1762
sS'history'
p1737
I1763
sS'beautiful'
p1738
I1764
sS'compare'
p1739
I1765
sS'attainted'
p1740
I1766
sS'visage'
p1741
I1767
sS'heat'
p1742
I751
sS'neglected'
p1743
I951
sS'conspire'
p1744
I1770
sS'thievish'
p1745
I1771
sS'well-seeing'
p1746
I1772
sS'numbers'
p1747
I1773
sS'sense'
p1748
I979
sS'phrase'
p1749
I160
sS'dress'
p1750
I991
sS'simple'
p1751
I3023
sS'huge'
p1752
I1777
sS'siren'
p1753
I1010
sS'early'
p1754
I2219
sS'drained'
p1755
I1779
sS'rather'
p1756
I1022
sS"'thus"
p1757
I1781
sS'comfort'
p1758
I1782
sS'chopt'
p1759
I1783
sS"adder's"
p1760
I1784
sS'glowing'
p1761
I1785
sS"heart's"
p1762
I1786
sS'sacred'
p1763
I1787
sS'strong'
p1764
I1706
sS'creature'
p1765
I1789
sS'simplicity'
p1766
I1790
sS'pleasure'
p1767
I1809
sS'rude'
p1768
I1791
sS'disgraced'
p1769
I1792
sS'mended'
p1770
I1793
sS'blood'
p1771
I1794
sS'waves'
p1772
I1130
sS'replete'
p1773
I1797
sS'a'
I1798
sS'refuse'
p1774
I1799
sS'short'
p1775
I1800
sS'resemble'
p1776
I1801
sS'shady'
p1777
I1802
sS'register'
p1778
I1803
sS'shore'
p1779
I1805
sS'shade'
p1780
I1806
sS'perjured'
p1781
I1807
sS'banks'
p1782
I1808
sS'shorn'
p1783
I1489
sS"gav'st"
p1784
I1810
sS'lasting'
p1785
I2981
sS'dream'
p1786
I1812
sS"that's"
p1787
I1813
sS'recite'
p1788
I1814
sS'played'
p1789
I568
sS'help'
p1790
I1815
sS'winged'
p1791
I1816
sS'flowers'
p1792
I1168
sS'stays'
p1793
I1817
sS'soon'
p1794
I1818
sS'disabled'
p1795
I1819
sS'held'
p1796
I1820
sS'paper'
p1797
I1821
sS'through'
p1798
I1822
sS'committed'
p1799
I1277
sS'hell'
p1800
I1824
sS'smiling'
p1801
I1825
sS'suffer'
p1802
I1826
sS'saucy'
p1803
I1827
sS'discloses'
p1804
I1306
sS'pent'
p1805
I1829
sS'render'
p1806
I1830
sS'termed'
p1807
I1831
sS'pray'
p1808
I1832
sS'inward'
p1809
I1833
sS'deeds'
p1810
I1834
sS'bosom'
p1811
I1835
sS'teeming'
p1812
I1836
sS'hounds'
p1813
I1335
sS'late'
p1814
I1838
sS'resort'
p1815
I1839
sS'dross'
p1816
I1341
sS'parts'
p1817
I2972
sS'threescore'
p1818
I1842
sS'ruining'
p1819
I1843
sS'self-willed'
p1820
I1844
sS'bereft'
p1821
I988
sS'alter'
p1822
I1846
sS'crawls'
p1823
I1847
sS'fool'
p1824
I1372
sS'good'
p1825
I1850
sS'return'
p1826
I1378
sS'freezings'
p1827
I2974
sS'seeking'
p1828
I1853
sS'motley'
p1829
I109
sS'distilled'
p1830
I1388
sS'ye'
p1831
I1855
sS'storm-beaten'
p1832
I1856
sS'speechless'
p1833
I1857
sS'walls'
p1834
I1858
sS'nymphs'
p1835
I1859
sS'rank'
p1836
I313
sS'compound'
p1837
I1419
sS'foot'
p1838
I1862
sS'hunted'
p1839
I1863
sS'antiquity'
p1840
I1931
sS"mistress'"
p1841
I1865
sS'complain'
p1842
I1866
sS'likeness'
p1843
I1867
sS'imprisoned'
p1844
I1868
sS'always'
p1845
I1870
sS'truths'
p1846
I1871
sS'eloquence'
p1847
I1872
sS'ashes'
p1848
I391
sS'stopped'
p1849
I1874
sS'blest'
p1850
I1492
sS'found'
p1851
I1876
sS'heavy'
p1852
I1877
sS"put'st"
p1853
I1520
sS'proud-pied'
p1854
I1879
sS'bends'
p1855
I1880
sS'weight'
p1856
I1881
sS'sullied'
p1857
I2357
sS'jaws'
p1858
I1540
sS'hard'
p1859
I1883
sS'oppressed'
p1860
I1884
sS'fist'
p1861
I1562
sS"nature's"
p1862
I1886
sS'beyond'
p1863
I1887
sS'incertainties'
p1864
I1585
sS'travels'
p1865
I1889
sS'flower'
p1866
I1593
sS'missed'
p1867
I1891
sS'since'
p1868
I1892
sS'publish'
p1869
I1893
sS'nurseth'
p1870
I1638
sS'hill'
p1871
I1896
sS'print'
p1872
I1897
sS'darling'
p1873
I1898
sS'issue'
p1874
I1899
sS'sympathized'
p1875
I1900
sS'stewards'
p1876
I1901
sS'boldness'
p1877
I1902
sS'belied'
p1878
I1903
sS'commits'
p1879
I1904
sS'fore-bemoaned'
p1880
I1905
sS'forgive'
p1881
I1906
sS'pleasant'
p1882
I1907
sS'reason'
p1883
I1711
sS'base'
p1884
I1909
sS'impeached'
p1885
I1910
sS'put'
p1886
I1911
sS'teach'
p1887
I1912
sS'reproach'
p1888
I1913
sS"excuse'"
p1889
I2401
sS"know'st"
p1890
I1914
sS'nightly'
p1891
I2986
sS'owners'
p1892
I1916
sS'service'
p1893
I1917
sS'needing'
p1894
I244
sS'rack'
p1895
I2454
sS'sicken'
p1896
I1920
sS'corrupting'
p1897
I1923
sS'feed'
p1898
I1924
sS'gazed'
p1899
I1925
sS'seeming'
p1900
I1926
sS'forwards'
p1901
I1927
sS'blush'
p1902
I1928
sS'feel'
p1903
I1929
sS'number'
p1904
I1930
sS'breathers'
p1905
I1864
sS'elder'
p1906
I1932
sS'enlarged'
p1907
I1933
sS'revolution'
p1908
I1934
sS'done'
p1909
I1935
sS'defects'
p1910
I1936
sS'stage'
p1911
I3087
sS'rents'
p1912
I1939
sS'moan'
p1913
I1940
sS'guess'
p1914
I685
sS'guest'
p1915
I1942
sS'rondure'
p1916
I1944
sS'twenty'
p1917
I1922
sS'slanderers'
p1918
I1946
sS'least'
p1919
I1947
sS'hallowed'
p1920
I1948
sS'steals'
p1921
I2990
sS'passed'
p1922
I1950
sS'essays'
p1923
I1951
sS'hundred'
p1924
I1952
sS'store'
p1925
I1953
sS'lease'
p1926
I1954
sS'youngly'
p1927
I1955
sS'selling'
p1928
I1956
sS'imperfect'
p1929
I1957
sS'saint'
p1930
I1958
sS'longing'
p1931
I1959
sS'adonis'
p1932
I1960
sS'part'
p1933
I1961
sS'bower'
p1934
I1962
sS'believe'
p1935
I1963
sS"what's"
p1936
I3176
sS'grace'
p1937
I1964
sS'king'
p1938
I1965
sS'kind'
p1939
I1966
sS'grew'
p1940
I1967
sS'mortality'
p1941
I1968
sS'vial'
p1942
I1969
sS'double'
p1943
I1970
sS'anticipate'
p1944
I1971
sS'mortgaged'
p1945
I1972
sS'grey'
p1946
I1973
sS'shallowest'
p1947
I1974
sS'youth'
p1948
I1975
sS'autumn'
p1949
I1976
sS'determined'
p1950
I1977
sS'contrary'
p1951
I1978
sS'supposed'
p1952
I1979
sS'toward'
p1953
I1980
sS'restful'
p1954
I1981
sS'tongues'
p1955
I1983
sS'trifles'
p1956
I1984
sS'ages'
p1957
I1985
sS'defect'
p1958
I1986
sS'livery'
p1959
I1987
sS'new-fired'
p1960
I1988
sS'alike'
p1961
I1989
sS'showers'
p1962
I1990
sS'travail'
p1963
I1991
sS'fading'
p1964
I1992
sS'sensual'
p1965
I1993
sS'sell'
p1966
I1994
sS'mountain'
p1967
I1995
sS'nights'
p1968
I1996
sS'built'
p1969
I1997
sS'dancing'
p1970
I1998
sS'self'
p1971
I1999
sS"hate's"
p1972
I2954
sS'onset'
p1973
I2000
sS'without'
p1974
I1411
sS'lip'
p1975
I2002
sS'finding'
p1976
I2003
sS'chary'
p1977
I2005
sS"art's"
p1978
I2006
sS"'had"
p1979
I2007
sS'towards'
p1980
I2008
sS'death'
p1981
I2122
sS'reckon'
p1982
I2009
sS'sets'
p1983
I3001
sS'unswayed'
p1984
I2011
sS'unused'
p1985
I2012
sS'most'
p1986
I2013
sS'blunting'
p1987
I2015
sS'nothing'
p1988
I2017
sS'seasons'
p1989
I2018
sS"o'ercharged"
p1990
I2019
sS'wastes'
p1991
I2020
sS'measured'
p1992
I2021
sS'stands'
p1993
I2022
sS'chronicle'
p1994
I2023
sS'feasting'
p1995
I2024
sS'windows'
p1996
I2025
sS'arising'
p1997
I3002
sS'clear'
p1998
I2027
sS'sometimes'
p1999
I2028
sS'cover'
p2000
I2029
sS'unbred'
p2001
I2030
sS'reeleth'
p2002
I2031
sS'barren'
p2003
I2032
sS'convertest'
p2004
I2033
sS'charged'
p2005
I1413
sS'lying'
p2006
I2035
sS'stones'
p2007
I2036
sS'self-substantial'
p2008
I2037
sS'despise'
p2009
I2038
sS'gold'
p2010
I2039
sS'gates'
p2011
I2040
sS"y'have"
p2012
I2041
sS'wailing'
p2013
I2042
sS'fond'
p2014
I2043
sS'page'
p2015
I3054
sS'rhymers'
p2016
I2045
sS'wasted'
p2017
I2046
sS'registers'
p2018
I2047
sS'fine'
p2019
I2048
sS'find'
p2020
I2049
sS'viewest'
p2021
I2050
sS'sportive'
p2022
I2051
sS'gilded'
p2023
I2052
sS'aggravate'
p2024
I383
sS'shouldst'
p2025
I2054
sS'deserts'
p2026
I2055
sS'unperfect'
p2027
I2192
sS'ruin'
p2028
I2056
sS'hope'
p2029
I2832
sS'rotten'
p2030
I2470
sS'vision'
p2031
I2059
sS'tempests'
p2032
I499
sS'beauteous'
p2033
I2061
sS'fiend'
p2034
I2062
sS"painter's"
p2035
I2063
sS'niggard'
p2036
I2064
sS'dust'
p2037
I2988
sS'gains'
p2038
I2065
sS'mercy'
p2039
I2066
sS'compiled'
p2040
I2067
sS'express'
p2041
I2068
sS'impregnable'
p2042
I2069
sS'trees'
p2043
I2070
sS'remedy'
p2044
I2071
sS'hid'
p2045
I2072
sS'rest'
p2046
I1421
sS'compass'
p2047
I2074
sS'swart-complexioned'
p2048
I2075
sS'sepulchres'
p2049
I2076
sS"send'st"
p2050
I2077
sS'him'
p2051
I2078
sS'distraction'
p2052
I2079
sS'grievances'
p2053
I2080
sS'pleasures'
p2054
I2081
sS'cry'
p2055
I2082
sS'impanelled'
p2056
I2083
sS'remove'
p2057
I2084
sS'common'
p2058
I2086
sS'kill'
p2059
I2087
sS'poisoned'
p2060
I2088
sS'wrongfully'
p2061
I2089
sS'bars'
p2062
I2090
sS'set'
p2063
I2091
sS'art'
p2064
I2092
sS'declines'
p2065
I2093
sS'jade'
p2066
I2094
sS"o'ersways"
p2067
I2095
sS'see'
p2068
I2096
sS'bare'
p2069
I2097
sS'are'
p2070
I2098
sS'sea'
p2071
I2099
sS'tender'
p2072
I1663
sS'bark'
p2073
I2101
sS'outward'
p2074
I2102
sS'spirits'
p2075
I2103
sS'forlorn'
p2076
I2104
sS'please'
p2077
I2105
sS'drooping'
p2078
I2106
sS'unions'
p2079
I2107
sS'won'
p2080
I2108
sS'gentlest'
p2081
I2109
sS'affairs'
p2082
I2110
sS'woe'
p2083
I2111
sS'guilt'
p2084
I2112
sS'burned'
p2085
I873
sS'monsters'
p2086
I1796
sS'thrive'
p2087
I2115
sS'endure'
p2088
I2116
sS'knowing'
p2089
I2117
sS'creating'
p2090
I2118
sS'sold'
p2091
I2119
sS'sole'
p2092
I2120
sS'vanishing'
p2093
I2121
sS'blot'
p2094
I1432
sS'alters'
p2095
I2123
sS'both'
p2096
I2124
sS'feeling'
p2097
I2125
sS'last'
p2098
I2126
sS'grounded'
p2099
I2127
sS'desired'
p2100
I2128
sS'thou'
p2101
I2129
sS'anon'
p2102
I2130
sS'forgotten'
p2103
I2131
sS'let'
p2104
I2480
sS'possesseth'
p2105
I2133
sS'afar'
p2106
I1982
sS'finds'
p2107
I2135
sS'league'
p2108
I2935
sS'usest'
p2109
I2136
sS'flies'
p2110
I2137
sS'onward'
p2111
I3020
sS'majesty'
p2112
I2138
sS'point'
p2113
I2139
sS'reasons'
p2114
I2140
sS'sweet'
p2115
I2141
sS'loan'
p2116
I2142
sS'manners'
p2117
I2143
sS'except'
p2118
I2144
sS'key'
p2119
I2890
sS'simply'
p2120
I1712
sS'worthless'
p2121
I2146
sS'devil'
p2122
I2147
sS'unworthiness'
p2123
I2148
sS"'scaped"
p2124
I2149
sS'stamp'
p2125
I2151
sS'devouring'
p2126
I2152
sS'acceptance'
p2127
I2153
sS'satire'
p2128
I2154
sS'due'
p2129
I2155
sS'miser'
p2130
I2485
sS'whom'
p2131
I2157
sS'secret'
p2132
I2158
sS"wood's"
p2133
I2159
sS'wait'
p2134
I2160
sS'delights'
p2135
I2161
sS'rosy'
p2136
I2162
sS'firm'
p2137
I2163
sS'lived'
p2138
I2164
sS'partly'
p2139
I2165
sS'gay'
p2140
I2166
sS"'twixt"
p2141
I2167
sS'fire'
p2142
I2168
sS"dial's"
p2143
I2169
sS'overthrow'
p2144
I2170
sS'great'
p2145
I2487
sS'else'
p2146
I2172
sS'awake'
p2147
I52
sS'mournful'
p2148
I2175
sS'plants'
p2149
I2176
sS'uncertain'
p2150
I1074
sS'look'
p2151
I2178
sS'straight'
p2152
I2179
sS'admire'
p2153
I2180
sS'pace'
p2154
I2181
sS'while'
p2155
I2182
sS'rigour'
p2156
I2183
sS"intermixed'"
p2157
I2184
sS'kissing'
p2158
I2185
sS'eclipses'
p2159
I2186
sS'youthful'
p2160
I2317
sS'costly'
p2161
I114
sS'wherever'
p2162
I914
sS'herein'
p2163
I135
sS'confound'
p2164
I2190
sS'vow'
p2165
I2191
sS'lodged'
p2166
I159
sS'owes'
p2167
I2193
sS'seen'
p2168
I2194
sS'rid'
p2169
I2195
sS'seest'
p2170
I2196
sS'fairer'
p2171
I2197
sS'chase'
p2172
I2198
sS'twofold'
p2173
I2199
sS'trial'
p2174
I1768
sS'lengths'
p2175
I2201
sS'bristly'
p2176
I2202
sS'belong'
p2177
I2203
sS'engrossed'
p2178
I2204
sS'wherein'
p2179
I2205
sS'discourse'
p2180
I2206
sS'esteemed'
p2181
I2207
sS'ruth'
p2182
I2208
sS'miscalled'
p2183
I2861
sS'composition'
p2184
I2209
sS'covetous'
p2185
I2210
sS'used'
p2186
I2211
sS'forced'
p2187
I1029
sS'mow'
p2188
I2213
sS'moment'
p2189
I2214
sS'flown'
p2190
I2215
sS'moving'
p2191
I2216
sS'user'
p2192
I306
sS'wretchcd'
p2193
I2218
sS'broils'
p2194
I330
sS'task'
p2195
I2220
sS'older'
p2196
I2221
sS'accumulate'
p2197
I2222
sS'try'
p2198
I2449
sS'cheek'
p2199
I2223
sS'spent'
p2200
I363
sS"frown'st"
p2201
I2225
sS'grind'
p2202
I2226
sS'morrow'
p2203
I2227
sS'cheer'
p2204
I2228
sS'edge'
p2205
I2229
sS'starved'
p2206
I2230
sS'clears'
p2207
I1361
sS'stelled'
p2208
I2232
sS'steeled'
p2209
I399
sS'things'
p2210
I585
sS'plagues'
p2211
I2234
sS'bearer'
p2212
I415
sS'salve'
p2213
I2236
sS'shape'
p2214
I2237
sS'madding'
p2215
I475
sS'unto'
p2216
I2240
sS'gems'
p2217
I2241
sS'tables'
p2218
I2242
sS'cut'
p2219
I2243
sS'cup'
p2220
I2244
sS'hated'
p2221
I2245
sS'decayed'
p2222
I2246
sS'sire'
p2223
I2501
sS'eager'
p2224
I530
sS'lifts'
p2225
I2001
sS'crying'
p2226
I2248
sS"either's"
p2227
I2249
sS"tongue's"
p2228
I2250
sS'march'
p2229
I2251
sS'awakes'
p2230
I582
sS'big'
p2231
I2253
sS'bid'
p2232
I2254
sS'advocate'
p2233
I2255
sS'judgement'
p2234
I2256
sS'redeem'
p2235
I2257
sS'fulness'
p2236
I616
sS'private'
p2237
I2505
sS'dearly'
p2238
I2260
sS'sharpened'
p2239
I2262
sS'like'
p2240
I3044
sS'outright'
p2241
I2264
sS'lost'
p2242
I3045
sS'follows'
p2243
I2266
sS"hate'"
p2244
I2267
sS'strife'
p2245
I2268
sS'shapes'
p2246
I2269
sS'divining'
p2247
I696
sS'tribes'
p2248
I2271
sS'witness'
p2249
I3172
sS'foolish'
p2250
I2272
sS'canst'
p2251
I2273
sS'methods'
p2252
I728
sS'wombs'
p2253
I2275
sS'spring'
p2254
I2276
sS'creation'
p2255
I2277
sS'some'
p2256
I2278
sS'back'
p2257
I748
sS'sighs'
p2258
I2280
sS'lips'
p2259
I2281
sS'added'
p2260
I2282
sS'ornaments'
p2261
I776
sS'curious'
p2262
I2284
sS'pale'
p2263
I2285
sS'sauces'
p2264
I2286
sS'savage'
p2265
I1673
sS'acquaintance'
p2266
I2288
sS'fairing'
p2267
I2289
sS'shall'
p2268
I2290
sS'oblivion'
p2269
I2291
sS'balmy'
p2270
I2292
sS'quickly'
p2271
I3110
sS'confounds'
p2272
I844
sS'barrenly'
p2273
I2294
sS'lark'
p2274
I2295
sS'be'
p2275
I2297
sS'patient'
p2276
I884
sS'remembered'
p2277
I2299
sS'word'
p2278
I860
sS'clay'
p2279
I2300
sS"shadow's"
p2280
I2301
sS"'this"
p2281
I2302
sS'aloft'
p2282
I2303
sS'rent'
p2283
I2304
sS'cheered'
p2284
I2515
sS'concealed'
p2285
I2306
sS'nerves'
p2286
I3052
sS"batt'ring"
p2287
I938
sS'shine'
p2288
I2309
sS'faith'
p2289
I2310
sS'works'
p2290
I3053
sS'deserved'
p2291
I2311
sS'wrinkles'
p2292
I2312
sS'deserves'
p2293
I2313
sS'ambush'
p2294
I2314
sS'together'
p2295
I1945
sS'hatred'
p2296
I2315
sS'behaviour'
p2297
I2907
sS'tenants'
p2298
I2316
sS'silence'
p2299
I1024
sS'misplaced'
p2300
I2318
sS'seeing'
p2301
I816
sS'into'
p2302
I1056
sS'amazeth'
p2303
I2016
sS'exceed'
p2304
I3058
sS'debateth'
p2305
I2323
sS'services'
p2306
I2324
sS'inconstant'
p2307
I3059
sS'remembrance'
p2308
I2326
sS'lesson'
p2309
I2327
sS"sharp'st"
p2310
I2328
sS'sad'
p2311
I1187
sS'featureless'
p2312
I2330
sS'few'
p2313
I2520
sS'spending'
p2314
I2331
sS'question'
p2315
I2332
sS'long'
p2316
I1134
sS'whereto'
p2317
I2334
sS'suit'
p2318
I2336
sS'pictured'
p2319
I3196
sS'translate'
p2320
I2337
sS'himself'
p2321
I2338
sS'arise'
p2322
I2339
sS'jacks'
p2323
I1197
sS'governs'
p2324
I2341
sS'graciously'
p2325
I2342
sS'healthful'
p2326
I2343
sS'frost'
p2327
I2344
sS'vowing'
p2328
I2345
sS'alive'
p2329
I3062
sS'newer'
p2330
I2347
sS'filed'
p2331
I2348
sS'hopes'
p2332
I2349
sS'line'
p2333
I2350
sS'dull'
p2334
I2351
sS'usury'
p2335
I2352
sS'directed'
p2336
I2353
sS'bevel'
p2337
I2354
sS'immured'
p2338
I2355
sS"lover's"
p2339
I2356
sS"monarch's"
p2340
I1276
sS'us'
p2341
I2358
sS'lords'
p2342
I2359
sS'politic'
p2343
I105
sS'slander'
p2344
I2361
sS'cheeks'
p2345
I2526
sS'proves'
p2346
I1368
sS'consumed'
p2347
I396
sS'vassalage'
p2348
I2364
sS'possession'
p2349
I2527
sS'constant'
p2350
I2367
sS'goodly'
p2351
I2369
sS'allayed'
p2352
I2370
sS'influence'
p2353
I2371
sS'scarlet'
p2354
I1363
sS'single'
p2355
I2373
sS'warning'
p2356
I1124
sS'babe'
p2357
I2529
sS'surmise'
p2358
I2376
sS'rainy'
p2359
I2377
sS'sullen'
p2360
I2378
sS'sunken'
p2361
I2379
sS'impediments'
p2362
I2380
sS'peace'
p2363
I2381
sS'fears'
p2364
I2382
sS'dimmed'
p2365
I2383
sS'charactered'
p2366
I1434
sS'confine'
p2367
I1094
sS'mock'
p2368
I2387
sS'perusal'
p2369
I2388
sS'draw'
p2370
I2389
sS'aright'
p2371
I2238
sS'clean'
p2372
I2391
sS'lend'
p2373
I1481
sS'breasts'
p2374
I2393
sS'nay'
p2375
I2386
sS'rise'
p2376
I2394
sS'weigh'
p2377
I2395
sS'makeless'
p2378
I2396
sS'wrinkle'
p2379
I2397
sS'sides'
p2380
I1535
sS'bases'
p2381
I2827
sS'suffers'
p2382
I1548
sS'happier'
p2383
I2400
sS'happies'
p2384
I1550
sS"spend'st"
p2385
I2402
sS'vice'
p2386
I2403
sS'age'
p2387
I2404
sS'wards'
p2388
I2405
sS'admiring'
p2389
I2406
sS'heats'
p2390
I2407
sS'came'
p2391
I2408
sS'fresh'
p2392
I2409
sS'marvel'
p2393
I2410
sS'having'
p2394
I2411
sS'once'
p2395
I2412
sS'wilfulness'
p2396
I2413
sS'discontent'
p2397
I2414
sS'highmost'
p2398
I2415
sS'tombs'
p2399
I2416
sS"deformed'st"
p2400
I2417
sS'alien'
p2401
I2418
sS'windy'
p2402
I2419
sS'gladly'
p2403
I2538
sS'amiss'
p2404
I365
sS"present'st"
p2405
I1804
sS'seemed'
p2406
I2423
sS'graves'
p2407
I2424
sS'tincture'
p2408
I2425
sS'uphold'
p2409
I2426
sS'reckoned'
p2410
I2427
sS'young'
p2411
I2428
sS'send'
p2412
I2429
sS'breach'
p2413
I1076
sS'pleasing'
p2414
I2431
sS'virtuous'
p2415
I2432
sS'over-partial'
p2416
I2433
sS'random'
p2417
I1409
sS'wished'
p2418
I2435
sS'torture'
p2419
I2436
sS"'now"
p2420
I2437
sS"'not"
p2421
I2438
sS'confounding'
p2422
I2439
sS'rhyme'
p2423
I2440
sS'languished'
p2424
I2441
sS'rebuked'
p2425
I2442
sS'scanted'
p2426
I2443
sS'accuse'
p2427
I2444
sS'telling'
p2428
I2445
sS'false-speaking'
p2429
I2446
sS'iniquity'
p2430
I2447
sS'queen'
p2431
I2434
sS"eve's"
p2432
I2450
sS'race'
p2433
I2451
sS'verdict'
p2434
I2452
sS'betwixt'
p2435
I2453
sS'noted'
p2436
I1919
sS"alt'ring"
p2437
I2455
sS'teachest'
p2438
I1131
sS'crow'
p2439
I2456
sS"work's"
p2440
I2457
sS'poets'
p2441
I3076
sS'waking'
p2442
I2459
sS'jump'
p2443
I2460
sS'ever-fixed'
p2444
I1582
sS'go'
p2445
I2421
sS'plead'
p2446
I2462
sS'decrees'
p2447
I2463
sS'pity-wanting'
p2448
I2464
sS'victor'
p2449
I2465
sS'giving'
p2450
I2466
sS'saw'
p2451
I2467
sS'expressed'
p2452
I2468
sS"man's"
p2453
I2469
sS'paying'
p2454
I1641
sS'waiting'
p2455
I2058
sS"seasons'"
p2456
I1538
sS'famoused'
p2457
I2532
sS'bird'
p2458
I2471
sS'body'
p2459
I2472
sS'melancholy'
p2460
I2473
sS'chose'
p2461
I2474
sS'gathered'
p2462
I2475
sS'sins'
p2463
I2476
sS'growing'
p2464
I968
sS'scythe'
p2465
I2478
sS'objects'
p2466
I2479
sS'poverty'
p2467
I2132
sS'separation'
p2468
I2481
sS'others'
p2469
I2482
sS'dissuade'
p2470
I2483
sS'sing'
p2471
I2484
sS'adulterate'
p2472
I2156
sS'extreme'
p2473
I2486
sS'convert'
p2474
I2171
sS'burthens'
p2475
I2488
sS'receive'
p2476
I2174
sS'until'
p2477
I766
sS'metre'
p2478
I2490
sS'leaving'
p2479
I2491
sS'survey'
p2480
I2492
sS'defeat'
p2481
I2493
sS'vaunt'
p2482
I2552
sS'makes'
p2483
I2495
sS'writes'
p2484
I2496
sS'composed'
p2485
I2497
sS'control'
p2486
I2553
sS'chaste'
p2487
I2499
sS'apple'
p2488
I2500
sS'admired'
p2489
I1894
sS'forbid'
p2490
I2502
sS'win'
p2491
I2503
sS"whoe'er"
p2492
I2504
sS'messengers'
p2493
I2259
sS'uprear'
p2494
I2506
sS'posterity'
p2495
I3083
sS'wit'
p2496
I2508
sS'decrease'
p2497
I2509
sS'scandal'
p2498
I2510
sS'cloud'
p2499
I2511
sS'desiring'
p2500
I2512
sS'fed'
p2501
I1008
sS'fee'
p2502
I2305
sS'from'
p2503
I2516
sS'remains'
p2504
I2517
sS'hammered'
p2505
I2518
sS'next'
p2506
I2519
sS'saith'
p2507
I329
sS'doubt'
p2508
I2521
sS'bonds'
p2509
I2448
sS'uneared'
p2510
I2713
sS"sun's"
p2511
I2524
sS'defendant'
p2512
I2525
sS'touched'
p2513
I423
sS'sort'
p2514
I2366
sS'pencil'
p2515
I2528
sS'assailed'
p2516
I2375
sS'pretty'
p2517
I2530
sS'becomes'
p2518
I2385
sS'freedom'
p2519
I3093
sS'heir'
p2520
I2533
sS"need'st"
p2521
I2534
sS'infection'
p2522
I2535
sS'fools'
p2523
I3041
sS'meant'
p2524
I2833
sS'insufficiency'
p2525
I2536
sS'tattered'
p2526
I2537
sS'special-blest'
p2527
I2420
sS'harvest'
p2528
I2539
sS'annoy'
p2529
I2540
sS'high'
p2530
I2559
sS'account'
p2531
I2542
sS'chide'
p2532
I2333
sS'this'
p2533
I2544
sS'ride'
p2534
I2545
sS'tresses'
p2535
I2685
sS'halt'
p2536
I2964
sS'crossed'
p2537
I2546
sS'praise'
p2538
I2547
sS'executor'
p2539
I2548
sS'meet'
p2540
I2549
sS'drops'
p2541
I2550
sS'befits'
p2542
I2551
sS'proof'
p2543
I2494
sS'thralled'
p2544
I2498
sS'dregs'
p2545
I2554
sS'enfeebled'
p2546
I2867
sS'bent'
p2547
I1869
sS'ushers'
p2548
I2557
sS'process'
p2549
I2558
sS"none'"
p2550
I2541
sS'salving'
p2551
I2543
sS'unswept'
p2552
I2555
sS'something'
p2553
I2562
sS'sought'
p2554
I2560
sS'purposed'
p2555
I2564
sS'paws'
p2556
I2565
sS'darkening'
p2557
I2566
sS'counterfeit'
p2558
I2567
sS'lamb'
p2559
I2568
sS'conceit'
p2560
I2489
sS'compounded'
p2561
I2571
sS'falls'
p2562
I2572
sS'sit'
p2563
I2573
sS"sickle's"
p2564
I2574
sS'purpose'
p2565
I2217
sS'holds'
p2566
I2575
sS'thrall'
p2567
I2576
sS'moods'
p2568
I2577
sS'blessings'
p2569
I3095
sS'slandering'
p2570
I2335
sS'mightst'
p2571
I2580
sS'forsaken'
p2572
I2581
sS'sin'
p2573
I2582
sS'watery'
p2574
I2583
sS'attend'
p2575
I2584
sS'watch'
p2576
I2585
sS'tied'
p2577
I302
sS'abuse'
p2578
I2587
sS'fits'
p2579
I2588
sS"worth's"
p2580
I2589
sS'tongue'
p2581
I3098
sS'physic'
p2582
I2591
sS'bankrupt'
p2583
I2592
sS"bear'st"
p2584
I1514
sS'untrimmed'
p2585
I2593
sS'bind'
p2586
I2368
sS'lame'
p2587
I2595
sS'lines'
p2588
I2596
sS'chief'
p2589
I2597
sS'writ'
p2590
I2598
sS'allow'
p2591
I2599
sS'pyramids'
p2592
I807
sS'favourites'
p2593
I2601
sS'counted'
p2594
I645
sS'breast'
p2595
I2073
sS'neglect'
p2596
I2603
sS'beauties'
p2597
I2604
sS'stamped'
p2598
I2605
sS'transfix'
p2599
I2606
sS'move'
p2600
I2607
sS'widowed'
p2601
I1517
sS"o'erlook"
p2602
I2609
sS'offences'
p2603
I2014
sS'beguile'
p2604
I2612
sS'dearest'
p2605
I2613
sS'enclose'
p2606
I2614
sS'trophies'
p2607
I995
sS'tyrant'
p2608
I2616
sS'thyself'
p2609
I2617
sS'badges'
p2610
I2618
sS'perfect'
p2611
I2619
sS'refusest'
p2612
I2620
sS'frailties'
p2613
I2621
sS'brood'
p2614
I2622
sS'whereon'
p2615
I2623
sS'unstained'
p2616
I2624
sS'decay'
p2617
I2625
sS'lo'
p2618
I2626
sS'whereof'
p2619
I2627
sS'banquet'
p2620
I2628
sS'themes'
p2621
I2629
sS'willing'
p2622
I2630
sS'tyrants'
p2623
I1851
sS'tickled'
p2624
I2632
sS'pure'
p2625
I1921
sS'flattery'
p2626
I2053
sS'sweets'
p2627
I2635
sS'stout'
p2628
I2636
sS'hands'
p2629
I2637
sS'front'
p2630
I2638
sS"owner's"
p2631
I2639
sS'kindness'
p2632
I2640
sS'affections'
p2633
I2641
sS'day'
p2634
I2642
sS'damasked'
p2635
I2643
sS'strive'
p2636
I2644
sS'profound'
p2637
I2645
sS'eased'
p2638
I2646
sS'feast'
p2639
I2647
sS'mouthed'
p2640
I2648
sS'trimmed'
p2641
I2649
sS'slide'
p2642
I2650
sS'truth'
p2643
I2651
sS'gazing'
p2644
I2652
sS'legions'
p2645
I2653
sS'beshrew'
p2646
I3099
sS'lie'
p2647
I2212
sS'pitying'
p2648
I2655
sS'debarred'
p2649
I2430
sS'doing'
p2650
I2657
sS"princes'"
p2651
I2658
sS'ills'
p2652
I2659
sS'alteration'
p2653
I2660
sS'society'
p2654
I2661
sS'decays'
p2655
I2662
sS'exceeded'
p2656
I2663
sS'our'
p2657
I2664
sS'bay'
p2658
I2665
sS'tenth'
p2659
I2666
sS'prizing'
p2660
I277
sS'might'
p2661
I1845
sS'respects'
p2662
I2669
sS"children's"
p2663
I2670
sS'plods'
p2664
I2671
sS'confess'
p2665
I2672
sS'sufficed'
p2666
I2673
sS'bad'
p2667
I2674
sS'wondrous'
p2668
I28
sS'impart'
p2669
I2676
sS'cause'
p2670
I2677
sS'red'
p2671
I2678
sS'afford'
p2672
I2384
sS'perish'
p2673
I2680
sS'frank'
p2674
I2681
sS'darkly'
p2675
I2682
sS'embassy'
p2676
I2683
sS'gaol'
p2677
I96
sS'canker'
p2678
I2586
sS'shun'
p2679
I1692
sS'yore'
p2680
I2687
sS'cured'
p2681
I2688
sS'her'
p2682
I2689
sS'misuse'
p2683
I2531
sS'could'
p2684
I2691
sS'times'
p2685
I169
sS'counterpart'
p2686
I2693
sS'keen'
p2687
I2694
sS'length'
p2688
I2695
sS'cures'
p2689
I2696
sS'mortal'
p2690
I2697
sS'hence'
p2691
I2698
sS'ears'
p2692
I2699
sS'rudely'
p2693
I2700
sS'new-appearing'
p2694
I2701
sS'fragrant'
p2695
I2702
sS'pitied'
p2696
I2703
sS'savour'
p2697
I223
sS'powerful'
p2698
I2705
sS'loveliness'
p2699
I2706
sS'feasts'
p2700
I2707
sS"learned's"
p2701
I2708
sS'such'
p2702
I2709
sS'watchman'
p2703
I3116
sS'quality'
p2704
I2711
sS"run'st"
p2705
I269
sS"love'"
p2706
I2714
sS'sadly'
p2707
I2715
sS'bears'
p2708
I298
sS'unknown'
p2709
I301
sS'vulgar'
p2710
I2718
sS'seat'
p2711
I2719
sS'comes'
p2712
I2569
sS'intelligence'
p2713
I2721
sS'prouder'
p2714
I2722
sS'travelled'
p2715
I2723
sS'badness'
p2716
I2724
sS'fairest'
p2717
I2725
sS'painful'
p2718
I2726
sS'beard'
p2719
I353
sS'sealed'
p2720
I1720
sS"were't"
p2721
I2729
sS'perforce'
p2722
I2730
sS'prefiguring'
p2723
I2731
sS'herself'
p2724
I420
sS'commence'
p2725
I2733
sS'remember'
p2726
I1019
sS'steel'
p2727
I2735
sS'loved'
p2728
I2736
sS'unlooked'
p2729
I2737
sS'aught'
p2730
I2738
sS'beseem'
p2731
I448
sS'riches'
p2732
I2740
sS'richer'
p2733
I2741
sS'bed'
p2734
I2742
sS'jollity'
p2735
I2743
sS'transgression'
p2736
I2744
sS"body's"
p2737
I2745
sS'loves'
p2738
I2746
sS'light'
p2739
I2594
sS'dumb'
p2740
I2748
sS"lily's"
p2741
I2749
sS'counting'
p2742
I2570
sS'descriptions'
p2743
I2751
sS'drunk'
p2744
I2752
sS'accusing'
p2745
I2753
sS'enforced'
p2746
I2754
sS'beggared'
p2747
I2755
sS'false'
p2748
I2756
sS"forget'st"
p2749
I2757
sS'beggar'
p2750
I2758
sS'labouring'
p2751
I2759
sS'gently'
p2752
I2760
sS'refigured'
p2753
I2761
sS'presenteth'
p2754
I2100
sS'prophetic'
p2755
I3120
sS'torment'
p2756
I2764
sS'have'
p2757
I2765
sS're-survey'
p2758
I2766
sS'need'
p2759
I2767
sS'turn'
p2760
I2768
sS'sings'
p2761
I2769
sS'bastard'
p2762
I2770
sS'bough'
p2763
I2771
sS'reeks'
p2764
I625
sS'able'
p2765
I2773
sS'gravity'
p2766
I2774
sS'adjunct'
p2767
I2775
sS'which'
p2768
I2776
sS'divert'
p2769
I2777
sS'adieu'
p2770
I2779
sS'unless'
p2771
I2780
sS'centre'
p2772
I2781
sS'tenure'
p2773
I2600
sS'privilage'
p2774
I2784
sS"time's"
p2775
I2786
sS'harmful'
p2776
I2787
sS'offend'
p2777
I2788
sS'but'
p2778
I2790
sS'prisoner'
p2779
I2791
sS'expired'
p2780
I2792
sS'why'
p2781
I2793
sS"husband's"
p2782
I2794
sS'statute'
p2783
I743
sS'deny'
p2784
I2796
sS'wherewith'
p2785
I2797
sS'bred'
p2786
I2798
sS'stronger'
p2787
I2799
sS'disease'
p2788
I2800
sS'reproving'
p2789
I1167
sS'looked'
p2790
I790
sS'wounded'
p2791
I2803
sS'painting'
p2792
I2804
sS'outlive'
p2793
I2805
sS'tear'
p2794
I1873
sS'impression'
p2795
I2807
sS'slandered'
p2796
I837
sS'wilful'
p2797
I2809
sS'couldst'
p2798
I2810
sS'burden'
p2799
I2811
sS'poesy'
p2800
I2812
sS'bring'
p2801
I2813
sS"many's"
p2802
I2814
sS'fear'
p2803
I885
sS'obsequious'
p2804
I2816
sS'pleased'
p2805
I894
sS'spurring'
p2806
I2818
sS'envy'
p2807
I2819
sS'knowledge'
p2808
I2820
sS'chiding'
p2809
I2821
sS'philomel'
p2810
I2822
sS'mute'
p2811
I2823
sS'woo'
p2812
I2824
sS'world-without-end'
p2813
I2825
sS'should'
p2814
I2826
sS"there's"
p2815
I20
sS'preposterously'
p2816
I2828
sS'tune'
p2817
I1849
sS'marriage'
p2818
I2830
sS'inhabit'
p2819
I2831
sS'inferior'
p2820
I1048
sS'exchanged'
p2821
I447
sS'accessary'
p2822
I2834
sS'doubting'
p2823
I2835
sS'undivided'
p2824
I993
sS'familiar'
p2825
I2837
sS'bear'
p2826
I2838
sS'sightless'
p2827
I2608
sS'abundance'
p2828
I851
sS'perfection'
p2829
I2839
sS'words'
p2830
I2840
sS'durst'
p2831
I2841
sS'leases'
p2832
I2842
sS'chips'
p2833
I1047
sS'rite'
p2834
I2113
sS'endless'
p2835
I2845
sS'heretic'
p2836
I2846
sS'glory'
p2837
I3138
sS'whilst'
p2838
I2611
sS'gust'
p2839
I2849
sS'married'
p2840
I2850
sS'summon'
p2841
I2851
sS'she'
p2842
I2852
sS'contain'
p2843
I2853
sS'fixed'
p2844
I2854
sS'deceived'
p2845
I281
sS'strengthened'
p2846
I2856
sS'sluttish'
p2847
I2857
sS'untrue'
p2848
I2858
sS'outbraves'
p2849
I2859
sS'farthest'
p2850
I2860
sS'prayers'
p2851
I1286
sS'frame'
p2852
I2862
sS'shake'
p2853
I2863
sS'legacy'
p2854
I2864
sS'merits'
p2855
I2865
sS'changes'
p2856
I2866
sS'desperate'
p2857
I1179
sS'violet'
p2858
I2868
sS'sleeping'
p2859
I2869
sS'overturn'
p2860
I2941
sS'tripping'
p2861
I2870
sS'error'
p2862
I2871
sS'closet'
p2863
I2872
sS'placed'
p2864
I3144
sS'pattern'
p2865
I2874
sS'vows'
p2866
I2875
sS'unseeing'
p2867
I2876
sS'worship'
p2868
I2296
sS'written'
p2869
I1252
sS'boughs'
p2870
I2879
sS'progress'
p2871
I2880
sS'neither'
p2872
I2881
sS'besmeared'
p2873
I2882
sS'wiry'
p2874
I2883
sS'dreading'
p2875
I1937
sS'amen'
p2876
I1294
sS'dressings'
p2877
I2886
sS'joy'
p2878
I2887
sS'sorrow'
p2879
I2888
sS'beweep'
p2880
I2667
sS'never-resting'
p2881
I2728
sS'hooks'
p2882
I2889
sS'spoil'
p2883
I1326
sS'precious'
p2884
I2891
sS'weary'
p2885
I2892
sS'swift'
p2886
I2893
sS'hits'
p2887
I2894
sS'weeks'
p2888
I1640
sS'instant'
p2889
I2896
sS'limits'
p2890
I2897
sS'invited'
p2891
I2898
sS'thence'
p2892
I2899
sS'equal'
p2893
I2900
sS'minds'
p2894
I2901
sS'ruminate'
p2895
I2422
sS'assure'
p2896
I55
sS'admit'
p2897
I2903
sS'devour'
p2898
I2904
sS'figures'
p2899
I1389
sS"store's"
p2900
I2906
sS'conquered'
p2901
I1400
sS'canopy'
p2902
I2908
sS'lofty'
p2903
I2909
sS"beds'"
p2904
I2785
sS'aye'
p2905
I2912
sS'comment'
p2906
I2913
sS'fester'
p2907
I2914
sS'statues'
p2908
I2916
sS'bearing'
p2909
I3150
sS'walk'
p2910
I2918
sS'commend'
p2911
I2919
sS"wretch's"
p2912
I1466
sS'kings'
p2913
I1474
sS'fountains'
p2914
I3124
sS'death-bed'
p2915
I1500
sS'second'
p2916
I2923
sS'addition'
p2917
I2924
sS'wills'
p2918
I2925
sS'fury'
p2919
I777
sS'gaze'
p2920
I1537
sS'certain'
p2921
I2927
sS'poet'
p2922
I2928
sS'waste'
p2923
I2929
sS'tillage'
p2924
I1051
sS'tyranny'
p2925
I2931
sS'senses'
p2926
I2782
sS'proudest'
p2927
I2934
sS"war's"
p2928
I677
sS'painted'
p2929
I2936
sS'nimble'
p2930
I2477
sS'releasing'
p2931
I2937
sS"hear'st"
p2932
I2938
sS'lets'
p2933
I2939
sS'unmoved'
p2934
I2940
sS'general'
p2935
I2933
sS'present'
p2936
I1636
sS'debtor'
p2937
I2943
sS'novel'
p2938
I2944
sS'sourly'
p2939
I2945
sS'surety-like'
p2940
I2946
sS'fearful'
p2941
I1660
sS'slept'
p2942
I1938
sS'means'
p2943
I2836
sS'addeth'
p2944
I849
sS'as'
p2945
I2950
sS'three-fold'
p2946
I2951
sS'will'
p2947
I2952
sS'riper'
p2948
I2953
sS'wild'
p2949
I405
sS'at'
p2950
I2955
sS'ripe'
p2951
I2956
sS'physicians'
p2952
I2957
sS'almost'
p2953
I2958
sS'up-locked'
p2954
I2959
sS'thus'
p2955
I2960
sS'over-goes'
p2956
I1755
sS'turns'
p2957
I1875
sS'lambs'
p2958
I2962
sS'sits'
p2959
I2963
sS'new-fangled'
p2960
I1788
sS'ransom'
p2961
I2965
sS'all-eating'
p2962
I2966
sS'perhaps'
p2963
I2967
sS'cross'
p2964
I2968
sS'largess'
p2965
I2970
sS'adverse'
p2966
I2971
sS'strange'
p2967
I1841
sS'duteous'
p2968
I2973
sS'kingly'
p2969
I1852
sS'party'
p2970
I2975
sS'well-contented'
p2971
I2976
sS'blooms'
p2972
I2977
sS'slave'
p2973
I2978
sS'toil'
p2974
I2231
sS'flesh'
p2975
I2979
sS'shames'
p2976
I2980
sS'drink'
p2977
I2982
sS'upon'
p2978
I2983
sS'effect'
p2979
I2984
sS'outcast'
p2980
I2985
sS'beast'
p2981
I1915
sS"december's"
p2982
I2987
sS'fierce'
p2983
I947
sS'judgment'
p2984
I2989
sS'betray'
p2985
I2060
sS'shamed'
p2986
I1949
sS'keep'
p2987
I2692
sS'audit'
p2988
I2991
sS'scarcely'
p2989
I2992
sS'off'
p2990
I2993
sS'i'
I2994
sS'approve'
p2991
I2134
sS'colour'
p2992
I2996
sS'well'
p2993
I2997
sS'thought'
p2994
I2998
sS'amends'
p2995
I2999
sS'oft'
p2996
I3000
sS'drowns'
p2997
I2010
sS'tibey'
p2998
I2114
sS'builded'
p2999
I2026
sS'twire'
p3000
I3003
sS'bending'
p3001
I2044
sS'restore'
p3002
I3005
sS'stores'
p3003
I3007
sS'kiss'
p3004
I3008
sS'liker'
p3005
I2145
sS'less'
p3006
I2057
sS"o'erpressed"
p3007
I3010
sS'gulls'
p3008
I3011
sS'cries'
p3009
I3013
sS'interim'
p3010
I3014
sS'skill'
p3011
I3015
sS'thither'
p3012
I3016
sS'warrantise'
p3013
I1470
sS'feathered'
p3014
I3006
sS'field'
p3015
I3019
sS'bell'
p3016
I2365
sS'sky'
p3017
I3021
sS'fled'
p3018
I3022
sS'arrest'
p3019
I2150
sS'add'
p3020
I3024
sS'book'
p3021
I3171
sS'wet'
p3022
I3026
sS"infant's"
p3023
I3027
sS'rearward'
p3024
I2690
sS'raven'
p3025
I3028
sS'wooed'
p3026
I3029
sS'fate'
p3027
I3030
sS'testy'
p3028
I3031
sS'devised'
p3029
I3032
sS'famine'
p3030
I3033
sS"who's"
p3031
I3034
sS'crushed'
p3032
I3035
sS'smother'
p3033
I3036
sS'five'
p3034
I3037
sS'know'
p3035
I3038
sS'presume'
p3036
I2235
sS'press'
p3037
I3040
sS'woeful'
p3038
I1744
sS'loss'
p3039
I3042
sS'necessary'
p3040
I2261
sS"garments'"
p3041
I2263
sS'inviting'
p3042
I2265
sS'perpetual'
p3043
I3046
sS'rich-proud'
p3044
I3047
sS'admitted'
p3045
I3048
sS'dove'
p3046
I2717
sS'heed'
p3047
I3050
sS'lose'
p3048
I3051
sS'become'
p3049
I1943
sS'dispraise'
p3050
I2602
sS'indigest'
p3051
I886
sS'lends'
p3052
I3055
sS'therein'
p3053
I3056
sS'decease'
p3054
I3057
sS'warmed'
p3055
I2322
sS'because'
p3056
I2325
sS'thief'
p3057
I3061
sS'authority'
p3058
I2346
sS'immortal'
p3059
I3063
sS'hush'
p3060
I3064
sS'growth'
p3061
I3065
sS'home'
p3062
I3066
sS'transport'
p3063
I3067
sS"heaven's"
p3064
I3068
sS'lead'
p3065
I3069
sS'broad'
p3066
I3070
sS'lean'
p3067
I3071
sS'whole'
p3068
I2995
sS'leap'
p3069
I3072
sS'passion'
p3070
I3073
sS'masked'
p3071
I3074
sS"o'ertake"
p3072
I3075
sS'thinly'
p3073
I2458
sS'slight'
p3074
I3077
sS"death's"
p3075
I3078
sS'how'
p3076
I3079
sS'expire'
p3077
I3080
sS'although'
p3078
I3081
sS'worthy'
p3079
I3082
sS'instinct'
p3080
I2507
sS'imaginary'
p3081
I3084
sS'stay'
p3082
I3182
sS'repair'
p3083
I2319
sS'worths'
p3084
I3086
sS'hiding'
p3085
I2523
sS'hied'
p3086
I2362
sS"murd'rous"
p3087
I3089
sS'rare'
p3088
I3090
sS'dun'
p3089
I3091
sS'linger'
p3090
I3092
sS'universe'
p3091
I2307
sS'swear'
p3092
I2578
sS'gainer'
p3093
I3096
sS'hairs'
p3094
I3097
sS'tomb'
p3095
I2590
sS'outstripped'
p3096
I3100
sS'reckoning'
p3097
I3018
sS'own'
p3098
I3101
sS'polished'
p3099
I3102
sS'depart'
p3100
I1717
sS'owe'
p3101
I3103
sS'attaint'
p3102
I3104
sS'guard'
p3103
I3105
sS'promise'
p3104
I3106
sS'treads'
p3105
I2654
sS'female'
p3106
I2656
sS'lawful'
p3107
I3109
sS'monuments'
p3108
I2679
sS'gazeth'
p3109
I3111
sS'suborned'
p3110
I3112
sS'victors'
p3111
I3113
sS'friends'
p3112
I3187
sS'trenches'
p3113
I3115
sS'reigned'
p3114
I2710
sS'spread'
p3115
I3117
sS"grief's"
p3116
I3118
sS'function'
p3117
I3119
sS'buy'
p3118
I2763
sS'hoisted'
p3119
I3121
sS'brand'
p3120
I3122
sS'invocate'
p3121
I3123
sS"wand'ring"
p3122
I1587
sS'gait'
p3123
I3125
sS'prophecies'
p3124
I3126
sS'plague'
p3125
I3127
sS'gain'
p3126
I3128
sS'delivers'
p3127
I3129
sS'ear'
p3128
I3130
sS'eat'
p3129
I3131
sS'bud'
p3130
I3132
sS'he'
p3131
I3133
sS'count'
p3132
I3134
sS'made'
p3133
I3135
sS'wise'
p3134
I3136
sS'princes'
p3135
I3137
sS'evident'
p3136
I2847
sS'whether'
p3137
I3139
sS'wish'
p3138
I3140
sS'grieve'
p3139
I3141
sS'triumphant'
p3140
I3142
sS"eyes'"
p3141
I3143
sS'record'
p3142
I2873
sS'cruel'
p3143
I3145
sS'converted'
p3144
I3146
sS'limit'
p3145
I3147
sS'monument'
p3146
I3148
sS'minutes'
p3147
I3149
sS'unfolding'
p3148
I2917
sS'rightly'
p3149
I3151
sS'deaths'
p3150
I3152
sS'devise'
p3151
I3153
sS'measure'
p3152
I3154
sS'dearth'
p3153
I3155
sS'denote'
p3154
I3156
sS'goodness'
p3155
I3157
sS'ink'
p3156
I3158
sS'fleeting'
p3157
I3159
sS'self-killed'
p3158
I3160
sS'proceeds'
p3159
I2969
sS'endeared'
p3160
I3162
sS'nursed'
p3161
I3163
sS'mutual'
p3162
I3164
sS'compared'
p3163
I3165
sS'didst'
p3164
I3166
sS'dressed'
p3165
I3167
sS'boot'
p3166
I3168
sS'forests'
p3167
I3169
sS'slumbers'
p3168
I3170
sS'other'
p3169
I3025
sS'special'
p3170
I39
sS'sick'
p3171
I3173
sS'unlettered'
p3172
I3174
sS'behold'
p3173
I3175
sS'out'
p3174
I2668
sS'beseechers'
p3175
I3049
sS'pupil'
p3176
I3197
sS'semblance'
p3177
I3178
sS'kinds'
p3178
I2910
sS'oppression'
p3179
I3180
sS'variation'
p3180
I3181
sS'insults'
p3181
I3085
sS'methinks'
p3182
I3183
sS'chance'
p3183
I3184
sS'earthly'
p3184
I3185
sS'astronomy'
p3185
I3186
sS'veil'
p3186
I3114
sS'tan'
p3187
I3188
sS'ghost'
p3188
I3189
sS'stirred'
p3189
I3190
sS'self-example'
p3190
I3191
sS'ranks'
p3191
I3192
sS"he's"
p3192
I3193
sS'love-kindling'
p3193
I3194
sS'jewel'
p3194
I3195
sS'abhor'
p3195
I2778
sS'thrivers'
p3196
I3177
sS"sway'st"
p3197
I3198
sS'vassal'
p3198
I3199
sS'lives'
p3199
I2173
sS'accidents'
p3200
I3201
sS'indirectly'
p3201
I177
s.